ARM GAS  /var/folders/5c/srt4fy4j1pd641bjfx75k5000000gn/T//cc7XozLX.s 			page 1


   1              		.cpu cortex-m4
   2              		.arch armv7e-m
   3              		.fpu fpv4-sp-d16
   4              		.eabi_attribute 27, 1
   5              		.eabi_attribute 28, 1
   6              		.eabi_attribute 20, 1
   7              		.eabi_attribute 21, 1
   8              		.eabi_attribute 23, 3
   9              		.eabi_attribute 24, 1
  10              		.eabi_attribute 25, 1
  11              		.eabi_attribute 26, 1
  12              		.eabi_attribute 30, 1
  13              		.eabi_attribute 34, 1
  14              		.eabi_attribute 18, 4
  15              		.file	"main_mode.cpp"
  16              		.text
  17              	.Ltext0:
  18              		.cfi_sections	.debug_frame
  19              		.file 1 "src/mode/main_mode.cpp"
  20              		.global	__aeabi_i2d
  21              		.global	__aeabi_dmul
  22              		.global	__aeabi_d2f
  23              		.section	.text._ZN4Mode8MainModeEv,"ax",%progbits
  24              		.align	1
  25              		.global	_ZN4Mode8MainModeEv
  26              		.syntax unified
  27              		.thumb
  28              		.thumb_func
  30              	_ZN4Mode8MainModeEv:
  31              		.fnstart
  32              	.LVL0:
  33              	.LFB275:
   1:src/mode/main_mode.cpp **** #include "mode.hpp"
   2:src/mode/main_mode.cpp **** 
   3:src/mode/main_mode.cpp **** // cortex-debug用グローバル変数
   4:src/mode/main_mode.cpp **** int yaw;
   5:src/mode/main_mode.cpp **** float voltage;
   6:src/mode/main_mode.cpp **** int process_freq;
   7:src/mode/main_mode.cpp **** int line_dir;
   8:src/mode/main_mode.cpp **** int is_on_line;
   9:src/mode/main_mode.cpp **** int encoder[4];
  10:src/mode/main_mode.cpp **** 
  11:src/mode/main_mode.cpp **** void Mode::MainMode() {
  34              		.loc 1 11 23 view -0
  35              		.cfi_startproc
  36              		@ args = 0, pretend = 0, frame = 0
  37              		@ frame_needed = 0, uses_anonymous_args = 0
  38              		.loc 1 11 23 is_stmt 0 view .LVU1
  39 0000 38B5     		push	{r3, r4, r5, lr}
  40              		.save {r3, r4, r5, lr}
  41              	.LCFI0:
  42              		.cfi_def_cfa_offset 16
  43              		.cfi_offset 3, -16
  44              		.cfi_offset 4, -12
  45              		.cfi_offset 5, -8
  46              		.cfi_offset 14, -4
  47 0002 0446     		mov	r4, r0
ARM GAS  /var/folders/5c/srt4fy4j1pd641bjfx75k5000000gn/T//cc7XozLX.s 			page 2


  12:src/mode/main_mode.cpp ****       process_timer.reset();
  48              		.loc 1 12 7 is_stmt 1 view .LVU2
  49              		.loc 1 12 26 is_stmt 0 view .LVU3
  50 0004 FFF7FEFF 		bl	_ZN5Timer5resetEv
  51              	.LVL1:
  13:src/mode/main_mode.cpp ****       // メイン処理
  14:src/mode/main_mode.cpp **** 
  15:src/mode/main_mode.cpp ****       // UART通信
  16:src/mode/main_mode.cpp ****       robot->ImuUart();
  52              		.loc 1 16 7 is_stmt 1 view .LVU4
  53              		.loc 1 16 21 is_stmt 0 view .LVU5
  54 0008 6068     		ldr	r0, [r4, #4]
  55 000a FFF7FEFF 		bl	_ZN5Robot7ImuUartEv
  56              	.LVL2:
  17:src/mode/main_mode.cpp ****       robot->LineUart();
  57              		.loc 1 17 7 is_stmt 1 view .LVU6
  58              		.loc 1 17 22 is_stmt 0 view .LVU7
  59 000e 6068     		ldr	r0, [r4, #4]
  60 0010 FFF7FEFF 		bl	_ZN5Robot8LineUartEv
  61              	.LVL3:
  18:src/mode/main_mode.cpp ****       // robot->UiUart();
  19:src/mode/main_mode.cpp ****       // robot->CamUart();
  20:src/mode/main_mode.cpp ****       robot->Esp32Uart();
  62              		.loc 1 20 7 is_stmt 1 view .LVU8
  63              		.loc 1 20 23 is_stmt 0 view .LVU9
  64 0014 6068     		ldr	r0, [r4, #4]
  65 0016 FFF7FEFF 		bl	_ZN5Robot9Esp32UartEv
  66              	.LVL4:
  21:src/mode/main_mode.cpp **** 
  22:src/mode/main_mode.cpp ****       // センサー情報取得
  23:src/mode/main_mode.cpp ****       robot->GetSensors();
  67              		.loc 1 23 7 is_stmt 1 view .LVU10
  68              		.loc 1 23 24 is_stmt 0 view .LVU11
  69 001a 6068     		ldr	r0, [r4, #4]
  70 001c FFF7FEFF 		bl	_ZN5Robot10GetSensorsEv
  71              	.LVL5:
  24:src/mode/main_mode.cpp **** 
  25:src/mode/main_mode.cpp ****       // 動いている時かデバッグモードの時ラインをつける
  26:src/mode/main_mode.cpp ****       robot->info.Line.on_led = false;
  72              		.loc 1 26 7 is_stmt 1 view .LVU12
  73 0020 6368     		ldr	r3, [r4, #4]
  74              		.loc 1 26 31 is_stmt 0 view .LVU13
  75 0022 0022     		movs	r2, #0
  76 0024 83F82A20 		strb	r2, [r3, #42]
  27:src/mode/main_mode.cpp ****       if (robot->info.mode != 0 || robot->info.Ui.item == 1) robot->info.Line.on_led = true;
  77              		.loc 1 27 7 is_stmt 1 view .LVU14
  78              		.loc 1 27 11 is_stmt 0 view .LVU15
  79 0028 6368     		ldr	r3, [r4, #4]
  80              		.loc 1 27 23 view .LVU16
  81 002a 1A7D     		ldrb	r2, [r3, #20]	@ zero_extendqisi2
  82              		.loc 1 27 7 view .LVU17
  83 002c 1AB9     		cbnz	r2, .L2
  84              		.loc 1 27 51 discriminator 2 view .LVU18
  85 002e 93F94320 		ldrsb	r2, [r3, #67]
  86              		.loc 1 27 33 discriminator 2 view .LVU19
  87 0032 012A     		cmp	r2, #1
  88 0034 02D1     		bne	.L3
ARM GAS  /var/folders/5c/srt4fy4j1pd641bjfx75k5000000gn/T//cc7XozLX.s 			page 3


  89              	.L2:
  90              		.loc 1 27 62 is_stmt 1 discriminator 3 view .LVU20
  91              		.loc 1 27 86 is_stmt 0 discriminator 3 view .LVU21
  92 0036 0122     		movs	r2, #1
  93 0038 83F82A20 		strb	r2, [r3, #42]
  94              	.L3:
  28:src/mode/main_mode.cpp **** 
  29:src/mode/main_mode.cpp ****       // 　yawのリセット
  30:src/mode/main_mode.cpp ****       if (robot->info.Ui.reset_yaw == false) robot->info.Ui.success_reset_yaw = false;
  95              		.loc 1 30 7 is_stmt 1 view .LVU22
  96              		.loc 1 30 11 is_stmt 0 view .LVU23
  97 003c 6368     		ldr	r3, [r4, #4]
  98              		.loc 1 30 26 view .LVU24
  99 003e 93F83E20 		ldrb	r2, [r3, #62]	@ zero_extendqisi2
 100              		.loc 1 30 7 view .LVU25
 101 0042 0AB9     		cbnz	r2, .L4
 102              		.loc 1 30 46 is_stmt 1 discriminator 1 view .LVU26
 103              		.loc 1 30 79 is_stmt 0 discriminator 1 view .LVU27
 104 0044 83F83F20 		strb	r2, [r3, #63]
 105              	.L4:
  31:src/mode/main_mode.cpp ****       if (robot->info.Ui.reset_yaw == true && robot->info.Ui.success_reset_yaw == false) {
 106              		.loc 1 31 7 is_stmt 1 view .LVU28
 107              		.loc 1 31 11 is_stmt 0 view .LVU29
 108 0048 6368     		ldr	r3, [r4, #4]
 109              		.loc 1 31 26 view .LVU30
 110 004a 93F83E20 		ldrb	r2, [r3, #62]	@ zero_extendqisi2
 111              		.loc 1 31 7 view .LVU31
 112 004e 52B1     		cbz	r2, .L5
 113              		.loc 1 31 62 discriminator 1 view .LVU32
 114 0050 93F83F20 		ldrb	r2, [r3, #63]	@ zero_extendqisi2
 115              		.loc 1 31 44 discriminator 1 view .LVU33
 116 0054 3AB9     		cbnz	r2, .L5
  32:src/mode/main_mode.cpp ****             robot->info.Imu.yaw_correction_val = robot->info.Imu.yaw + robot->info.Imu.yaw_correcti
 117              		.loc 1 32 13 is_stmt 1 view .LVU34
 118              		.loc 1 32 66 is_stmt 0 view .LVU35
 119 0056 DA8E     		ldrh	r2, [r3, #54]
 120              		.loc 1 32 88 view .LVU36
 121 0058 998F     		ldrh	r1, [r3, #60]
 122              		.loc 1 32 70 view .LVU37
 123 005a 0A44     		add	r2, r2, r1
 124              		.loc 1 32 48 view .LVU38
 125 005c 9A87     		strh	r2, [r3, #60]	@ movhi
  33:src/mode/main_mode.cpp ****             robot->info.Ui.success_reset_yaw = true;
 126              		.loc 1 33 13 is_stmt 1 view .LVU39
 127 005e 6368     		ldr	r3, [r4, #4]
 128              		.loc 1 33 46 is_stmt 0 view .LVU40
 129 0060 0122     		movs	r2, #1
 130 0062 83F83F20 		strb	r2, [r3, #63]
 131              	.L5:
  34:src/mode/main_mode.cpp ****       }
  35:src/mode/main_mode.cpp **** 
  36:src/mode/main_mode.cpp ****       robot->info.Esp32.do_rotate = false;
 132              		.loc 1 36 7 is_stmt 1 view .LVU41
 133 0066 6368     		ldr	r3, [r4, #4]
 134              		.loc 1 36 35 is_stmt 0 view .LVU42
 135 0068 0022     		movs	r2, #0
 136 006a 83F88A20 		strb	r2, [r3, #138]
ARM GAS  /var/folders/5c/srt4fy4j1pd641bjfx75k5000000gn/T//cc7XozLX.s 			page 4


  37:src/mode/main_mode.cpp ****       // if (robot->info.Ui.item == 0 && robot->info.Ui.sub_item != 0) robot->info.Esp32.do_rotate 
  38:src/mode/main_mode.cpp **** 
  39:src/mode/main_mode.cpp ****       // モード切り替え
  40:src/mode/main_mode.cpp ****       if (robot->info.mode == 0) {
 137              		.loc 1 40 7 is_stmt 1 view .LVU43
 138              		.loc 1 40 11 is_stmt 0 view .LVU44
 139 006e 6068     		ldr	r0, [r4, #4]
 140              		.loc 1 40 23 view .LVU45
 141 0070 037D     		ldrb	r3, [r0, #20]	@ zero_extendqisi2
 142              		.loc 1 40 7 view .LVU46
 143 0072 002B     		cmp	r3, #0
 144 0074 40F08F80 		bne	.L6
  41:src/mode/main_mode.cpp ****             // robot->motor.Free();
  42:src/mode/main_mode.cpp **** 
  43:src/mode/main_mode.cpp ****             // if (robot->info.Ui.dribbler_sig == 0) {
  44:src/mode/main_mode.cpp ****             //       robot->dribbler_front.Hold(0);
  45:src/mode/main_mode.cpp ****             //       robot->dribbler_back.Hold(0);
  46:src/mode/main_mode.cpp ****             // } else if (robot->info.Ui.dribbler_sig == 1) {
  47:src/mode/main_mode.cpp ****             //       if (robot->info.Catch.is_front) {
  48:src/mode/main_mode.cpp ****             //             robot->dribbler_front.Hold(HOLD_MAX_POWER);
  49:src/mode/main_mode.cpp ****             //       } else {
  50:src/mode/main_mode.cpp ****             //             robot->dribbler_front.Hold(HOLD_WAIT_POWER);
  51:src/mode/main_mode.cpp ****             //       }
  52:src/mode/main_mode.cpp ****             // } else if (robot->info.Ui.dribbler_sig == 2) {
  53:src/mode/main_mode.cpp ****             //       robot->kicker.Kick();
  54:src/mode/main_mode.cpp ****             // } else if (robot->info.Ui.dribbler_sig == 3) {
  55:src/mode/main_mode.cpp ****             //       if (robot->info.Catch.is_back) {
  56:src/mode/main_mode.cpp ****             //             robot->dribbler_back.Hold(HOLD_MAX_POWER);
  57:src/mode/main_mode.cpp ****             //       } else {
  58:src/mode/main_mode.cpp ****             //             robot->dribbler_back.Hold(HOLD_WAIT_POWER);
  59:src/mode/main_mode.cpp ****             //       }
  60:src/mode/main_mode.cpp ****             // }
  61:src/mode/main_mode.cpp **** 
  62:src/mode/main_mode.cpp ****             if (robot->info.Esp32.Wifi.stop) {
 145              		.loc 1 62 13 is_stmt 1 view .LVU47
 146              		.loc 1 62 40 is_stmt 0 view .LVU48
 147 0078 90F8A330 		ldrb	r3, [r0, #163]	@ zero_extendqisi2
 148              		.loc 1 62 13 view .LVU49
 149 007c 002B     		cmp	r3, #0
 150 007e 39D1     		bne	.L29
  63:src/mode/main_mode.cpp ****                   robot->motor.Free();
  64:src/mode/main_mode.cpp ****                   robot->dribbler_front.Hold(0);
  65:src/mode/main_mode.cpp ****             } else {
  66:src/mode/main_mode.cpp ****                   if (robot->info.Esp32.Wifi.face_axis == 0) {
 151              		.loc 1 66 19 is_stmt 1 view .LVU50
 152              		.loc 1 66 46 is_stmt 0 view .LVU51
 153 0080 90F8A030 		ldrb	r3, [r0, #160]	@ zero_extendqisi2
 154              		.loc 1 66 19 view .LVU52
 155 0084 002B     		cmp	r3, #0
 156 0086 41D0     		beq	.L30
  67:src/mode/main_mode.cpp ****                         robot->motor.Drive(robot->info.Esp32.Wifi.move_dir, robot->info.Esp32.Wifi.
  68:src/mode/main_mode.cpp ****                   } else if (robot->info.Esp32.Wifi.face_axis == 1) {
 157              		.loc 1 68 26 is_stmt 1 view .LVU53
 158 0088 012B     		cmp	r3, #1
 159 008a 4ED0     		beq	.L31
  69:src/mode/main_mode.cpp ****                         robot->motor.Drive(robot->info.Esp32.Wifi.move_dir, robot->info.Esp32.Wifi.
  70:src/mode/main_mode.cpp ****                   } else if (robot->info.Esp32.Wifi.face_axis == 2) {
ARM GAS  /var/folders/5c/srt4fy4j1pd641bjfx75k5000000gn/T//cc7XozLX.s 			page 5


 160              		.loc 1 70 26 view .LVU54
 161 008c 022B     		cmp	r3, #2
 162 008e 5BD0     		beq	.L32
 163              	.L10:
  71:src/mode/main_mode.cpp ****                         robot->motor.Drive(robot->info.Esp32.Wifi.move_dir, robot->info.Esp32.Wifi.
  72:src/mode/main_mode.cpp ****                   }
  73:src/mode/main_mode.cpp ****                   if (robot->info.Esp32.Wifi.kick) {
 164              		.loc 1 73 19 view .LVU55
 165              		.loc 1 73 23 is_stmt 0 view .LVU56
 166 0090 6568     		ldr	r5, [r4, #4]
 167              		.loc 1 73 46 view .LVU57
 168 0092 95F8A100 		ldrb	r0, [r5, #161]	@ zero_extendqisi2
 169              		.loc 1 73 19 view .LVU58
 170 0096 0028     		cmp	r0, #0
 171 0098 66D1     		bne	.L33
 172              	.L12:
  74:src/mode/main_mode.cpp ****                         robot->kicker.Kick(robot->info.Esp32.Wifi.kick * 0.01);
  75:src/mode/main_mode.cpp ****                   }
  76:src/mode/main_mode.cpp ****                   if (robot->info.Esp32.Wifi.dribble) {
 173              		.loc 1 76 19 is_stmt 1 view .LVU59
 174              		.loc 1 76 23 is_stmt 0 view .LVU60
 175 009a 6068     		ldr	r0, [r4, #4]
 176              		.loc 1 76 46 view .LVU61
 177 009c 90F8A210 		ldrb	r1, [r0, #162]	@ zero_extendqisi2
 178              		.loc 1 76 19 view .LVU62
 179 00a0 0029     		cmp	r1, #0
 180 00a2 71D0     		beq	.L13
  77:src/mode/main_mode.cpp ****                         robot->dribbler_front.Hold(robot->info.Esp32.Wifi.dribble);
 181              		.loc 1 77 25 is_stmt 1 view .LVU63
 182              		.loc 1 77 51 is_stmt 0 view .LVU64
 183 00a4 00F58650 		add	r0, r0, #4288
 184 00a8 1030     		adds	r0, r0, #16
 185 00aa FFF7FEFF 		bl	_ZN13DribblerDrive4HoldEh
 186              	.LVL6:
 187              	.L8:
  78:src/mode/main_mode.cpp ****                   } else {
  79:src/mode/main_mode.cpp ****                         robot->dribbler_front.Hold(0);
  80:src/mode/main_mode.cpp ****                   }
  81:src/mode/main_mode.cpp ****             }
  82:src/mode/main_mode.cpp ****       } else if (robot->info.mode == 1) {
  83:src/mode/main_mode.cpp ****             Offence();
  84:src/mode/main_mode.cpp ****       } else if (robot->info.mode == 2) {
  85:src/mode/main_mode.cpp ****             Defence();
  86:src/mode/main_mode.cpp ****       } else if (robot->info.mode == 3) {  // debug mode
  87:src/mode/main_mode.cpp ****             if (robot->info.Esp32.Wifi.stop) {
  88:src/mode/main_mode.cpp ****                   robot->motor.Free();
  89:src/mode/main_mode.cpp ****                   robot->dribbler_front.Hold(0);
  90:src/mode/main_mode.cpp ****             } else {
  91:src/mode/main_mode.cpp ****                   if (robot->info.Esp32.Wifi.face_axis == 0) {
  92:src/mode/main_mode.cpp ****                         robot->motor.Drive(robot->info.Esp32.Wifi.move_dir, robot->info.Esp32.Wifi.
  93:src/mode/main_mode.cpp ****                   } else if (robot->info.Esp32.Wifi.face_axis == 1) {
  94:src/mode/main_mode.cpp ****                         robot->motor.Drive(robot->info.Esp32.Wifi.move_dir, robot->info.Esp32.Wifi.
  95:src/mode/main_mode.cpp ****                   } else if (robot->info.Esp32.Wifi.face_axis == 2) {
  96:src/mode/main_mode.cpp ****                         robot->motor.Drive(robot->info.Esp32.Wifi.move_dir, robot->info.Esp32.Wifi.
  97:src/mode/main_mode.cpp ****                   }
  98:src/mode/main_mode.cpp ****                   if (robot->info.Esp32.Wifi.kick) {
  99:src/mode/main_mode.cpp ****                         robot->kicker.Kick(robot->info.Esp32.Wifi.kick * 0.01);
ARM GAS  /var/folders/5c/srt4fy4j1pd641bjfx75k5000000gn/T//cc7XozLX.s 			page 6


 100:src/mode/main_mode.cpp ****                   }
 101:src/mode/main_mode.cpp ****                   if (robot->info.Esp32.Wifi.dribble) {
 102:src/mode/main_mode.cpp ****                         robot->dribbler_front.Hold(robot->info.Esp32.Wifi.dribble);
 103:src/mode/main_mode.cpp ****                   } else {
 104:src/mode/main_mode.cpp ****                         robot->dribbler_front.Hold(0);
 105:src/mode/main_mode.cpp ****                   }
 106:src/mode/main_mode.cpp ****             }
 107:src/mode/main_mode.cpp **** 
 108:src/mode/main_mode.cpp ****       } else if (robot->info.mode == 4) {  // debug mode
 109:src/mode/main_mode.cpp ****             robot->motor.Drive(0, 0.5, 0.1);
 110:src/mode/main_mode.cpp ****             robot->info.Ui.debug[0] = robot->info.motor_rad_s[1] * 100;
 111:src/mode/main_mode.cpp ****             robot->info.Ui.debug[1] = 0;
 112:src/mode/main_mode.cpp ****       }
 113:src/mode/main_mode.cpp **** 
 114:src/mode/main_mode.cpp ****       // cortex-debug
 115:src/mode/main_mode.cpp ****       // yaw = robot->info.Imu.yaw;
 116:src/mode/main_mode.cpp ****       // voltage = robot->info.voltage;
 117:src/mode/main_mode.cpp ****       // line_dir = robot->info.Line.dir;
 118:src/mode/main_mode.cpp ****       // is_on_line = robot->info.Line.is_on_line;
 119:src/mode/main_mode.cpp **** 
 120:src/mode/main_mode.cpp ****       // encoder[0] = robot->info.motor_rad_s[0];
 121:src/mode/main_mode.cpp ****       // encoder[1] = robot->info.motor_rad_s[1];
 122:src/mode/main_mode.cpp ****       // encoder[2] = robot->info.motor_rad_s[2];
 123:src/mode/main_mode.cpp ****       // encoder[3] = robot->info.motor_rad_s[3];
 124:src/mode/main_mode.cpp **** 
 125:src/mode/main_mode.cpp ****       //  定周期処理
 126:src/mode/main_mode.cpp ****       process_time_ = process_timer.read_us();
 188              		.loc 1 126 7 is_stmt 1 view .LVU65
 189              		.loc 1 126 44 is_stmt 0 view .LVU66
 190 00ae 2046     		mov	r0, r4
 191 00b0 FFF7FEFF 		bl	_ZN5Timer7read_usEv
 192              	.LVL7:
 193              		.loc 1 126 21 view .LVU67
 194 00b4 80B2     		uxth	r0, r0
 195 00b6 2081     		strh	r0, [r4, #8]	@ movhi
 127:src/mode/main_mode.cpp ****       if (process_time_ < PERIOD_US) {
 196              		.loc 1 127 7 is_stmt 1 view .LVU68
 197 00b8 B0F5FA7F 		cmp	r0, #500
 198 00bc 05D2     		bcs	.L25
 199              	.L26:
 128:src/mode/main_mode.cpp ****             while (process_timer.read_us() < PERIOD_US);  // 余剰時間を待つ
 200              		.loc 1 128 44 discriminator 1 view .LVU69
 201              		.loc 1 128 41 is_stmt 0 discriminator 1 view .LVU70
 202 00be 2046     		mov	r0, r4
 203 00c0 FFF7FEFF 		bl	_ZN5Timer7read_usEv
 204              	.LVL8:
 205              		.loc 1 128 44 discriminator 1 view .LVU71
 206 00c4 B0F5FA7F 		cmp	r0, #500
 207 00c8 F9D3     		bcc	.L26
 208              	.L25:
 129:src/mode/main_mode.cpp ****       }
 130:src/mode/main_mode.cpp ****       process_freq = 1.0f / (process_timer.read_us() * 0.000001f);
 209              		.loc 1 130 7 is_stmt 1 view .LVU72
 210              		.loc 1 130 51 is_stmt 0 view .LVU73
 211 00ca 2046     		mov	r0, r4
 212 00cc FFF7FEFF 		bl	_ZN5Timer7read_usEv
 213              	.LVL9:
ARM GAS  /var/folders/5c/srt4fy4j1pd641bjfx75k5000000gn/T//cc7XozLX.s 			page 7


 214 00d0 07EE900A 		vmov	s15, r0	@ int
 215              		.loc 1 130 54 view .LVU74
 216 00d4 F8EE677A 		vcvt.f32.u32	s15, s15
 217 00d8 9FED7D7A 		vldr.32	s14, .L39+8
 218 00dc 67EE877A 		vmul.f32	s15, s15, s14
 219              		.loc 1 130 27 view .LVU75
 220 00e0 F7EE006A 		vmov.f32	s13, #1.0e+0
 221 00e4 86EEA77A 		vdiv.f32	s14, s13, s15
 222              		.loc 1 130 20 view .LVU76
 223 00e8 BDEEC77A 		vcvt.s32.f32	s14, s14
 224 00ec 794B     		ldr	r3, .L39+12
 225 00ee 83ED007A 		vstr.32	s14, [r3]	@ int
 131:src/mode/main_mode.cpp **** }...
 226              		.loc 1 131 1 view .LVU77
 227 00f2 38BD     		pop	{r3, r4, r5, pc}
 228              	.LVL10:
 229              	.L29:
  63:src/mode/main_mode.cpp ****                   robot->motor.Free();
 230              		.loc 1 63 19 is_stmt 1 view .LVU78
  63:src/mode/main_mode.cpp ****                   robot->motor.Free();
 231              		.loc 1 63 36 is_stmt 0 view .LVU79
 232 00f4 00F5C870 		add	r0, r0, #400
 233 00f8 FFF7FEFF 		bl	_ZN10MotorDrive4FreeEv
 234              	.LVL11:
  64:src/mode/main_mode.cpp ****                   robot->dribbler_front.Hold(0);
 235              		.loc 1 64 19 is_stmt 1 view .LVU80
 236 00fc 6068     		ldr	r0, [r4, #4]
  64:src/mode/main_mode.cpp ****                   robot->dribbler_front.Hold(0);
 237              		.loc 1 64 45 is_stmt 0 view .LVU81
 238 00fe 0021     		movs	r1, #0
 239 0100 00F58650 		add	r0, r0, #4288
 240 0104 1030     		adds	r0, r0, #16
 241 0106 FFF7FEFF 		bl	_ZN13DribblerDrive4HoldEh
 242              	.LVL12:
 243 010a D0E7     		b	.L8
 244              	.L30:
  67:src/mode/main_mode.cpp ****                         robot->motor.Drive(robot->info.Esp32.Wifi.move_dir, robot->info.Esp32.Wifi.
 245              		.loc 1 67 25 is_stmt 1 view .LVU82
  67:src/mode/main_mode.cpp ****                         robot->motor.Drive(robot->info.Esp32.Wifi.move_dir, robot->info.Esp32.Wifi.
 246              		.loc 1 67 43 is_stmt 0 view .LVU83
 247 010c 90ED271A 		vldr.32	s2, [r0, #156]
 248 0110 B0F99820 		ldrsh	r2, [r0, #152]
 249 0114 D0ED250A 		vldr.32	s1, [r0, #148]
 250 0118 90ED240A 		vldr.32	s0, [r0, #144]
 251 011c B0F98E10 		ldrsh	r1, [r0, #142]
 252 0120 00F5C870 		add	r0, r0, #400
 253 0124 FFF7FEFF 		bl	_ZN10MotorDrive5DriveEsffsfh
 254              	.LVL13:
 255 0128 B2E7     		b	.L10
 256              	.L31:
  69:src/mode/main_mode.cpp ****                         robot->motor.Drive(robot->info.Esp32.Wifi.move_dir, robot->info.Esp32.Wifi.
 257              		.loc 1 69 25 is_stmt 1 view .LVU84
  69:src/mode/main_mode.cpp ****                         robot->motor.Drive(robot->info.Esp32.Wifi.move_dir, robot->info.Esp32.Wifi.
 258              		.loc 1 69 43 is_stmt 0 view .LVU85
 259 012a 90ED271A 		vldr.32	s2, [r0, #156]
 260 012e B0F99820 		ldrsh	r2, [r0, #152]
 261 0132 D0ED250A 		vldr.32	s1, [r0, #148]
ARM GAS  /var/folders/5c/srt4fy4j1pd641bjfx75k5000000gn/T//cc7XozLX.s 			page 8


 262 0136 90ED240A 		vldr.32	s0, [r0, #144]
 263 013a B0F98E10 		ldrsh	r1, [r0, #142]
 264 013e 00F5C870 		add	r0, r0, #400
 265 0142 FFF7FEFF 		bl	_ZN10MotorDrive5DriveEsffsfh
 266              	.LVL14:
 267 0146 A3E7     		b	.L10
 268              	.L32:
  71:src/mode/main_mode.cpp ****                         robot->motor.Drive(robot->info.Esp32.Wifi.move_dir, robot->info.Esp32.Wifi.
 269              		.loc 1 71 25 is_stmt 1 view .LVU86
  71:src/mode/main_mode.cpp ****                         robot->motor.Drive(robot->info.Esp32.Wifi.move_dir, robot->info.Esp32.Wifi.
 270              		.loc 1 71 43 is_stmt 0 view .LVU87
 271 0148 0323     		movs	r3, #3
 272 014a 90ED271A 		vldr.32	s2, [r0, #156]
 273 014e B0F99820 		ldrsh	r2, [r0, #152]
 274 0152 D0ED250A 		vldr.32	s1, [r0, #148]
 275 0156 90ED240A 		vldr.32	s0, [r0, #144]
 276 015a B0F98E10 		ldrsh	r1, [r0, #142]
 277 015e 00F5C870 		add	r0, r0, #400
 278 0162 FFF7FEFF 		bl	_ZN10MotorDrive5DriveEsffsfh
 279              	.LVL15:
 280 0166 93E7     		b	.L10
 281              	.L33:
  74:src/mode/main_mode.cpp ****                         robot->kicker.Kick(robot->info.Esp32.Wifi.kick * 0.01);
 282              		.loc 1 74 25 is_stmt 1 view .LVU88
  74:src/mode/main_mode.cpp ****                         robot->kicker.Kick(robot->info.Esp32.Wifi.kick * 0.01);
 283              		.loc 1 74 72 is_stmt 0 view .LVU89
 284 0168 FFF7FEFF 		bl	__aeabi_i2d
 285              	.LVL16:
 286 016c 56A3     		adr	r3, .L39
 287 016e D3E90023 		ldrd	r2, [r3]
 288 0172 FFF7FEFF 		bl	__aeabi_dmul
 289              	.LVL17:
  74:src/mode/main_mode.cpp ****                         robot->kicker.Kick(robot->info.Esp32.Wifi.kick * 0.01);
 290              		.loc 1 74 43 view .LVU90
 291 0176 FFF7FEFF 		bl	__aeabi_d2f
 292              	.LVL18:
 293 017a 00EE100A 		vmov	s0, r0
 294 017e 05F58850 		add	r0, r5, #4352
 295 0182 FFF7FEFF 		bl	_ZN6Kicker4KickEf
 296              	.LVL19:
 297 0186 88E7     		b	.L12
 298              	.L13:
  79:src/mode/main_mode.cpp ****                         robot->dribbler_front.Hold(0);
 299              		.loc 1 79 25 is_stmt 1 view .LVU91
  79:src/mode/main_mode.cpp ****                         robot->dribbler_front.Hold(0);
 300              		.loc 1 79 51 is_stmt 0 view .LVU92
 301 0188 0021     		movs	r1, #0
 302 018a 00F58650 		add	r0, r0, #4288
 303 018e 1030     		adds	r0, r0, #16
 304 0190 FFF7FEFF 		bl	_ZN13DribblerDrive4HoldEh
 305              	.LVL20:
 306 0194 8BE7     		b	.L8
 307              	.L6:
  82:src/mode/main_mode.cpp ****       } else if (robot->info.mode == 1) {
 308              		.loc 1 82 14 is_stmt 1 view .LVU93
 309 0196 013B     		subs	r3, r3, #1
 310 0198 032B     		cmp	r3, #3
ARM GAS  /var/folders/5c/srt4fy4j1pd641bjfx75k5000000gn/T//cc7XozLX.s 			page 9


 311 019a 88D8     		bhi	.L8
 312 019c DFE803F0 		tbb	[pc, r3]
 313              	.L15:
 314 01a0 02       		.byte	(.L18-.L15)/2
 315 01a1 06       		.byte	(.L17-.L15)/2
 316 01a2 0A       		.byte	(.L16-.L15)/2
 317 01a3 75       		.byte	(.L14-.L15)/2
 318              		.p2align 1
 319              	.L18:
  83:src/mode/main_mode.cpp ****             Offence();
 320              		.loc 1 83 13 view .LVU94
  83:src/mode/main_mode.cpp ****             Offence();
 321              		.loc 1 83 20 is_stmt 0 view .LVU95
 322 01a4 2046     		mov	r0, r4
 323 01a6 FFF7FEFF 		bl	_ZN4Mode7OffenceEv
 324              	.LVL21:
 325 01aa 80E7     		b	.L8
 326              	.L17:
  85:src/mode/main_mode.cpp ****             Defence();
 327              		.loc 1 85 13 is_stmt 1 view .LVU96
  85:src/mode/main_mode.cpp ****             Defence();
 328              		.loc 1 85 20 is_stmt 0 view .LVU97
 329 01ac 2046     		mov	r0, r4
 330 01ae FFF7FEFF 		bl	_ZN4Mode7DefenceEv
 331              	.LVL22:
 332 01b2 7CE7     		b	.L8
 333              	.L16:
  87:src/mode/main_mode.cpp ****             if (robot->info.Esp32.Wifi.stop) {
 334              		.loc 1 87 13 is_stmt 1 view .LVU98
  87:src/mode/main_mode.cpp ****             if (robot->info.Esp32.Wifi.stop) {
 335              		.loc 1 87 40 is_stmt 0 view .LVU99
 336 01b4 90F8A330 		ldrb	r3, [r0, #163]	@ zero_extendqisi2
  87:src/mode/main_mode.cpp ****             if (robot->info.Esp32.Wifi.stop) {
 337              		.loc 1 87 13 view .LVU100
 338 01b8 B3B9     		cbnz	r3, .L34
  91:src/mode/main_mode.cpp ****                   if (robot->info.Esp32.Wifi.face_axis == 0) {
 339              		.loc 1 91 19 is_stmt 1 view .LVU101
  91:src/mode/main_mode.cpp ****                   if (robot->info.Esp32.Wifi.face_axis == 0) {
 340              		.loc 1 91 46 is_stmt 0 view .LVU102
 341 01ba 90F8A030 		ldrb	r3, [r0, #160]	@ zero_extendqisi2
  91:src/mode/main_mode.cpp ****                   if (robot->info.Esp32.Wifi.face_axis == 0) {
 342              		.loc 1 91 19 view .LVU103
 343 01be FBB1     		cbz	r3, .L35
  93:src/mode/main_mode.cpp ****                   } else if (robot->info.Esp32.Wifi.face_axis == 1) {
 344              		.loc 1 93 26 is_stmt 1 view .LVU104
 345 01c0 012B     		cmp	r3, #1
 346 01c2 2CD0     		beq	.L36
  95:src/mode/main_mode.cpp ****                   } else if (robot->info.Esp32.Wifi.face_axis == 2) {
 347              		.loc 1 95 26 view .LVU105
 348 01c4 022B     		cmp	r3, #2
 349 01c6 39D0     		beq	.L37
 350              	.L21:
  98:src/mode/main_mode.cpp ****                   if (robot->info.Esp32.Wifi.kick) {
 351              		.loc 1 98 19 view .LVU106
  98:src/mode/main_mode.cpp ****                   if (robot->info.Esp32.Wifi.kick) {
 352              		.loc 1 98 23 is_stmt 0 view .LVU107
 353 01c8 6568     		ldr	r5, [r4, #4]
ARM GAS  /var/folders/5c/srt4fy4j1pd641bjfx75k5000000gn/T//cc7XozLX.s 			page 10


  98:src/mode/main_mode.cpp ****                   if (robot->info.Esp32.Wifi.kick) {
 354              		.loc 1 98 46 view .LVU108
 355 01ca 95F8A100 		ldrb	r0, [r5, #161]	@ zero_extendqisi2
  98:src/mode/main_mode.cpp ****                   if (robot->info.Esp32.Wifi.kick) {
 356              		.loc 1 98 19 view .LVU109
 357 01ce 0028     		cmp	r0, #0
 358 01d0 44D1     		bne	.L38
 359              	.L23:
 101:src/mode/main_mode.cpp ****                   if (robot->info.Esp32.Wifi.dribble) {
 360              		.loc 1 101 19 is_stmt 1 view .LVU110
 101:src/mode/main_mode.cpp ****                   if (robot->info.Esp32.Wifi.dribble) {
 361              		.loc 1 101 23 is_stmt 0 view .LVU111
 362 01d2 6068     		ldr	r0, [r4, #4]
 101:src/mode/main_mode.cpp ****                   if (robot->info.Esp32.Wifi.dribble) {
 363              		.loc 1 101 46 view .LVU112
 364 01d4 90F8A210 		ldrb	r1, [r0, #162]	@ zero_extendqisi2
 101:src/mode/main_mode.cpp ****                   if (robot->info.Esp32.Wifi.dribble) {
 365              		.loc 1 101 19 view .LVU113
 366 01d8 0029     		cmp	r1, #0
 367 01da 4FD0     		beq	.L24
 102:src/mode/main_mode.cpp ****                         robot->dribbler_front.Hold(robot->info.Esp32.Wifi.dribble);
 368              		.loc 1 102 25 is_stmt 1 view .LVU114
 102:src/mode/main_mode.cpp ****                         robot->dribbler_front.Hold(robot->info.Esp32.Wifi.dribble);
 369              		.loc 1 102 51 is_stmt 0 view .LVU115
 370 01dc 00F58650 		add	r0, r0, #4288
 371 01e0 1030     		adds	r0, r0, #16
 372 01e2 FFF7FEFF 		bl	_ZN13DribblerDrive4HoldEh
 373              	.LVL23:
 374 01e6 62E7     		b	.L8
 375              	.L34:
  88:src/mode/main_mode.cpp ****                   robot->motor.Free();
 376              		.loc 1 88 19 is_stmt 1 view .LVU116
  88:src/mode/main_mode.cpp ****                   robot->motor.Free();
 377              		.loc 1 88 36 is_stmt 0 view .LVU117
 378 01e8 00F5C870 		add	r0, r0, #400
 379 01ec FFF7FEFF 		bl	_ZN10MotorDrive4FreeEv
 380              	.LVL24:
  89:src/mode/main_mode.cpp ****                   robot->dribbler_front.Hold(0);
 381              		.loc 1 89 19 is_stmt 1 view .LVU118
 382 01f0 6068     		ldr	r0, [r4, #4]
  89:src/mode/main_mode.cpp ****                   robot->dribbler_front.Hold(0);
 383              		.loc 1 89 45 is_stmt 0 view .LVU119
 384 01f2 0021     		movs	r1, #0
 385 01f4 00F58650 		add	r0, r0, #4288
 386 01f8 1030     		adds	r0, r0, #16
 387 01fa FFF7FEFF 		bl	_ZN13DribblerDrive4HoldEh
 388              	.LVL25:
 389 01fe 56E7     		b	.L8
 390              	.L35:
  92:src/mode/main_mode.cpp ****                         robot->motor.Drive(robot->info.Esp32.Wifi.move_dir, robot->info.Esp32.Wifi.
 391              		.loc 1 92 25 is_stmt 1 view .LVU120
  92:src/mode/main_mode.cpp ****                         robot->motor.Drive(robot->info.Esp32.Wifi.move_dir, robot->info.Esp32.Wifi.
 392              		.loc 1 92 43 is_stmt 0 view .LVU121
 393 0200 90ED271A 		vldr.32	s2, [r0, #156]
 394 0204 B0F99820 		ldrsh	r2, [r0, #152]
 395 0208 D0ED250A 		vldr.32	s1, [r0, #148]
 396 020c 90ED240A 		vldr.32	s0, [r0, #144]
ARM GAS  /var/folders/5c/srt4fy4j1pd641bjfx75k5000000gn/T//cc7XozLX.s 			page 11


 397 0210 B0F98E10 		ldrsh	r1, [r0, #142]
 398 0214 00F5C870 		add	r0, r0, #400
 399 0218 FFF7FEFF 		bl	_ZN10MotorDrive5DriveEsffsfh
 400              	.LVL26:
 401 021c D4E7     		b	.L21
 402              	.L36:
  94:src/mode/main_mode.cpp ****                         robot->motor.Drive(robot->info.Esp32.Wifi.move_dir, robot->info.Esp32.Wifi.
 403              		.loc 1 94 25 is_stmt 1 view .LVU122
  94:src/mode/main_mode.cpp ****                         robot->motor.Drive(robot->info.Esp32.Wifi.move_dir, robot->info.Esp32.Wifi.
 404              		.loc 1 94 43 is_stmt 0 view .LVU123
 405 021e 90ED271A 		vldr.32	s2, [r0, #156]
 406 0222 B0F99820 		ldrsh	r2, [r0, #152]
 407 0226 D0ED250A 		vldr.32	s1, [r0, #148]
 408 022a 90ED240A 		vldr.32	s0, [r0, #144]
 409 022e B0F98E10 		ldrsh	r1, [r0, #142]
 410 0232 00F5C870 		add	r0, r0, #400
 411 0236 FFF7FEFF 		bl	_ZN10MotorDrive5DriveEsffsfh
 412              	.LVL27:
 413 023a C5E7     		b	.L21
 414              	.L37:
  96:src/mode/main_mode.cpp ****                         robot->motor.Drive(robot->info.Esp32.Wifi.move_dir, robot->info.Esp32.Wifi.
 415              		.loc 1 96 25 is_stmt 1 view .LVU124
  96:src/mode/main_mode.cpp ****                         robot->motor.Drive(robot->info.Esp32.Wifi.move_dir, robot->info.Esp32.Wifi.
 416              		.loc 1 96 43 is_stmt 0 view .LVU125
 417 023c 0323     		movs	r3, #3
 418 023e 90ED271A 		vldr.32	s2, [r0, #156]
 419 0242 B0F99820 		ldrsh	r2, [r0, #152]
 420 0246 D0ED250A 		vldr.32	s1, [r0, #148]
 421 024a 90ED240A 		vldr.32	s0, [r0, #144]
 422 024e B0F98E10 		ldrsh	r1, [r0, #142]
 423 0252 00F5C870 		add	r0, r0, #400
 424 0256 FFF7FEFF 		bl	_ZN10MotorDrive5DriveEsffsfh
 425              	.LVL28:
 426 025a B5E7     		b	.L21
 427              	.L38:
  99:src/mode/main_mode.cpp ****                         robot->kicker.Kick(robot->info.Esp32.Wifi.kick * 0.01);
 428              		.loc 1 99 25 is_stmt 1 view .LVU126
  99:src/mode/main_mode.cpp ****                         robot->kicker.Kick(robot->info.Esp32.Wifi.kick * 0.01);
 429              		.loc 1 99 72 is_stmt 0 view .LVU127
 430 025c FFF7FEFF 		bl	__aeabi_i2d
 431              	.LVL29:
 432 0260 19A3     		adr	r3, .L39
 433 0262 D3E90023 		ldrd	r2, [r3]
 434 0266 FFF7FEFF 		bl	__aeabi_dmul
 435              	.LVL30:
  99:src/mode/main_mode.cpp ****                         robot->kicker.Kick(robot->info.Esp32.Wifi.kick * 0.01);
 436              		.loc 1 99 43 view .LVU128
 437 026a FFF7FEFF 		bl	__aeabi_d2f
 438              	.LVL31:
 439 026e 00EE100A 		vmov	s0, r0
 440 0272 05F58850 		add	r0, r5, #4352
 441 0276 FFF7FEFF 		bl	_ZN6Kicker4KickEf
 442              	.LVL32:
 443 027a AAE7     		b	.L23
 444              	.L24:
 104:src/mode/main_mode.cpp ****                         robot->dribbler_front.Hold(0);
 445              		.loc 1 104 25 is_stmt 1 view .LVU129
ARM GAS  /var/folders/5c/srt4fy4j1pd641bjfx75k5000000gn/T//cc7XozLX.s 			page 12


 104:src/mode/main_mode.cpp ****                         robot->dribbler_front.Hold(0);
 446              		.loc 1 104 51 is_stmt 0 view .LVU130
 447 027c 0021     		movs	r1, #0
 448 027e 00F58650 		add	r0, r0, #4288
 449 0282 1030     		adds	r0, r0, #16
 450 0284 FFF7FEFF 		bl	_ZN13DribblerDrive4HoldEh
 451              	.LVL33:
 452 0288 11E7     		b	.L8
 453              	.L14:
 109:src/mode/main_mode.cpp ****             robot->motor.Drive(0, 0.5, 0.1);
 454              		.loc 1 109 13 is_stmt 1 view .LVU131
 109:src/mode/main_mode.cpp ****             robot->motor.Drive(0, 0.5, 0.1);
 455              		.loc 1 109 31 is_stmt 0 view .LVU132
 456 028a 0023     		movs	r3, #0
 457 028c 9FED121A 		vldr.32	s2, .L39+16
 458 0290 1A46     		mov	r2, r3
 459 0292 DFED120A 		vldr.32	s1, .L39+20
 460 0296 B6EE000A 		vmov.f32	s0, #5.0e-1
 461 029a 1946     		mov	r1, r3
 462 029c 00F5C870 		add	r0, r0, #400
 463 02a0 FFF7FEFF 		bl	_ZN10MotorDrive5DriveEsffsfh
 464              	.LVL34:
 110:src/mode/main_mode.cpp ****             robot->info.Ui.debug[0] = robot->info.motor_rad_s[1] * 100;
 465              		.loc 1 110 13 is_stmt 1 view .LVU133
 110:src/mode/main_mode.cpp ****             robot->info.Ui.debug[0] = robot->info.motor_rad_s[1] * 100;
 466              		.loc 1 110 39 is_stmt 0 view .LVU134
 467 02a4 6368     		ldr	r3, [r4, #4]
 110:src/mode/main_mode.cpp ****             robot->info.Ui.debug[0] = robot->info.motor_rad_s[1] * 100;
 468              		.loc 1 110 64 view .LVU135
 469 02a6 D3ED027A 		vldr.32	s15, [r3, #8]
 110:src/mode/main_mode.cpp ****             robot->info.Ui.debug[0] = robot->info.motor_rad_s[1] * 100;
 470              		.loc 1 110 66 view .LVU136
 471 02aa 9FED0D7A 		vldr.32	s14, .L39+24
 472 02ae 67EE877A 		vmul.f32	s15, s15, s14
 110:src/mode/main_mode.cpp ****             robot->info.Ui.debug[0] = robot->info.motor_rad_s[1] * 100;
 473              		.loc 1 110 37 view .LVU137
 474 02b2 FDEEE77A 		vcvt.s32.f32	s15, s15
 475 02b6 17EE902A 		vmov	r2, s15	@ int
 476 02ba A3F84620 		strh	r2, [r3, #70]	@ movhi
 111:src/mode/main_mode.cpp ****             robot->info.Ui.debug[1] = 0;
 477              		.loc 1 111 13 is_stmt 1 view .LVU138
 478 02be 6368     		ldr	r3, [r4, #4]
 111:src/mode/main_mode.cpp ****             robot->info.Ui.debug[1] = 0;
 479              		.loc 1 111 37 is_stmt 0 view .LVU139
 480 02c0 0022     		movs	r2, #0
 481 02c2 A3F84820 		strh	r2, [r3, #72]	@ movhi
 482 02c6 F2E6     		b	.L8
 483              	.L40:
 484              		.align	3
 485              	.L39:
 486 02c8 7B14AE47 		.word	1202590843
 487 02cc E17A843F 		.word	1065646817
 488 02d0 BD378635 		.word	897988541
 489 02d4 00000000 		.word	process_freq
 490 02d8 00000000 		.word	0
 491 02dc CDCCCC3D 		.word	1036831949
 492 02e0 0000C842 		.word	1120403456
ARM GAS  /var/folders/5c/srt4fy4j1pd641bjfx75k5000000gn/T//cc7XozLX.s 			page 13


 493              		.cfi_endproc
 494              	.LFE275:
 495              		.fnend
 497              		.global	encoder
 498              		.section	.bss.encoder,"aw",%nobits
 499              		.align	2
 502              	encoder:
 503 0000 00000000 		.space	16
 503      00000000 
 503      00000000 
 503      00000000 
 504              		.global	is_on_line
 505              		.section	.bss.is_on_line,"aw",%nobits
 506              		.align	2
 509              	is_on_line:
 510 0000 00000000 		.space	4
 511              		.global	line_dir
 512              		.section	.bss.line_dir,"aw",%nobits
 513              		.align	2
 516              	line_dir:
 517 0000 00000000 		.space	4
 518              		.global	process_freq
 519              		.section	.bss.process_freq,"aw",%nobits
 520              		.align	2
 523              	process_freq:
 524 0000 00000000 		.space	4
 525              		.global	voltage
 526              		.section	.bss.voltage,"aw",%nobits
 527              		.align	2
 530              	voltage:
 531 0000 00000000 		.space	4
 532              		.global	yaw
 533              		.section	.bss.yaw,"aw",%nobits
 534              		.align	2
 537              	yaw:
 538 0000 00000000 		.space	4
 539              		.text
 540              	.Letext0:
 541              		.file 2 "/opt/ST/STM32CubeCLT_1.16.0/GNU-tools-for-STM32/arm-none-eabi/include/machine/_default_ty
 542              		.file 3 "/opt/ST/STM32CubeCLT_1.16.0/GNU-tools-for-STM32/lib/gcc/arm-none-eabi/12.3.1/include/stdd
 543              		.file 4 "/opt/ST/STM32CubeCLT_1.16.0/GNU-tools-for-STM32/arm-none-eabi/include/sys/_types.h"
 544              		.file 5 "/opt/ST/STM32CubeCLT_1.16.0/GNU-tools-for-STM32/arm-none-eabi/include/sys/reent.h"
 545              		.file 6 "/opt/ST/STM32CubeCLT_1.16.0/GNU-tools-for-STM32/arm-none-eabi/include/sys/lock.h"
 546              		.file 7 "/opt/ST/STM32CubeCLT_1.16.0/GNU-tools-for-STM32/arm-none-eabi/include/stdio.h"
 547              		.file 8 "/opt/ST/STM32CubeCLT_1.16.0/GNU-tools-for-STM32/arm-none-eabi/include/sys/_stdint.h"
 548              		.file 9 "Drivers/CMSIS/Device/ST/STM32F4xx/Include/stm32f446xx.h"
 549              		.file 10 "Drivers/CMSIS/Device/ST/STM32F4xx/Include/stm32f4xx.h"
 550              		.file 11 "Drivers/STM32F4xx_HAL_Driver/Inc/stm32f4xx_hal_def.h"
 551              		.file 12 "Drivers/STM32F4xx_HAL_Driver/Inc/stm32f4xx_hal_dma.h"
 552              		.file 13 "Drivers/STM32F4xx_HAL_Driver/Inc/stm32f4xx_hal_tim.h"
 553              		.file 14 "Drivers/STM32F4xx_HAL_Driver/Inc/stm32f4xx_hal_uart.h"
 554              		.file 15 "Drivers/STM32F4xx_HAL_Driver/Inc/stm32f4xx_hal.h"
 555              		.file 16 "Lib/BufferedSerial/BufferedSerial.hpp"
 556              		.file 17 "Lib/DigitalInOut/DigitalInOut.hpp"
 557              		.file 18 "Lib/MovingAve/MovingAve.hpp"
 558              		.file 19 "/opt/ST/STM32CubeCLT_1.16.0/GNU-tools-for-STM32/arm-none-eabi/include/c++/12.3.1/cstdio"
 559              		.file 20 "/opt/ST/STM32CubeCLT_1.16.0/GNU-tools-for-STM32/arm-none-eabi/include/c++/12.3.1/arm-non
ARM GAS  /var/folders/5c/srt4fy4j1pd641bjfx75k5000000gn/T//cc7XozLX.s 			page 14


 560              		.file 21 "Lib/PWMSingle/PWMSingle.hpp"
 561              		.file 22 "Lib/Timer/Timer.hpp"
 562              		.file 23 "src/unit/dribbler_drive/dribbler_drive.hpp"
 563              		.file 24 "src/unit/kicker/kicker.hpp"
 564              		.file 25 "Lib/pid/pid.hpp"
 565              		.file 26 "src/unit/motor_drive/motor_drive.hpp"
 566              		.file 27 "src/unit/robot/robot.hpp"
 567              		.file 28 "src/mode/mode.hpp"
ARM GAS  /var/folders/5c/srt4fy4j1pd641bjfx75k5000000gn/T//cc7XozLX.s 			page 15


DEFINED SYMBOLS
                            *ABS*:00000000 main_mode.cpp
/var/folders/5c/srt4fy4j1pd641bjfx75k5000000gn/T//cc7XozLX.s:24     .text._ZN4Mode8MainModeEv:00000000 $t
/var/folders/5c/srt4fy4j1pd641bjfx75k5000000gn/T//cc7XozLX.s:30     .text._ZN4Mode8MainModeEv:00000000 _ZN4Mode8MainModeEv
/var/folders/5c/srt4fy4j1pd641bjfx75k5000000gn/T//cc7XozLX.s:314    .text._ZN4Mode8MainModeEv:000001a0 $d
/var/folders/5c/srt4fy4j1pd641bjfx75k5000000gn/T//cc7XozLX.s:318    .text._ZN4Mode8MainModeEv:000001a4 $t
/var/folders/5c/srt4fy4j1pd641bjfx75k5000000gn/T//cc7XozLX.s:486    .text._ZN4Mode8MainModeEv:000002c8 $d
/var/folders/5c/srt4fy4j1pd641bjfx75k5000000gn/T//cc7XozLX.s:523    .bss.process_freq:00000000 process_freq
.ARM.exidx.text._ZN4Mode8MainModeEv:00000000 $d
/var/folders/5c/srt4fy4j1pd641bjfx75k5000000gn/T//cc7XozLX.s:502    .bss.encoder:00000000 encoder
/var/folders/5c/srt4fy4j1pd641bjfx75k5000000gn/T//cc7XozLX.s:499    .bss.encoder:00000000 $d
/var/folders/5c/srt4fy4j1pd641bjfx75k5000000gn/T//cc7XozLX.s:509    .bss.is_on_line:00000000 is_on_line
/var/folders/5c/srt4fy4j1pd641bjfx75k5000000gn/T//cc7XozLX.s:506    .bss.is_on_line:00000000 $d
/var/folders/5c/srt4fy4j1pd641bjfx75k5000000gn/T//cc7XozLX.s:516    .bss.line_dir:00000000 line_dir
/var/folders/5c/srt4fy4j1pd641bjfx75k5000000gn/T//cc7XozLX.s:513    .bss.line_dir:00000000 $d
/var/folders/5c/srt4fy4j1pd641bjfx75k5000000gn/T//cc7XozLX.s:520    .bss.process_freq:00000000 $d
/var/folders/5c/srt4fy4j1pd641bjfx75k5000000gn/T//cc7XozLX.s:530    .bss.voltage:00000000 voltage
/var/folders/5c/srt4fy4j1pd641bjfx75k5000000gn/T//cc7XozLX.s:527    .bss.voltage:00000000 $d
/var/folders/5c/srt4fy4j1pd641bjfx75k5000000gn/T//cc7XozLX.s:537    .bss.yaw:00000000 yaw
/var/folders/5c/srt4fy4j1pd641bjfx75k5000000gn/T//cc7XozLX.s:534    .bss.yaw:00000000 $d

UNDEFINED SYMBOLS
__aeabi_i2d
__aeabi_dmul
__aeabi_d2f
_ZN5Timer5resetEv
_ZN5Robot7ImuUartEv
_ZN5Robot8LineUartEv
_ZN5Robot9Esp32UartEv
_ZN5Robot10GetSensorsEv
_ZN13DribblerDrive4HoldEh
_ZN5Timer7read_usEv
_ZN10MotorDrive4FreeEv
_ZN10MotorDrive5DriveEsffsfh
_ZN6Kicker4KickEf
_ZN4Mode7OffenceEv
_ZN4Mode7DefenceEv
__aeabi_unwind_cpp_pr0
