ARM GAS  /var/folders/5c/srt4fy4j1pd641bjfx75k5000000gn/T//cc5KpQOZ.s 			page 1


   1              		.cpu cortex-m4
   2              		.arch armv7e-m
   3              		.fpu fpv4-sp-d16
   4              		.eabi_attribute 27, 1
   5              		.eabi_attribute 28, 1
   6              		.eabi_attribute 20, 1
   7              		.eabi_attribute 21, 1
   8              		.eabi_attribute 23, 3
   9              		.eabi_attribute 24, 1
  10              		.eabi_attribute 25, 1
  11              		.eabi_attribute 26, 1
  12              		.eabi_attribute 30, 1
  13              		.eabi_attribute 34, 1
  14              		.eabi_attribute 18, 4
  15              		.file	"main_mode.cpp"
  16              		.text
  17              	.Ltext0:
  18              		.cfi_sections	.debug_frame
  19              		.file 1 "src/mode/main_mode.cpp"
  20              		.global	__aeabi_i2d
  21              		.global	__aeabi_dmul
  22              		.global	__aeabi_d2f
  23              		.section	.text._ZN4Mode8MainModeEv,"ax",%progbits
  24              		.align	1
  25              		.global	_ZN4Mode8MainModeEv
  26              		.syntax unified
  27              		.thumb
  28              		.thumb_func
  30              	_ZN4Mode8MainModeEv:
  31              		.fnstart
  32              	.LVL0:
  33              	.LFB275:
   1:src/mode/main_mode.cpp **** #include "mode.hpp"
   2:src/mode/main_mode.cpp **** 
   3:src/mode/main_mode.cpp **** // cortex-debug用グローバル変数
   4:src/mode/main_mode.cpp **** int yaw;
   5:src/mode/main_mode.cpp **** float voltage;
   6:src/mode/main_mode.cpp **** int process_freq;
   7:src/mode/main_mode.cpp **** int line_dir;
   8:src/mode/main_mode.cpp **** int is_on_line;
   9:src/mode/main_mode.cpp **** int encoder[4];
  10:src/mode/main_mode.cpp **** 
  11:src/mode/main_mode.cpp **** void Mode::MainMode() {
  34              		.loc 1 11 23 view -0
  35              		.cfi_startproc
  36              		@ args = 0, pretend = 0, frame = 0
  37              		@ frame_needed = 0, uses_anonymous_args = 0
  38              		.loc 1 11 23 is_stmt 0 view .LVU1
  39 0000 38B5     		push	{r3, r4, r5, lr}
  40              		.save {r3, r4, r5, lr}
  41              	.LCFI0:
  42              		.cfi_def_cfa_offset 16
  43              		.cfi_offset 3, -16
  44              		.cfi_offset 4, -12
  45              		.cfi_offset 5, -8
  46              		.cfi_offset 14, -4
  47 0002 0446     		mov	r4, r0
ARM GAS  /var/folders/5c/srt4fy4j1pd641bjfx75k5000000gn/T//cc5KpQOZ.s 			page 2


  12:src/mode/main_mode.cpp ****       process_timer.reset();
  48              		.loc 1 12 7 is_stmt 1 view .LVU2
  49              		.loc 1 12 26 is_stmt 0 view .LVU3
  50 0004 FFF7FEFF 		bl	_ZN5Timer5resetEv
  51              	.LVL1:
  13:src/mode/main_mode.cpp ****       // メイン処理
  14:src/mode/main_mode.cpp **** 
  15:src/mode/main_mode.cpp ****       // UART通信
  16:src/mode/main_mode.cpp ****       robot->ImuUart();
  52              		.loc 1 16 7 is_stmt 1 view .LVU4
  53              		.loc 1 16 21 is_stmt 0 view .LVU5
  54 0008 6068     		ldr	r0, [r4, #4]
  55 000a FFF7FEFF 		bl	_ZN5Robot7ImuUartEv
  56              	.LVL2:
  17:src/mode/main_mode.cpp ****       robot->LineUart();
  57              		.loc 1 17 7 is_stmt 1 view .LVU6
  58              		.loc 1 17 22 is_stmt 0 view .LVU7
  59 000e 6068     		ldr	r0, [r4, #4]
  60 0010 FFF7FEFF 		bl	_ZN5Robot8LineUartEv
  61              	.LVL3:
  18:src/mode/main_mode.cpp ****       // robot->UiUart();
  19:src/mode/main_mode.cpp ****       // robot->CamUart();
  20:src/mode/main_mode.cpp ****       robot->Esp32Uart();
  62              		.loc 1 20 7 is_stmt 1 view .LVU8
  63              		.loc 1 20 23 is_stmt 0 view .LVU9
  64 0014 6068     		ldr	r0, [r4, #4]
  65 0016 FFF7FEFF 		bl	_ZN5Robot9Esp32UartEv
  66              	.LVL4:
  21:src/mode/main_mode.cpp **** 
  22:src/mode/main_mode.cpp ****       // センサー情報取得
  23:src/mode/main_mode.cpp ****       robot->GetSensors();
  67              		.loc 1 23 7 is_stmt 1 view .LVU10
  68              		.loc 1 23 24 is_stmt 0 view .LVU11
  69 001a 6068     		ldr	r0, [r4, #4]
  70 001c FFF7FEFF 		bl	_ZN5Robot10GetSensorsEv
  71              	.LVL5:
  24:src/mode/main_mode.cpp **** 
  25:src/mode/main_mode.cpp ****       // 動いている時かデバッグモードの時ラインをつける
  26:src/mode/main_mode.cpp ****       robot->info.Line.on_led = false;
  72              		.loc 1 26 7 is_stmt 1 view .LVU12
  73 0020 6368     		ldr	r3, [r4, #4]
  74              		.loc 1 26 31 is_stmt 0 view .LVU13
  75 0022 0022     		movs	r2, #0
  76 0024 83F82A20 		strb	r2, [r3, #42]
  27:src/mode/main_mode.cpp ****       if (robot->info.mode != 0 || robot->info.Ui.item == 1) robot->info.Line.on_led = true;
  77              		.loc 1 27 7 is_stmt 1 view .LVU14
  78              		.loc 1 27 11 is_stmt 0 view .LVU15
  79 0028 6368     		ldr	r3, [r4, #4]
  80              		.loc 1 27 23 view .LVU16
  81 002a 1A7D     		ldrb	r2, [r3, #20]	@ zero_extendqisi2
  82              		.loc 1 27 7 view .LVU17
  83 002c 1AB9     		cbnz	r2, .L2
  84              		.loc 1 27 51 discriminator 2 view .LVU18
  85 002e 93F94320 		ldrsb	r2, [r3, #67]
  86              		.loc 1 27 33 discriminator 2 view .LVU19
  87 0032 012A     		cmp	r2, #1
  88 0034 02D1     		bne	.L3
ARM GAS  /var/folders/5c/srt4fy4j1pd641bjfx75k5000000gn/T//cc5KpQOZ.s 			page 3


  89              	.L2:
  90              		.loc 1 27 62 is_stmt 1 discriminator 3 view .LVU20
  91              		.loc 1 27 86 is_stmt 0 discriminator 3 view .LVU21
  92 0036 0122     		movs	r2, #1
  93 0038 83F82A20 		strb	r2, [r3, #42]
  94              	.L3:
  28:src/mode/main_mode.cpp **** 
  29:src/mode/main_mode.cpp ****       // 　yawのリセット
  30:src/mode/main_mode.cpp ****       if (robot->info.Ui.reset_yaw == false) robot->info.Ui.success_reset_yaw = false;
  95              		.loc 1 30 7 is_stmt 1 view .LVU22
  96              		.loc 1 30 11 is_stmt 0 view .LVU23
  97 003c 6368     		ldr	r3, [r4, #4]
  98              		.loc 1 30 26 view .LVU24
  99 003e 93F83E20 		ldrb	r2, [r3, #62]	@ zero_extendqisi2
 100              		.loc 1 30 7 view .LVU25
 101 0042 0AB9     		cbnz	r2, .L4
 102              		.loc 1 30 46 is_stmt 1 discriminator 1 view .LVU26
 103              		.loc 1 30 79 is_stmt 0 discriminator 1 view .LVU27
 104 0044 83F83F20 		strb	r2, [r3, #63]
 105              	.L4:
  31:src/mode/main_mode.cpp ****       if (robot->info.Ui.reset_yaw == true && robot->info.Ui.success_reset_yaw == false) {
 106              		.loc 1 31 7 is_stmt 1 view .LVU28
 107              		.loc 1 31 11 is_stmt 0 view .LVU29
 108 0048 6368     		ldr	r3, [r4, #4]
 109              		.loc 1 31 26 view .LVU30
 110 004a 93F83E20 		ldrb	r2, [r3, #62]	@ zero_extendqisi2
 111              		.loc 1 31 7 view .LVU31
 112 004e 52B1     		cbz	r2, .L5
 113              		.loc 1 31 62 discriminator 1 view .LVU32
 114 0050 93F83F20 		ldrb	r2, [r3, #63]	@ zero_extendqisi2
 115              		.loc 1 31 44 discriminator 1 view .LVU33
 116 0054 3AB9     		cbnz	r2, .L5
  32:src/mode/main_mode.cpp ****             robot->info.Imu.yaw_correction_val = robot->info.Imu.yaw + robot->info.Imu.yaw_correcti
 117              		.loc 1 32 13 is_stmt 1 view .LVU34
 118              		.loc 1 32 66 is_stmt 0 view .LVU35
 119 0056 DA8E     		ldrh	r2, [r3, #54]
 120              		.loc 1 32 88 view .LVU36
 121 0058 998F     		ldrh	r1, [r3, #60]
 122              		.loc 1 32 70 view .LVU37
 123 005a 0A44     		add	r2, r2, r1
 124              		.loc 1 32 48 view .LVU38
 125 005c 9A87     		strh	r2, [r3, #60]	@ movhi
  33:src/mode/main_mode.cpp ****             robot->info.Ui.success_reset_yaw = true;
 126              		.loc 1 33 13 is_stmt 1 view .LVU39
 127 005e 6368     		ldr	r3, [r4, #4]
 128              		.loc 1 33 46 is_stmt 0 view .LVU40
 129 0060 0122     		movs	r2, #1
 130 0062 83F83F20 		strb	r2, [r3, #63]
 131              	.L5:
  34:src/mode/main_mode.cpp ****       }
  35:src/mode/main_mode.cpp **** 
  36:src/mode/main_mode.cpp ****       robot->info.Esp32.do_rotate = false;
 132              		.loc 1 36 7 is_stmt 1 view .LVU41
 133 0066 6368     		ldr	r3, [r4, #4]
 134              		.loc 1 36 35 is_stmt 0 view .LVU42
 135 0068 0022     		movs	r2, #0
 136 006a 83F88A20 		strb	r2, [r3, #138]
ARM GAS  /var/folders/5c/srt4fy4j1pd641bjfx75k5000000gn/T//cc5KpQOZ.s 			page 4


  37:src/mode/main_mode.cpp ****       // if (robot->info.Ui.item == 0 && robot->info.Ui.sub_item != 0) robot->info.Esp32.do_rotate 
  38:src/mode/main_mode.cpp **** 
  39:src/mode/main_mode.cpp ****       // モード切り替え
  40:src/mode/main_mode.cpp ****       if (robot->info.mode == 0) {
 137              		.loc 1 40 7 is_stmt 1 view .LVU43
 138              		.loc 1 40 11 is_stmt 0 view .LVU44
 139 006e 6068     		ldr	r0, [r4, #4]
 140              		.loc 1 40 23 view .LVU45
 141 0070 037D     		ldrb	r3, [r0, #20]	@ zero_extendqisi2
 142              		.loc 1 40 7 view .LVU46
 143 0072 33B1     		cbz	r3, .L23
  41:src/mode/main_mode.cpp ****             // robot->motor.Free();
  42:src/mode/main_mode.cpp **** 
  43:src/mode/main_mode.cpp ****             // if (robot->info.Ui.dribbler_sig == 0) {
  44:src/mode/main_mode.cpp ****             //       robot->dribbler_front.Hold(0);
  45:src/mode/main_mode.cpp ****             //       robot->dribbler_back.Hold(0);
  46:src/mode/main_mode.cpp ****             // } else if (robot->info.Ui.dribbler_sig == 1) {
  47:src/mode/main_mode.cpp ****             //       if (robot->info.Catch.is_front) {
  48:src/mode/main_mode.cpp ****             //             robot->dribbler_front.Hold(HOLD_MAX_POWER);
  49:src/mode/main_mode.cpp ****             //       } else {
  50:src/mode/main_mode.cpp ****             //             robot->dribbler_front.Hold(HOLD_WAIT_POWER);
  51:src/mode/main_mode.cpp ****             //       }
  52:src/mode/main_mode.cpp ****             // } else if (robot->info.Ui.dribbler_sig == 2) {
  53:src/mode/main_mode.cpp ****             //       robot->kicker.Kick();
  54:src/mode/main_mode.cpp ****             // } else if (robot->info.Ui.dribbler_sig == 3) {
  55:src/mode/main_mode.cpp ****             //       if (robot->info.Catch.is_back) {
  56:src/mode/main_mode.cpp ****             //             robot->dribbler_back.Hold(HOLD_MAX_POWER);
  57:src/mode/main_mode.cpp ****             //       } else {
  58:src/mode/main_mode.cpp ****             //             robot->dribbler_back.Hold(HOLD_WAIT_POWER);
  59:src/mode/main_mode.cpp ****             //       }
  60:src/mode/main_mode.cpp ****             // }
  61:src/mode/main_mode.cpp **** 
  62:src/mode/main_mode.cpp ****             robot->motor.Drive(0, 0.2);
  63:src/mode/main_mode.cpp ****             // if (robot->info.Esp32.Wifi.stop) {
  64:src/mode/main_mode.cpp ****             //       robot->motor.Free();
  65:src/mode/main_mode.cpp ****             //       robot->dribbler_front.Hold(0);
  66:src/mode/main_mode.cpp ****             // } else {
  67:src/mode/main_mode.cpp ****             //       if (robot->info.Esp32.Wifi.face_axis == 0) {
  68:src/mode/main_mode.cpp ****             //             robot->motor.Drive(robot->info.Esp32.Wifi.move_dir, robot->info.Esp32.Wi
  69:src/mode/main_mode.cpp ****             //       } else if (robot->info.Esp32.Wifi.face_axis == 1) {
  70:src/mode/main_mode.cpp ****             //             robot->motor.Drive(robot->info.Esp32.Wifi.move_dir, robot->info.Esp32.Wi
  71:src/mode/main_mode.cpp ****             //       } else if (robot->info.Esp32.Wifi.face_axis == 2) {
  72:src/mode/main_mode.cpp ****             //             robot->motor.Drive(robot->info.Esp32.Wifi.move_dir, robot->info.Esp32.Wi
  73:src/mode/main_mode.cpp ****             //       }
  74:src/mode/main_mode.cpp ****             //       if (robot->info.Esp32.Wifi.kick) {
  75:src/mode/main_mode.cpp ****             //             robot->kicker.Kick(robot->info.Esp32.Wifi.kick * 0.01);
  76:src/mode/main_mode.cpp ****             //       }
  77:src/mode/main_mode.cpp ****             //       if (robot->info.Esp32.Wifi.dribble) {
  78:src/mode/main_mode.cpp ****             //             robot->dribbler_front.Hold(robot->info.Esp32.Wifi.dribble);
  79:src/mode/main_mode.cpp ****             //       } else {
  80:src/mode/main_mode.cpp ****             //             robot->dribbler_front.Hold(0);
  81:src/mode/main_mode.cpp ****             //       }
  82:src/mode/main_mode.cpp ****             // }
  83:src/mode/main_mode.cpp ****       } else if (robot->info.mode == 1) {
 144              		.loc 1 83 14 is_stmt 1 view .LVU47
 145 0074 013B     		subs	r3, r3, #1
 146 0076 032B     		cmp	r3, #3
ARM GAS  /var/folders/5c/srt4fy4j1pd641bjfx75k5000000gn/T//cc5KpQOZ.s 			page 5


 147 0078 0FD8     		bhi	.L7
 148 007a DFE803F0 		tbb	[pc, r3]
 149              	.L9:
 150 007e 31       		.byte	(.L12-.L9)/2
 151 007f 35       		.byte	(.L11-.L9)/2
 152 0080 39       		.byte	(.L10-.L9)/2
 153 0081 A4       		.byte	(.L8-.L9)/2
 154              		.p2align 1
 155              	.L23:
  62:src/mode/main_mode.cpp ****             // if (robot->info.Esp32.Wifi.stop) {
 156              		.loc 1 62 13 view .LVU48
  62:src/mode/main_mode.cpp ****             // if (robot->info.Esp32.Wifi.stop) {
 157              		.loc 1 62 31 is_stmt 0 view .LVU49
 158 0082 DFED630A 		vldr.32	s1, .L29+8
 159 0086 1346     		mov	r3, r2
 160 0088 B0EE601A 		vmov.f32	s2, s1
 161 008c 9FED610A 		vldr.32	s0, .L29+12
 162 0090 1146     		mov	r1, r2
 163 0092 00F5C870 		add	r0, r0, #400
 164 0096 FFF7FEFF 		bl	_ZN10MotorDrive5DriveEsffsfh
 165              	.LVL6:
 166              	.L7:
  84:src/mode/main_mode.cpp ****             Offence();
  85:src/mode/main_mode.cpp ****       } else if (robot->info.mode == 2) {
  86:src/mode/main_mode.cpp ****             Defence();
  87:src/mode/main_mode.cpp ****       } else if (robot->info.mode == 3) {  // debug mode
  88:src/mode/main_mode.cpp ****             if (robot->info.Esp32.Wifi.stop) {
  89:src/mode/main_mode.cpp ****                   robot->motor.Free();
  90:src/mode/main_mode.cpp ****                   robot->dribbler_front.Hold(0);
  91:src/mode/main_mode.cpp ****             } else {
  92:src/mode/main_mode.cpp ****                   if (robot->info.Esp32.Wifi.face_axis == 0) {
  93:src/mode/main_mode.cpp ****                         robot->motor.Drive(robot->info.Esp32.Wifi.move_dir, robot->info.Esp32.Wifi.
  94:src/mode/main_mode.cpp ****                   } else if (robot->info.Esp32.Wifi.face_axis == 1) {
  95:src/mode/main_mode.cpp ****                         robot->motor.Drive(robot->info.Esp32.Wifi.move_dir, robot->info.Esp32.Wifi.
  96:src/mode/main_mode.cpp ****                   } else if (robot->info.Esp32.Wifi.face_axis == 2) {
  97:src/mode/main_mode.cpp ****                         robot->motor.Drive(robot->info.Esp32.Wifi.move_dir, robot->info.Esp32.Wifi.
  98:src/mode/main_mode.cpp ****                   }
  99:src/mode/main_mode.cpp ****                   if (robot->info.Esp32.Wifi.kick) {
 100:src/mode/main_mode.cpp ****                         robot->kicker.Kick(robot->info.Esp32.Wifi.kick * 0.01);
 101:src/mode/main_mode.cpp ****                   }
 102:src/mode/main_mode.cpp ****                   if (robot->info.Esp32.Wifi.dribble) {
 103:src/mode/main_mode.cpp ****                         robot->dribbler_front.Hold(robot->info.Esp32.Wifi.dribble);
 104:src/mode/main_mode.cpp ****                   } else {
 105:src/mode/main_mode.cpp ****                         robot->dribbler_front.Hold(0);
 106:src/mode/main_mode.cpp ****                   }
 107:src/mode/main_mode.cpp ****             }
 108:src/mode/main_mode.cpp **** 
 109:src/mode/main_mode.cpp ****       } else if (robot->info.mode == 4) {  // debug mode
 110:src/mode/main_mode.cpp ****             robot->motor.Drive(0, 0.5, 0.1);
 111:src/mode/main_mode.cpp ****             robot->info.Ui.debug[0] = robot->info.motor_rad_s[1] * 100;
 112:src/mode/main_mode.cpp ****             robot->info.Ui.debug[1] = 0;
 113:src/mode/main_mode.cpp ****       }
 114:src/mode/main_mode.cpp **** 
 115:src/mode/main_mode.cpp ****       // cortex-debug
 116:src/mode/main_mode.cpp ****       // yaw = robot->info.Imu.yaw;
 117:src/mode/main_mode.cpp ****       // voltage = robot->info.voltage;
 118:src/mode/main_mode.cpp ****       // line_dir = robot->info.Line.dir;
ARM GAS  /var/folders/5c/srt4fy4j1pd641bjfx75k5000000gn/T//cc5KpQOZ.s 			page 6


 119:src/mode/main_mode.cpp ****       // is_on_line = robot->info.Line.is_on_line;
 120:src/mode/main_mode.cpp **** 
 121:src/mode/main_mode.cpp ****       // encoder[0] = robot->info.motor_rad_s[0];
 122:src/mode/main_mode.cpp ****       // encoder[1] = robot->info.motor_rad_s[1];
 123:src/mode/main_mode.cpp ****       // encoder[2] = robot->info.motor_rad_s[2];
 124:src/mode/main_mode.cpp ****       // encoder[3] = robot->info.motor_rad_s[3];
 125:src/mode/main_mode.cpp **** 
 126:src/mode/main_mode.cpp ****       //  定周期処理
 127:src/mode/main_mode.cpp ****       process_time_ = process_timer.read_us();
 167              		.loc 1 127 7 is_stmt 1 view .LVU50
 168              		.loc 1 127 44 is_stmt 0 view .LVU51
 169 009a 2046     		mov	r0, r4
 170 009c FFF7FEFF 		bl	_ZN5Timer7read_usEv
 171              	.LVL7:
 172              		.loc 1 127 21 view .LVU52
 173 00a0 80B2     		uxth	r0, r0
 174 00a2 2081     		strh	r0, [r4, #8]	@ movhi
 128:src/mode/main_mode.cpp ****       if (process_time_ < PERIOD_US) {
 175              		.loc 1 128 7 is_stmt 1 view .LVU53
 176 00a4 B0F5FA7F 		cmp	r0, #500
 177 00a8 05D2     		bcs	.L19
 178              	.L20:
 129:src/mode/main_mode.cpp ****             while (process_timer.read_us() < PERIOD_US);  // 余剰時間を待つ
 179              		.loc 1 129 44 discriminator 1 view .LVU54
 180              		.loc 1 129 41 is_stmt 0 discriminator 1 view .LVU55
 181 00aa 2046     		mov	r0, r4
 182 00ac FFF7FEFF 		bl	_ZN5Timer7read_usEv
 183              	.LVL8:
 184              		.loc 1 129 44 discriminator 1 view .LVU56
 185 00b0 B0F5FA7F 		cmp	r0, #500
 186 00b4 F9D3     		bcc	.L20
 187              	.L19:
 130:src/mode/main_mode.cpp ****       }
 131:src/mode/main_mode.cpp ****       process_freq = 1.0f / (process_timer.read_us() * 0.000001f);
 188              		.loc 1 131 7 is_stmt 1 view .LVU57
 189              		.loc 1 131 51 is_stmt 0 view .LVU58
 190 00b6 2046     		mov	r0, r4
 191 00b8 FFF7FEFF 		bl	_ZN5Timer7read_usEv
 192              	.LVL9:
 193 00bc 07EE900A 		vmov	s15, r0	@ int
 194              		.loc 1 131 54 view .LVU59
 195 00c0 F8EE677A 		vcvt.f32.u32	s15, s15
 196 00c4 9FED547A 		vldr.32	s14, .L29+16
 197 00c8 67EE877A 		vmul.f32	s15, s15, s14
 198              		.loc 1 131 27 view .LVU60
 199 00cc F7EE006A 		vmov.f32	s13, #1.0e+0
 200 00d0 86EEA77A 		vdiv.f32	s14, s13, s15
 201              		.loc 1 131 20 view .LVU61
 202 00d4 BDEEC77A 		vcvt.s32.f32	s14, s14
 203 00d8 504B     		ldr	r3, .L29+20
 204 00da 83ED007A 		vstr.32	s14, [r3]	@ int
 132:src/mode/main_mode.cpp **** }...
 205              		.loc 1 132 1 view .LVU62
 206 00de 38BD     		pop	{r3, r4, r5, pc}
 207              	.LVL10:
 208              	.L12:
  84:src/mode/main_mode.cpp ****             Offence();
ARM GAS  /var/folders/5c/srt4fy4j1pd641bjfx75k5000000gn/T//cc5KpQOZ.s 			page 7


 209              		.loc 1 84 13 is_stmt 1 view .LVU63
  84:src/mode/main_mode.cpp ****             Offence();
 210              		.loc 1 84 20 is_stmt 0 view .LVU64
 211 00e0 2046     		mov	r0, r4
 212 00e2 FFF7FEFF 		bl	_ZN4Mode7OffenceEv
 213              	.LVL11:
 214 00e6 D8E7     		b	.L7
 215              	.L11:
  86:src/mode/main_mode.cpp ****             Defence();
 216              		.loc 1 86 13 is_stmt 1 view .LVU65
  86:src/mode/main_mode.cpp ****             Defence();
 217              		.loc 1 86 20 is_stmt 0 view .LVU66
 218 00e8 2046     		mov	r0, r4
 219 00ea FFF7FEFF 		bl	_ZN4Mode7DefenceEv
 220              	.LVL12:
 221 00ee D4E7     		b	.L7
 222              	.L10:
  88:src/mode/main_mode.cpp ****             if (robot->info.Esp32.Wifi.stop) {
 223              		.loc 1 88 13 is_stmt 1 view .LVU67
  88:src/mode/main_mode.cpp ****             if (robot->info.Esp32.Wifi.stop) {
 224              		.loc 1 88 40 is_stmt 0 view .LVU68
 225 00f0 90F8A330 		ldrb	r3, [r0, #163]	@ zero_extendqisi2
  88:src/mode/main_mode.cpp ****             if (robot->info.Esp32.Wifi.stop) {
 226              		.loc 1 88 13 view .LVU69
 227 00f4 B3B9     		cbnz	r3, .L24
  92:src/mode/main_mode.cpp ****                   if (robot->info.Esp32.Wifi.face_axis == 0) {
 228              		.loc 1 92 19 is_stmt 1 view .LVU70
  92:src/mode/main_mode.cpp ****                   if (robot->info.Esp32.Wifi.face_axis == 0) {
 229              		.loc 1 92 46 is_stmt 0 view .LVU71
 230 00f6 90F8A030 		ldrb	r3, [r0, #160]	@ zero_extendqisi2
  92:src/mode/main_mode.cpp ****                   if (robot->info.Esp32.Wifi.face_axis == 0) {
 231              		.loc 1 92 19 view .LVU72
 232 00fa FBB1     		cbz	r3, .L25
  94:src/mode/main_mode.cpp ****                   } else if (robot->info.Esp32.Wifi.face_axis == 1) {
 233              		.loc 1 94 26 is_stmt 1 view .LVU73
 234 00fc 012B     		cmp	r3, #1
 235 00fe 2CD0     		beq	.L26
  96:src/mode/main_mode.cpp ****                   } else if (robot->info.Esp32.Wifi.face_axis == 2) {
 236              		.loc 1 96 26 view .LVU74
 237 0100 022B     		cmp	r3, #2
 238 0102 39D0     		beq	.L27
 239              	.L15:
  99:src/mode/main_mode.cpp ****                   if (robot->info.Esp32.Wifi.kick) {
 240              		.loc 1 99 19 view .LVU75
  99:src/mode/main_mode.cpp ****                   if (robot->info.Esp32.Wifi.kick) {
 241              		.loc 1 99 23 is_stmt 0 view .LVU76
 242 0104 6568     		ldr	r5, [r4, #4]
  99:src/mode/main_mode.cpp ****                   if (robot->info.Esp32.Wifi.kick) {
 243              		.loc 1 99 46 view .LVU77
 244 0106 95F8A100 		ldrb	r0, [r5, #161]	@ zero_extendqisi2
  99:src/mode/main_mode.cpp ****                   if (robot->info.Esp32.Wifi.kick) {
 245              		.loc 1 99 19 view .LVU78
 246 010a 0028     		cmp	r0, #0
 247 010c 44D1     		bne	.L28
 248              	.L17:
 102:src/mode/main_mode.cpp ****                   if (robot->info.Esp32.Wifi.dribble) {
 249              		.loc 1 102 19 is_stmt 1 view .LVU79
ARM GAS  /var/folders/5c/srt4fy4j1pd641bjfx75k5000000gn/T//cc5KpQOZ.s 			page 8


 102:src/mode/main_mode.cpp ****                   if (robot->info.Esp32.Wifi.dribble) {
 250              		.loc 1 102 23 is_stmt 0 view .LVU80
 251 010e 6068     		ldr	r0, [r4, #4]
 102:src/mode/main_mode.cpp ****                   if (robot->info.Esp32.Wifi.dribble) {
 252              		.loc 1 102 46 view .LVU81
 253 0110 90F8A210 		ldrb	r1, [r0, #162]	@ zero_extendqisi2
 102:src/mode/main_mode.cpp ****                   if (robot->info.Esp32.Wifi.dribble) {
 254              		.loc 1 102 19 view .LVU82
 255 0114 0029     		cmp	r1, #0
 256 0116 4FD0     		beq	.L18
 103:src/mode/main_mode.cpp ****                         robot->dribbler_front.Hold(robot->info.Esp32.Wifi.dribble);
 257              		.loc 1 103 25 is_stmt 1 view .LVU83
 103:src/mode/main_mode.cpp ****                         robot->dribbler_front.Hold(robot->info.Esp32.Wifi.dribble);
 258              		.loc 1 103 51 is_stmt 0 view .LVU84
 259 0118 00F58650 		add	r0, r0, #4288
 260 011c 1030     		adds	r0, r0, #16
 261 011e FFF7FEFF 		bl	_ZN13DribblerDrive4HoldEh
 262              	.LVL13:
 263 0122 BAE7     		b	.L7
 264              	.L24:
  89:src/mode/main_mode.cpp ****                   robot->motor.Free();
 265              		.loc 1 89 19 is_stmt 1 view .LVU85
  89:src/mode/main_mode.cpp ****                   robot->motor.Free();
 266              		.loc 1 89 36 is_stmt 0 view .LVU86
 267 0124 00F5C870 		add	r0, r0, #400
 268 0128 FFF7FEFF 		bl	_ZN10MotorDrive4FreeEv
 269              	.LVL14:
  90:src/mode/main_mode.cpp ****                   robot->dribbler_front.Hold(0);
 270              		.loc 1 90 19 is_stmt 1 view .LVU87
 271 012c 6068     		ldr	r0, [r4, #4]
  90:src/mode/main_mode.cpp ****                   robot->dribbler_front.Hold(0);
 272              		.loc 1 90 45 is_stmt 0 view .LVU88
 273 012e 0021     		movs	r1, #0
 274 0130 00F58650 		add	r0, r0, #4288
 275 0134 1030     		adds	r0, r0, #16
 276 0136 FFF7FEFF 		bl	_ZN13DribblerDrive4HoldEh
 277              	.LVL15:
 278 013a AEE7     		b	.L7
 279              	.L25:
  93:src/mode/main_mode.cpp ****                         robot->motor.Drive(robot->info.Esp32.Wifi.move_dir, robot->info.Esp32.Wifi.
 280              		.loc 1 93 25 is_stmt 1 view .LVU89
  93:src/mode/main_mode.cpp ****                         robot->motor.Drive(robot->info.Esp32.Wifi.move_dir, robot->info.Esp32.Wifi.
 281              		.loc 1 93 43 is_stmt 0 view .LVU90
 282 013c 90ED271A 		vldr.32	s2, [r0, #156]
 283 0140 B0F99820 		ldrsh	r2, [r0, #152]
 284 0144 D0ED250A 		vldr.32	s1, [r0, #148]
 285 0148 90ED240A 		vldr.32	s0, [r0, #144]
 286 014c B0F98E10 		ldrsh	r1, [r0, #142]
 287 0150 00F5C870 		add	r0, r0, #400
 288 0154 FFF7FEFF 		bl	_ZN10MotorDrive5DriveEsffsfh
 289              	.LVL16:
 290 0158 D4E7     		b	.L15
 291              	.L26:
  95:src/mode/main_mode.cpp ****                         robot->motor.Drive(robot->info.Esp32.Wifi.move_dir, robot->info.Esp32.Wifi.
 292              		.loc 1 95 25 is_stmt 1 view .LVU91
  95:src/mode/main_mode.cpp ****                         robot->motor.Drive(robot->info.Esp32.Wifi.move_dir, robot->info.Esp32.Wifi.
 293              		.loc 1 95 43 is_stmt 0 view .LVU92
ARM GAS  /var/folders/5c/srt4fy4j1pd641bjfx75k5000000gn/T//cc5KpQOZ.s 			page 9


 294 015a 90ED271A 		vldr.32	s2, [r0, #156]
 295 015e B0F99820 		ldrsh	r2, [r0, #152]
 296 0162 D0ED250A 		vldr.32	s1, [r0, #148]
 297 0166 90ED240A 		vldr.32	s0, [r0, #144]
 298 016a B0F98E10 		ldrsh	r1, [r0, #142]
 299 016e 00F5C870 		add	r0, r0, #400
 300 0172 FFF7FEFF 		bl	_ZN10MotorDrive5DriveEsffsfh
 301              	.LVL17:
 302 0176 C5E7     		b	.L15
 303              	.L27:
  97:src/mode/main_mode.cpp ****                         robot->motor.Drive(robot->info.Esp32.Wifi.move_dir, robot->info.Esp32.Wifi.
 304              		.loc 1 97 25 is_stmt 1 view .LVU93
  97:src/mode/main_mode.cpp ****                         robot->motor.Drive(robot->info.Esp32.Wifi.move_dir, robot->info.Esp32.Wifi.
 305              		.loc 1 97 43 is_stmt 0 view .LVU94
 306 0178 0323     		movs	r3, #3
 307 017a 90ED271A 		vldr.32	s2, [r0, #156]
 308 017e B0F99820 		ldrsh	r2, [r0, #152]
 309 0182 D0ED250A 		vldr.32	s1, [r0, #148]
 310 0186 90ED240A 		vldr.32	s0, [r0, #144]
 311 018a B0F98E10 		ldrsh	r1, [r0, #142]
 312 018e 00F5C870 		add	r0, r0, #400
 313 0192 FFF7FEFF 		bl	_ZN10MotorDrive5DriveEsffsfh
 314              	.LVL18:
 315 0196 B5E7     		b	.L15
 316              	.L28:
 100:src/mode/main_mode.cpp ****                         robot->kicker.Kick(robot->info.Esp32.Wifi.kick * 0.01);
 317              		.loc 1 100 25 is_stmt 1 view .LVU95
 100:src/mode/main_mode.cpp ****                         robot->kicker.Kick(robot->info.Esp32.Wifi.kick * 0.01);
 318              		.loc 1 100 72 is_stmt 0 view .LVU96
 319 0198 FFF7FEFF 		bl	__aeabi_i2d
 320              	.LVL19:
 321 019c 1AA3     		adr	r3, .L29
 322 019e D3E90023 		ldrd	r2, [r3]
 323 01a2 FFF7FEFF 		bl	__aeabi_dmul
 324              	.LVL20:
 100:src/mode/main_mode.cpp ****                         robot->kicker.Kick(robot->info.Esp32.Wifi.kick * 0.01);
 325              		.loc 1 100 43 view .LVU97
 326 01a6 FFF7FEFF 		bl	__aeabi_d2f
 327              	.LVL21:
 328 01aa 00EE100A 		vmov	s0, r0
 329 01ae 05F58850 		add	r0, r5, #4352
 330 01b2 FFF7FEFF 		bl	_ZN6Kicker4KickEf
 331              	.LVL22:
 332 01b6 AAE7     		b	.L17
 333              	.L18:
 105:src/mode/main_mode.cpp ****                         robot->dribbler_front.Hold(0);
 334              		.loc 1 105 25 is_stmt 1 view .LVU98
 105:src/mode/main_mode.cpp ****                         robot->dribbler_front.Hold(0);
 335              		.loc 1 105 51 is_stmt 0 view .LVU99
 336 01b8 0021     		movs	r1, #0
 337 01ba 00F58650 		add	r0, r0, #4288
 338 01be 1030     		adds	r0, r0, #16
 339 01c0 FFF7FEFF 		bl	_ZN13DribblerDrive4HoldEh
 340              	.LVL23:
 341 01c4 69E7     		b	.L7
 342              	.L8:
 110:src/mode/main_mode.cpp ****             robot->motor.Drive(0, 0.5, 0.1);
ARM GAS  /var/folders/5c/srt4fy4j1pd641bjfx75k5000000gn/T//cc5KpQOZ.s 			page 10


 343              		.loc 1 110 13 is_stmt 1 view .LVU100
 110:src/mode/main_mode.cpp ****             robot->motor.Drive(0, 0.5, 0.1);
 344              		.loc 1 110 31 is_stmt 0 view .LVU101
 345 01c6 0023     		movs	r3, #0
 346 01c8 9FED111A 		vldr.32	s2, .L29+8
 347 01cc 1A46     		mov	r2, r3
 348 01ce DFED140A 		vldr.32	s1, .L29+24
 349 01d2 B6EE000A 		vmov.f32	s0, #5.0e-1
 350 01d6 1946     		mov	r1, r3
 351 01d8 00F5C870 		add	r0, r0, #400
 352 01dc FFF7FEFF 		bl	_ZN10MotorDrive5DriveEsffsfh
 353              	.LVL24:
 111:src/mode/main_mode.cpp ****             robot->info.Ui.debug[0] = robot->info.motor_rad_s[1] * 100;
 354              		.loc 1 111 13 is_stmt 1 view .LVU102
 111:src/mode/main_mode.cpp ****             robot->info.Ui.debug[0] = robot->info.motor_rad_s[1] * 100;
 355              		.loc 1 111 39 is_stmt 0 view .LVU103
 356 01e0 6368     		ldr	r3, [r4, #4]
 111:src/mode/main_mode.cpp ****             robot->info.Ui.debug[0] = robot->info.motor_rad_s[1] * 100;
 357              		.loc 1 111 64 view .LVU104
 358 01e2 D3ED027A 		vldr.32	s15, [r3, #8]
 111:src/mode/main_mode.cpp ****             robot->info.Ui.debug[0] = robot->info.motor_rad_s[1] * 100;
 359              		.loc 1 111 66 view .LVU105
 360 01e6 9FED0F7A 		vldr.32	s14, .L29+28
 361 01ea 67EE877A 		vmul.f32	s15, s15, s14
 111:src/mode/main_mode.cpp ****             robot->info.Ui.debug[0] = robot->info.motor_rad_s[1] * 100;
 362              		.loc 1 111 37 view .LVU106
 363 01ee FDEEE77A 		vcvt.s32.f32	s15, s15
 364 01f2 17EE902A 		vmov	r2, s15	@ int
 365 01f6 A3F84620 		strh	r2, [r3, #70]	@ movhi
 112:src/mode/main_mode.cpp ****             robot->info.Ui.debug[1] = 0;
 366              		.loc 1 112 13 is_stmt 1 view .LVU107
 367 01fa 6368     		ldr	r3, [r4, #4]
 112:src/mode/main_mode.cpp ****             robot->info.Ui.debug[1] = 0;
 368              		.loc 1 112 37 is_stmt 0 view .LVU108
 369 01fc 0022     		movs	r2, #0
 370 01fe A3F84820 		strh	r2, [r3, #72]	@ movhi
 371 0202 4AE7     		b	.L7
 372              	.L30:
 373 0204 AFF30080 		.align	3
 374              	.L29:
 375 0208 7B14AE47 		.word	1202590843
 376 020c E17A843F 		.word	1065646817
 377 0210 00000000 		.word	0
 378 0214 CDCC4C3E 		.word	1045220557
 379 0218 BD378635 		.word	897988541
 380 021c 00000000 		.word	process_freq
 381 0220 CDCCCC3D 		.word	1036831949
 382 0224 0000C842 		.word	1120403456
 383              		.cfi_endproc
 384              	.LFE275:
 385              		.fnend
 387              		.global	encoder
 388              		.section	.bss.encoder,"aw",%nobits
 389              		.align	2
 392              	encoder:
 393 0000 00000000 		.space	16
 393      00000000 
ARM GAS  /var/folders/5c/srt4fy4j1pd641bjfx75k5000000gn/T//cc5KpQOZ.s 			page 11


 393      00000000 
 393      00000000 
 394              		.global	is_on_line
 395              		.section	.bss.is_on_line,"aw",%nobits
 396              		.align	2
 399              	is_on_line:
 400 0000 00000000 		.space	4
 401              		.global	line_dir
 402              		.section	.bss.line_dir,"aw",%nobits
 403              		.align	2
 406              	line_dir:
 407 0000 00000000 		.space	4
 408              		.global	process_freq
 409              		.section	.bss.process_freq,"aw",%nobits
 410              		.align	2
 413              	process_freq:
 414 0000 00000000 		.space	4
 415              		.global	voltage
 416              		.section	.bss.voltage,"aw",%nobits
 417              		.align	2
 420              	voltage:
 421 0000 00000000 		.space	4
 422              		.global	yaw
 423              		.section	.bss.yaw,"aw",%nobits
 424              		.align	2
 427              	yaw:
 428 0000 00000000 		.space	4
 429              		.text
 430              	.Letext0:
 431              		.file 2 "/opt/ST/STM32CubeCLT_1.16.0/GNU-tools-for-STM32/arm-none-eabi/include/machine/_default_ty
 432              		.file 3 "/opt/ST/STM32CubeCLT_1.16.0/GNU-tools-for-STM32/lib/gcc/arm-none-eabi/12.3.1/include/stdd
 433              		.file 4 "/opt/ST/STM32CubeCLT_1.16.0/GNU-tools-for-STM32/arm-none-eabi/include/sys/_types.h"
 434              		.file 5 "/opt/ST/STM32CubeCLT_1.16.0/GNU-tools-for-STM32/arm-none-eabi/include/sys/reent.h"
 435              		.file 6 "/opt/ST/STM32CubeCLT_1.16.0/GNU-tools-for-STM32/arm-none-eabi/include/sys/lock.h"
 436              		.file 7 "/opt/ST/STM32CubeCLT_1.16.0/GNU-tools-for-STM32/arm-none-eabi/include/stdio.h"
 437              		.file 8 "/opt/ST/STM32CubeCLT_1.16.0/GNU-tools-for-STM32/arm-none-eabi/include/sys/_stdint.h"
 438              		.file 9 "Drivers/CMSIS/Device/ST/STM32F4xx/Include/stm32f446xx.h"
 439              		.file 10 "Drivers/CMSIS/Device/ST/STM32F4xx/Include/stm32f4xx.h"
 440              		.file 11 "Drivers/STM32F4xx_HAL_Driver/Inc/stm32f4xx_hal_def.h"
 441              		.file 12 "Drivers/STM32F4xx_HAL_Driver/Inc/stm32f4xx_hal_dma.h"
 442              		.file 13 "Drivers/STM32F4xx_HAL_Driver/Inc/stm32f4xx_hal_tim.h"
 443              		.file 14 "Drivers/STM32F4xx_HAL_Driver/Inc/stm32f4xx_hal_uart.h"
 444              		.file 15 "Drivers/STM32F4xx_HAL_Driver/Inc/stm32f4xx_hal.h"
 445              		.file 16 "Lib/BufferedSerial/BufferedSerial.hpp"
 446              		.file 17 "Lib/DigitalInOut/DigitalInOut.hpp"
 447              		.file 18 "Lib/MovingAve/MovingAve.hpp"
 448              		.file 19 "/opt/ST/STM32CubeCLT_1.16.0/GNU-tools-for-STM32/arm-none-eabi/include/c++/12.3.1/cstdio"
 449              		.file 20 "/opt/ST/STM32CubeCLT_1.16.0/GNU-tools-for-STM32/arm-none-eabi/include/c++/12.3.1/arm-non
 450              		.file 21 "Lib/PWMSingle/PWMSingle.hpp"
 451              		.file 22 "Lib/Timer/Timer.hpp"
 452              		.file 23 "src/unit/dribbler_drive/dribbler_drive.hpp"
 453              		.file 24 "src/unit/kicker/kicker.hpp"
 454              		.file 25 "Lib/pid/pid.hpp"
 455              		.file 26 "src/unit/motor_drive/motor_drive.hpp"
 456              		.file 27 "src/unit/robot/robot.hpp"
 457              		.file 28 "src/mode/mode.hpp"
ARM GAS  /var/folders/5c/srt4fy4j1pd641bjfx75k5000000gn/T//cc5KpQOZ.s 			page 12


DEFINED SYMBOLS
                            *ABS*:00000000 main_mode.cpp
/var/folders/5c/srt4fy4j1pd641bjfx75k5000000gn/T//cc5KpQOZ.s:24     .text._ZN4Mode8MainModeEv:00000000 $t
/var/folders/5c/srt4fy4j1pd641bjfx75k5000000gn/T//cc5KpQOZ.s:30     .text._ZN4Mode8MainModeEv:00000000 _ZN4Mode8MainModeEv
/var/folders/5c/srt4fy4j1pd641bjfx75k5000000gn/T//cc5KpQOZ.s:150    .text._ZN4Mode8MainModeEv:0000007e $d
/var/folders/5c/srt4fy4j1pd641bjfx75k5000000gn/T//cc5KpQOZ.s:154    .text._ZN4Mode8MainModeEv:00000082 $t
/var/folders/5c/srt4fy4j1pd641bjfx75k5000000gn/T//cc5KpQOZ.s:375    .text._ZN4Mode8MainModeEv:00000208 $d
/var/folders/5c/srt4fy4j1pd641bjfx75k5000000gn/T//cc5KpQOZ.s:413    .bss.process_freq:00000000 process_freq
.ARM.exidx.text._ZN4Mode8MainModeEv:00000000 $d
/var/folders/5c/srt4fy4j1pd641bjfx75k5000000gn/T//cc5KpQOZ.s:392    .bss.encoder:00000000 encoder
/var/folders/5c/srt4fy4j1pd641bjfx75k5000000gn/T//cc5KpQOZ.s:389    .bss.encoder:00000000 $d
/var/folders/5c/srt4fy4j1pd641bjfx75k5000000gn/T//cc5KpQOZ.s:399    .bss.is_on_line:00000000 is_on_line
/var/folders/5c/srt4fy4j1pd641bjfx75k5000000gn/T//cc5KpQOZ.s:396    .bss.is_on_line:00000000 $d
/var/folders/5c/srt4fy4j1pd641bjfx75k5000000gn/T//cc5KpQOZ.s:406    .bss.line_dir:00000000 line_dir
/var/folders/5c/srt4fy4j1pd641bjfx75k5000000gn/T//cc5KpQOZ.s:403    .bss.line_dir:00000000 $d
/var/folders/5c/srt4fy4j1pd641bjfx75k5000000gn/T//cc5KpQOZ.s:410    .bss.process_freq:00000000 $d
/var/folders/5c/srt4fy4j1pd641bjfx75k5000000gn/T//cc5KpQOZ.s:420    .bss.voltage:00000000 voltage
/var/folders/5c/srt4fy4j1pd641bjfx75k5000000gn/T//cc5KpQOZ.s:417    .bss.voltage:00000000 $d
/var/folders/5c/srt4fy4j1pd641bjfx75k5000000gn/T//cc5KpQOZ.s:427    .bss.yaw:00000000 yaw
/var/folders/5c/srt4fy4j1pd641bjfx75k5000000gn/T//cc5KpQOZ.s:424    .bss.yaw:00000000 $d

UNDEFINED SYMBOLS
__aeabi_i2d
__aeabi_dmul
__aeabi_d2f
_ZN5Timer5resetEv
_ZN5Robot7ImuUartEv
_ZN5Robot8LineUartEv
_ZN5Robot9Esp32UartEv
_ZN5Robot10GetSensorsEv
_ZN10MotorDrive5DriveEsffsfh
_ZN5Timer7read_usEv
_ZN4Mode7OffenceEv
_ZN4Mode7DefenceEv
_ZN13DribblerDrive4HoldEh
_ZN10MotorDrive4FreeEv
_ZN6Kicker4KickEf
__aeabi_unwind_cpp_pr0
