ARM GAS  /var/folders/5c/srt4fy4j1pd641bjfx75k5000000gn/T//cchJmN28.s 			page 1


   1              		.cpu cortex-m4
   2              		.arch armv7e-m
   3              		.fpu fpv4-sp-d16
   4              		.eabi_attribute 27, 1
   5              		.eabi_attribute 28, 1
   6              		.eabi_attribute 20, 1
   7              		.eabi_attribute 21, 1
   8              		.eabi_attribute 23, 3
   9              		.eabi_attribute 24, 1
  10              		.eabi_attribute 25, 1
  11              		.eabi_attribute 26, 1
  12              		.eabi_attribute 30, 1
  13              		.eabi_attribute 34, 1
  14              		.eabi_attribute 18, 4
  15              		.file	"main_mode.cpp"
  16              		.text
  17              	.Ltext0:
  18              		.cfi_sections	.debug_frame
  19              		.file 1 "src/mode/main_mode.cpp"
  20              		.global	__aeabi_i2d
  21              		.global	__aeabi_dmul
  22              		.global	__aeabi_d2f
  23              		.section	.text._ZN4Mode8MainModeEv,"ax",%progbits
  24              		.align	1
  25              		.global	_ZN4Mode8MainModeEv
  26              		.syntax unified
  27              		.thumb
  28              		.thumb_func
  30              	_ZN4Mode8MainModeEv:
  31              		.fnstart
  32              	.LVL0:
  33              	.LFB275:
   1:src/mode/main_mode.cpp **** #include "mode.hpp"
   2:src/mode/main_mode.cpp **** 
   3:src/mode/main_mode.cpp **** // cortex-debug用グローバル変数
   4:src/mode/main_mode.cpp **** int yaw;
   5:src/mode/main_mode.cpp **** float voltage;
   6:src/mode/main_mode.cpp **** int process_freq;
   7:src/mode/main_mode.cpp **** int line_dir;
   8:src/mode/main_mode.cpp **** int is_on_line;
   9:src/mode/main_mode.cpp **** int encoder[4];
  10:src/mode/main_mode.cpp **** 
  11:src/mode/main_mode.cpp **** void Mode::MainMode() {
  34              		.loc 1 11 23 view -0
  35              		.cfi_startproc
  36              		@ args = 0, pretend = 0, frame = 0
  37              		@ frame_needed = 0, uses_anonymous_args = 0
  38              		.loc 1 11 23 is_stmt 0 view .LVU1
  39 0000 38B5     		push	{r3, r4, r5, lr}
  40              		.save {r3, r4, r5, lr}
  41              	.LCFI0:
  42              		.cfi_def_cfa_offset 16
  43              		.cfi_offset 3, -16
  44              		.cfi_offset 4, -12
  45              		.cfi_offset 5, -8
  46              		.cfi_offset 14, -4
  47 0002 0446     		mov	r4, r0
ARM GAS  /var/folders/5c/srt4fy4j1pd641bjfx75k5000000gn/T//cchJmN28.s 			page 2


  12:src/mode/main_mode.cpp ****       process_timer.reset();
  48              		.loc 1 12 7 is_stmt 1 view .LVU2
  49              		.loc 1 12 26 is_stmt 0 view .LVU3
  50 0004 FFF7FEFF 		bl	_ZN5Timer5resetEv
  51              	.LVL1:
  13:src/mode/main_mode.cpp ****       // メイン処理
  14:src/mode/main_mode.cpp **** 
  15:src/mode/main_mode.cpp ****       // UART通信
  16:src/mode/main_mode.cpp ****       robot->ImuUart();
  52              		.loc 1 16 7 is_stmt 1 view .LVU4
  53              		.loc 1 16 21 is_stmt 0 view .LVU5
  54 0008 6068     		ldr	r0, [r4, #4]
  55 000a FFF7FEFF 		bl	_ZN5Robot7ImuUartEv
  56              	.LVL2:
  17:src/mode/main_mode.cpp ****       robot->LineUart();
  57              		.loc 1 17 7 is_stmt 1 view .LVU6
  58              		.loc 1 17 22 is_stmt 0 view .LVU7
  59 000e 6068     		ldr	r0, [r4, #4]
  60 0010 FFF7FEFF 		bl	_ZN5Robot8LineUartEv
  61              	.LVL3:
  18:src/mode/main_mode.cpp ****       robot->UiUart();
  62              		.loc 1 18 7 is_stmt 1 view .LVU8
  63              		.loc 1 18 20 is_stmt 0 view .LVU9
  64 0014 6068     		ldr	r0, [r4, #4]
  65 0016 FFF7FEFF 		bl	_ZN5Robot6UiUartEv
  66              	.LVL4:
  19:src/mode/main_mode.cpp ****       robot->CamUart();
  67              		.loc 1 19 7 is_stmt 1 view .LVU10
  68              		.loc 1 19 21 is_stmt 0 view .LVU11
  69 001a 6068     		ldr	r0, [r4, #4]
  70 001c FFF7FEFF 		bl	_ZN5Robot7CamUartEv
  71              	.LVL5:
  20:src/mode/main_mode.cpp ****       robot->Esp32Uart();
  72              		.loc 1 20 7 is_stmt 1 view .LVU12
  73              		.loc 1 20 23 is_stmt 0 view .LVU13
  74 0020 6068     		ldr	r0, [r4, #4]
  75 0022 FFF7FEFF 		bl	_ZN5Robot9Esp32UartEv
  76              	.LVL6:
  21:src/mode/main_mode.cpp **** 
  22:src/mode/main_mode.cpp ****       // センサー情報取得
  23:src/mode/main_mode.cpp ****       robot->GetSensors();
  77              		.loc 1 23 7 is_stmt 1 view .LVU14
  78              		.loc 1 23 24 is_stmt 0 view .LVU15
  79 0026 6068     		ldr	r0, [r4, #4]
  80 0028 FFF7FEFF 		bl	_ZN5Robot10GetSensorsEv
  81              	.LVL7:
  24:src/mode/main_mode.cpp **** 
  25:src/mode/main_mode.cpp ****       // 動いている時かデバッグモードの時ラインをつける
  26:src/mode/main_mode.cpp ****       robot->info.Line.on_led = false;
  82              		.loc 1 26 7 is_stmt 1 view .LVU16
  83 002c 6368     		ldr	r3, [r4, #4]
  84              		.loc 1 26 31 is_stmt 0 view .LVU17
  85 002e 0022     		movs	r2, #0
  86 0030 83F82A20 		strb	r2, [r3, #42]
  27:src/mode/main_mode.cpp ****       if (robot->info.mode != 0 || robot->info.Ui.item == 1) robot->info.Line.on_led = true;
  87              		.loc 1 27 7 is_stmt 1 view .LVU18
  88              		.loc 1 27 11 is_stmt 0 view .LVU19
ARM GAS  /var/folders/5c/srt4fy4j1pd641bjfx75k5000000gn/T//cchJmN28.s 			page 3


  89 0034 6368     		ldr	r3, [r4, #4]
  90              		.loc 1 27 23 view .LVU20
  91 0036 1A7D     		ldrb	r2, [r3, #20]	@ zero_extendqisi2
  92              		.loc 1 27 7 view .LVU21
  93 0038 1AB9     		cbnz	r2, .L2
  94              		.loc 1 27 51 discriminator 2 view .LVU22
  95 003a 93F94320 		ldrsb	r2, [r3, #67]
  96              		.loc 1 27 33 discriminator 2 view .LVU23
  97 003e 012A     		cmp	r2, #1
  98 0040 02D1     		bne	.L3
  99              	.L2:
 100              		.loc 1 27 62 is_stmt 1 discriminator 3 view .LVU24
 101              		.loc 1 27 86 is_stmt 0 discriminator 3 view .LVU25
 102 0042 0122     		movs	r2, #1
 103 0044 83F82A20 		strb	r2, [r3, #42]
 104              	.L3:
  28:src/mode/main_mode.cpp **** 
  29:src/mode/main_mode.cpp ****       // 　yawのリセット
  30:src/mode/main_mode.cpp ****       if (robot->info.Ui.reset_yaw == false) robot->info.Ui.success_reset_yaw = false;
 105              		.loc 1 30 7 is_stmt 1 view .LVU26
 106              		.loc 1 30 11 is_stmt 0 view .LVU27
 107 0048 6368     		ldr	r3, [r4, #4]
 108              		.loc 1 30 26 view .LVU28
 109 004a 93F83E20 		ldrb	r2, [r3, #62]	@ zero_extendqisi2
 110              		.loc 1 30 7 view .LVU29
 111 004e 0AB9     		cbnz	r2, .L4
 112              		.loc 1 30 46 is_stmt 1 discriminator 1 view .LVU30
 113              		.loc 1 30 79 is_stmt 0 discriminator 1 view .LVU31
 114 0050 83F83F20 		strb	r2, [r3, #63]
 115              	.L4:
  31:src/mode/main_mode.cpp ****       if (robot->info.Ui.reset_yaw == true && robot->info.Ui.success_reset_yaw == false) {
 116              		.loc 1 31 7 is_stmt 1 view .LVU32
 117              		.loc 1 31 11 is_stmt 0 view .LVU33
 118 0054 6368     		ldr	r3, [r4, #4]
 119              		.loc 1 31 26 view .LVU34
 120 0056 93F83E20 		ldrb	r2, [r3, #62]	@ zero_extendqisi2
 121              		.loc 1 31 7 view .LVU35
 122 005a 52B1     		cbz	r2, .L5
 123              		.loc 1 31 62 discriminator 1 view .LVU36
 124 005c 93F83F20 		ldrb	r2, [r3, #63]	@ zero_extendqisi2
 125              		.loc 1 31 44 discriminator 1 view .LVU37
 126 0060 3AB9     		cbnz	r2, .L5
  32:src/mode/main_mode.cpp ****             robot->info.Imu.yaw_correction_val = robot->info.Imu.yaw + robot->info.Imu.yaw_correcti
 127              		.loc 1 32 13 is_stmt 1 view .LVU38
 128              		.loc 1 32 66 is_stmt 0 view .LVU39
 129 0062 DA8E     		ldrh	r2, [r3, #54]
 130              		.loc 1 32 88 view .LVU40
 131 0064 998F     		ldrh	r1, [r3, #60]
 132              		.loc 1 32 70 view .LVU41
 133 0066 0A44     		add	r2, r2, r1
 134              		.loc 1 32 48 view .LVU42
 135 0068 9A87     		strh	r2, [r3, #60]	@ movhi
  33:src/mode/main_mode.cpp ****             robot->info.Ui.success_reset_yaw = true;
 136              		.loc 1 33 13 is_stmt 1 view .LVU43
 137 006a 6368     		ldr	r3, [r4, #4]
 138              		.loc 1 33 46 is_stmt 0 view .LVU44
 139 006c 0122     		movs	r2, #1
ARM GAS  /var/folders/5c/srt4fy4j1pd641bjfx75k5000000gn/T//cchJmN28.s 			page 4


 140 006e 83F83F20 		strb	r2, [r3, #63]
 141              	.L5:
  34:src/mode/main_mode.cpp ****       }
  35:src/mode/main_mode.cpp **** 
  36:src/mode/main_mode.cpp ****       robot->info.Esp32.do_rotate = false;
 142              		.loc 1 36 7 is_stmt 1 view .LVU45
 143 0072 6368     		ldr	r3, [r4, #4]
 144              		.loc 1 36 35 is_stmt 0 view .LVU46
 145 0074 0022     		movs	r2, #0
 146 0076 83F88A20 		strb	r2, [r3, #138]
  37:src/mode/main_mode.cpp ****       // if (robot->info.Ui.item == 0 && robot->info.Ui.sub_item != 0) robot->info.Esp32.do_rotate 
  38:src/mode/main_mode.cpp **** 
  39:src/mode/main_mode.cpp ****       // モード切り替え
  40:src/mode/main_mode.cpp ****       if (robot->info.mode == 0) {
 147              		.loc 1 40 7 is_stmt 1 view .LVU47
 148              		.loc 1 40 11 is_stmt 0 view .LVU48
 149 007a 6068     		ldr	r0, [r4, #4]
 150              		.loc 1 40 23 view .LVU49
 151 007c 037D     		ldrb	r3, [r0, #20]	@ zero_extendqisi2
 152              		.loc 1 40 7 view .LVU50
 153 007e 33B1     		cbz	r3, .L28
  41:src/mode/main_mode.cpp ****             robot->motor.Free();
  42:src/mode/main_mode.cpp **** 
  43:src/mode/main_mode.cpp ****             if (robot->info.Ui.dribbler_sig == 0) {
  44:src/mode/main_mode.cpp ****                   robot->dribbler_front.Hold(0);
  45:src/mode/main_mode.cpp ****                   robot->dribbler_back.Hold(0);
  46:src/mode/main_mode.cpp ****             } else if (robot->info.Ui.dribbler_sig == 1) {
  47:src/mode/main_mode.cpp ****                   if (robot->info.Catch.is_front) {
  48:src/mode/main_mode.cpp ****                         robot->dribbler_front.Hold(HOLD_MAX_POWER);
  49:src/mode/main_mode.cpp ****                   } else {
  50:src/mode/main_mode.cpp ****                         robot->dribbler_front.Hold(HOLD_WAIT_POWER);
  51:src/mode/main_mode.cpp ****                   }
  52:src/mode/main_mode.cpp ****             } else if (robot->info.Ui.dribbler_sig == 2) {
  53:src/mode/main_mode.cpp ****                   robot->kicker.Kick();
  54:src/mode/main_mode.cpp ****             } else if (robot->info.Ui.dribbler_sig == 3) {
  55:src/mode/main_mode.cpp ****                   if (robot->info.Catch.is_back) {
  56:src/mode/main_mode.cpp ****                         robot->dribbler_back.Hold(HOLD_MAX_POWER);
  57:src/mode/main_mode.cpp ****                   } else {
  58:src/mode/main_mode.cpp ****                         robot->dribbler_back.Hold(HOLD_WAIT_POWER);
  59:src/mode/main_mode.cpp ****                   }
  60:src/mode/main_mode.cpp ****             }
  61:src/mode/main_mode.cpp ****       } else if (robot->info.mode == 1) {
 154              		.loc 1 61 14 is_stmt 1 view .LVU51
 155 0080 013B     		subs	r3, r3, #1
 156 0082 032B     		cmp	r3, #3
 157 0084 4BD8     		bhi	.L8
 158 0086 DFE803F0 		tbb	[pc, r3]
 159              	.L14:
 160 008a 47       		.byte	(.L17-.L14)/2
 161 008b 6D       		.byte	(.L16-.L14)/2
 162 008c 71       		.byte	(.L15-.L14)/2
 163 008d DC       		.byte	(.L13-.L14)/2
 164              		.p2align 1
 165              	.L28:
  41:src/mode/main_mode.cpp ****             robot->motor.Free();
 166              		.loc 1 41 13 view .LVU52
  41:src/mode/main_mode.cpp ****             robot->motor.Free();
ARM GAS  /var/folders/5c/srt4fy4j1pd641bjfx75k5000000gn/T//cchJmN28.s 			page 5


 167              		.loc 1 41 30 is_stmt 0 view .LVU53
 168 008e 00F5C870 		add	r0, r0, #400
 169 0092 FFF7FEFF 		bl	_ZN10MotorDrive4FreeEv
 170              	.LVL8:
  43:src/mode/main_mode.cpp ****                   robot->dribbler_front.Hold(0);
 171              		.loc 1 43 13 is_stmt 1 view .LVU54
  43:src/mode/main_mode.cpp ****                   robot->dribbler_front.Hold(0);
 172              		.loc 1 43 17 is_stmt 0 view .LVU55
 173 0096 6068     		ldr	r0, [r4, #4]
  43:src/mode/main_mode.cpp ****                   robot->dribbler_front.Hold(0);
 174              		.loc 1 43 32 view .LVU56
 175 0098 90F84230 		ldrb	r3, [r0, #66]	@ zero_extendqisi2
  43:src/mode/main_mode.cpp ****                   robot->dribbler_front.Hold(0);
 176              		.loc 1 43 13 view .LVU57
 177 009c 7BB1     		cbz	r3, .L29
  46:src/mode/main_mode.cpp ****                   if (robot->info.Catch.is_front) {
 178              		.loc 1 46 20 is_stmt 1 view .LVU58
 179 009e 012B     		cmp	r3, #1
 180 00a0 1BD0     		beq	.L30
  52:src/mode/main_mode.cpp ****                   robot->kicker.Kick();
 181              		.loc 1 52 20 view .LVU59
 182 00a2 022B     		cmp	r3, #2
 183 00a4 2AD0     		beq	.L31
  54:src/mode/main_mode.cpp ****                   if (robot->info.Catch.is_back) {
 184              		.loc 1 54 20 view .LVU60
 185 00a6 032B     		cmp	r3, #3
 186 00a8 39D1     		bne	.L8
  55:src/mode/main_mode.cpp ****                         robot->dribbler_back.Hold(HOLD_MAX_POWER);
 187              		.loc 1 55 19 view .LVU61
  55:src/mode/main_mode.cpp ****                         robot->dribbler_back.Hold(HOLD_MAX_POWER);
 188              		.loc 1 55 41 is_stmt 0 view .LVU62
 189 00aa 90F83230 		ldrb	r3, [r0, #50]	@ zero_extendqisi2
  55:src/mode/main_mode.cpp ****                         robot->dribbler_back.Hold(HOLD_MAX_POWER);
 190              		.loc 1 55 19 view .LVU63
 191 00ae 63B3     		cbz	r3, .L12
  56:src/mode/main_mode.cpp ****                   } else {
 192              		.loc 1 56 25 is_stmt 1 view .LVU64
  56:src/mode/main_mode.cpp ****                   } else {
 193              		.loc 1 56 50 is_stmt 0 view .LVU65
 194 00b0 6421     		movs	r1, #100
 195 00b2 00F58750 		add	r0, r0, #4320
 196 00b6 0830     		adds	r0, r0, #8
 197 00b8 FFF7FEFF 		bl	_ZN13DribblerDrive4HoldEh
 198              	.LVL9:
 199 00bc 2FE0     		b	.L8
 200              	.L29:
  44:src/mode/main_mode.cpp ****                   robot->dribbler_back.Hold(0);
 201              		.loc 1 44 19 is_stmt 1 view .LVU66
  44:src/mode/main_mode.cpp ****                   robot->dribbler_back.Hold(0);
 202              		.loc 1 44 45 is_stmt 0 view .LVU67
 203 00be 0021     		movs	r1, #0
 204 00c0 00F58650 		add	r0, r0, #4288
 205 00c4 1030     		adds	r0, r0, #16
 206 00c6 FFF7FEFF 		bl	_ZN13DribblerDrive4HoldEh
 207              	.LVL10:
  45:src/mode/main_mode.cpp ****             } else if (robot->info.Ui.dribbler_sig == 1) {
 208              		.loc 1 45 19 is_stmt 1 view .LVU68
ARM GAS  /var/folders/5c/srt4fy4j1pd641bjfx75k5000000gn/T//cchJmN28.s 			page 6


 209 00ca 6068     		ldr	r0, [r4, #4]
  45:src/mode/main_mode.cpp ****             } else if (robot->info.Ui.dribbler_sig == 1) {
 210              		.loc 1 45 44 is_stmt 0 view .LVU69
 211 00cc 0021     		movs	r1, #0
 212 00ce 00F58750 		add	r0, r0, #4320
 213 00d2 0830     		adds	r0, r0, #8
 214 00d4 FFF7FEFF 		bl	_ZN13DribblerDrive4HoldEh
 215              	.LVL11:
 216 00d8 21E0     		b	.L8
 217              	.L30:
  47:src/mode/main_mode.cpp ****                         robot->dribbler_front.Hold(HOLD_MAX_POWER);
 218              		.loc 1 47 19 is_stmt 1 view .LVU70
  47:src/mode/main_mode.cpp ****                         robot->dribbler_front.Hold(HOLD_MAX_POWER);
 219              		.loc 1 47 41 is_stmt 0 view .LVU71
 220 00da 90F82E30 		ldrb	r3, [r0, #46]	@ zero_extendqisi2
  47:src/mode/main_mode.cpp ****                         robot->dribbler_front.Hold(HOLD_MAX_POWER);
 221              		.loc 1 47 19 view .LVU72
 222 00de 33B1     		cbz	r3, .L10
  48:src/mode/main_mode.cpp ****                   } else {
 223              		.loc 1 48 25 is_stmt 1 view .LVU73
  48:src/mode/main_mode.cpp ****                   } else {
 224              		.loc 1 48 51 is_stmt 0 view .LVU74
 225 00e0 6421     		movs	r1, #100
 226 00e2 00F58650 		add	r0, r0, #4288
 227 00e6 1030     		adds	r0, r0, #16
 228 00e8 FFF7FEFF 		bl	_ZN13DribblerDrive4HoldEh
 229              	.LVL12:
 230 00ec 17E0     		b	.L8
 231              	.L10:
  50:src/mode/main_mode.cpp ****                   }
 232              		.loc 1 50 25 is_stmt 1 view .LVU75
  50:src/mode/main_mode.cpp ****                   }
 233              		.loc 1 50 51 is_stmt 0 view .LVU76
 234 00ee 3221     		movs	r1, #50
 235 00f0 00F58650 		add	r0, r0, #4288
 236 00f4 1030     		adds	r0, r0, #16
 237 00f6 FFF7FEFF 		bl	_ZN13DribblerDrive4HoldEh
 238              	.LVL13:
 239 00fa 10E0     		b	.L8
 240              	.L31:
  53:src/mode/main_mode.cpp ****             } else if (robot->info.Ui.dribbler_sig == 3) {
 241              		.loc 1 53 19 is_stmt 1 view .LVU77
  53:src/mode/main_mode.cpp ****             } else if (robot->info.Ui.dribbler_sig == 3) {
 242              		.loc 1 53 37 is_stmt 0 view .LVU78
 243 00fc B7EE000A 		vmov.f32	s0, #1.0e+0
 244 0100 00F58850 		add	r0, r0, #4352
 245 0104 FFF7FEFF 		bl	_ZN6Kicker4KickEf
 246              	.LVL14:
 247 0108 09E0     		b	.L8
 248              	.L12:
  58:src/mode/main_mode.cpp ****                   }
 249              		.loc 1 58 25 is_stmt 1 view .LVU79
  58:src/mode/main_mode.cpp ****                   }
 250              		.loc 1 58 50 is_stmt 0 view .LVU80
 251 010a 3221     		movs	r1, #50
 252 010c 00F58750 		add	r0, r0, #4320
 253 0110 0830     		adds	r0, r0, #8
ARM GAS  /var/folders/5c/srt4fy4j1pd641bjfx75k5000000gn/T//cchJmN28.s 			page 7


 254 0112 FFF7FEFF 		bl	_ZN13DribblerDrive4HoldEh
 255              	.LVL15:
 256 0116 02E0     		b	.L8
 257              	.L17:
  62:src/mode/main_mode.cpp ****             Offence();
 258              		.loc 1 62 13 is_stmt 1 view .LVU81
 259              		.loc 1 62 20 is_stmt 0 view .LVU82
 260 0118 2046     		mov	r0, r4
 261 011a FFF7FEFF 		bl	_ZN4Mode7OffenceEv
 262              	.LVL16:
 263              	.L8:
  63:src/mode/main_mode.cpp ****       } else if (robot->info.mode == 2) {
  64:src/mode/main_mode.cpp ****             Defence();
  65:src/mode/main_mode.cpp ****       } else if (robot->info.mode == 3) {  // debug mode
  66:src/mode/main_mode.cpp ****             if (robot->info.Esp32.Wifi.stop) {
  67:src/mode/main_mode.cpp ****                   robot->motor.Free();
  68:src/mode/main_mode.cpp ****                   robot->dribbler_front.Hold(0);
  69:src/mode/main_mode.cpp ****             } else {
  70:src/mode/main_mode.cpp ****                   if (robot->info.Esp32.Wifi.face_axis == 0) {
  71:src/mode/main_mode.cpp ****                         robot->motor.Drive(robot->info.Esp32.Wifi.move_dir, robot->info.Esp32.Wifi.
  72:src/mode/main_mode.cpp ****                   } else if (robot->info.Esp32.Wifi.face_axis == 1) {
  73:src/mode/main_mode.cpp ****                         robot->motor.Drive(robot->info.Esp32.Wifi.move_dir, robot->info.Esp32.Wifi.
  74:src/mode/main_mode.cpp ****                   } else if (robot->info.Esp32.Wifi.face_axis == 2) {
  75:src/mode/main_mode.cpp ****                         robot->motor.Drive(robot->info.Esp32.Wifi.move_dir, robot->info.Esp32.Wifi.
  76:src/mode/main_mode.cpp ****                   }
  77:src/mode/main_mode.cpp ****                   if (robot->info.Esp32.Wifi.kick) {
  78:src/mode/main_mode.cpp ****                         robot->kicker.Kick(robot->info.Esp32.Wifi.kick * 0.01);
  79:src/mode/main_mode.cpp ****                   }
  80:src/mode/main_mode.cpp ****                   if (robot->info.Esp32.Wifi.dribble) {
  81:src/mode/main_mode.cpp ****                         robot->dribbler_front.Hold(robot->info.Esp32.Wifi.dribble);
  82:src/mode/main_mode.cpp ****                   } else {
  83:src/mode/main_mode.cpp ****                         robot->dribbler_front.Hold(0);
  84:src/mode/main_mode.cpp ****                   }
  85:src/mode/main_mode.cpp ****             }
  86:src/mode/main_mode.cpp **** 
  87:src/mode/main_mode.cpp ****       } else if (robot->info.mode == 4) {  // debug mode
  88:src/mode/main_mode.cpp ****             robot->motor.Drive(0);
  89:src/mode/main_mode.cpp ****             robot->info.Ui.debug[0] = robot->info.motor_rad_s[1] * 100;
  90:src/mode/main_mode.cpp ****             robot->info.Ui.debug[1] = 0;
  91:src/mode/main_mode.cpp ****       }
  92:src/mode/main_mode.cpp **** 
  93:src/mode/main_mode.cpp ****       // cortex-debug
  94:src/mode/main_mode.cpp ****       // yaw = robot->info.Imu.yaw;
  95:src/mode/main_mode.cpp ****       // voltage = robot->info.voltage;
  96:src/mode/main_mode.cpp ****       // line_dir = robot->info.Line.dir;
  97:src/mode/main_mode.cpp ****       // is_on_line = robot->info.Line.is_on_line;
  98:src/mode/main_mode.cpp **** 
  99:src/mode/main_mode.cpp ****       // encoder[0] = robot->info.motor_rad_s[0];
 100:src/mode/main_mode.cpp ****       // encoder[1] = robot->info.motor_rad_s[1];
 101:src/mode/main_mode.cpp ****       // encoder[2] = robot->info.motor_rad_s[2];
 102:src/mode/main_mode.cpp ****       // encoder[3] = robot->info.motor_rad_s[3];
 103:src/mode/main_mode.cpp **** 
 104:src/mode/main_mode.cpp ****       //  定周期処理
 105:src/mode/main_mode.cpp ****       process_time_ = process_timer.read_us();
 264              		.loc 1 105 7 is_stmt 1 view .LVU83
 265              		.loc 1 105 44 is_stmt 0 view .LVU84
 266 011e 2046     		mov	r0, r4
ARM GAS  /var/folders/5c/srt4fy4j1pd641bjfx75k5000000gn/T//cchJmN28.s 			page 8


 267 0120 FFF7FEFF 		bl	_ZN5Timer7read_usEv
 268              	.LVL17:
 269              		.loc 1 105 21 view .LVU85
 270 0124 80B2     		uxth	r0, r0
 271 0126 2081     		strh	r0, [r4, #8]	@ movhi
 106:src/mode/main_mode.cpp ****       if (process_time_ < PERIOD_US) {
 272              		.loc 1 106 7 is_stmt 1 view .LVU86
 273 0128 B0F5FA7F 		cmp	r0, #500
 274 012c 05D2     		bcs	.L24
 275              	.L25:
 107:src/mode/main_mode.cpp ****             while (process_timer.read_us() < PERIOD_US);  // 余剰時間を待つ
 276              		.loc 1 107 44 discriminator 1 view .LVU87
 277              		.loc 1 107 41 is_stmt 0 discriminator 1 view .LVU88
 278 012e 2046     		mov	r0, r4
 279 0130 FFF7FEFF 		bl	_ZN5Timer7read_usEv
 280              	.LVL18:
 281              		.loc 1 107 44 discriminator 1 view .LVU89
 282 0134 B0F5FA7F 		cmp	r0, #500
 283 0138 F9D3     		bcc	.L25
 284              	.L24:
 108:src/mode/main_mode.cpp ****       }
 109:src/mode/main_mode.cpp ****       process_freq = 1.0f / (process_timer.read_us() * 0.000001f);
 285              		.loc 1 109 7 is_stmt 1 view .LVU90
 286              		.loc 1 109 51 is_stmt 0 view .LVU91
 287 013a 2046     		mov	r0, r4
 288 013c FFF7FEFF 		bl	_ZN5Timer7read_usEv
 289              	.LVL19:
 290 0140 07EE900A 		vmov	s15, r0	@ int
 291              		.loc 1 109 54 view .LVU92
 292 0144 F8EE677A 		vcvt.f32.u32	s15, s15
 293 0148 9FED4F7A 		vldr.32	s14, .L37+8
 294 014c 67EE877A 		vmul.f32	s15, s15, s14
 295              		.loc 1 109 27 view .LVU93
 296 0150 F7EE006A 		vmov.f32	s13, #1.0e+0
 297 0154 86EEA77A 		vdiv.f32	s14, s13, s15
 298              		.loc 1 109 20 view .LVU94
 299 0158 BDEEC77A 		vcvt.s32.f32	s14, s14
 300 015c 4B4B     		ldr	r3, .L37+12
 301 015e 83ED007A 		vstr.32	s14, [r3]	@ int
 110:src/mode/main_mode.cpp **** }...
 302              		.loc 1 110 1 view .LVU95
 303 0162 38BD     		pop	{r3, r4, r5, pc}
 304              	.LVL20:
 305              	.L16:
  64:src/mode/main_mode.cpp ****             Defence();
 306              		.loc 1 64 13 is_stmt 1 view .LVU96
  64:src/mode/main_mode.cpp ****             Defence();
 307              		.loc 1 64 20 is_stmt 0 view .LVU97
 308 0164 2046     		mov	r0, r4
 309 0166 FFF7FEFF 		bl	_ZN4Mode7DefenceEv
 310              	.LVL21:
 311 016a D8E7     		b	.L8
 312              	.L15:
  66:src/mode/main_mode.cpp ****             if (robot->info.Esp32.Wifi.stop) {
 313              		.loc 1 66 13 is_stmt 1 view .LVU98
  66:src/mode/main_mode.cpp ****             if (robot->info.Esp32.Wifi.stop) {
 314              		.loc 1 66 40 is_stmt 0 view .LVU99
ARM GAS  /var/folders/5c/srt4fy4j1pd641bjfx75k5000000gn/T//cchJmN28.s 			page 9


 315 016c 90F8A330 		ldrb	r3, [r0, #163]	@ zero_extendqisi2
  66:src/mode/main_mode.cpp ****             if (robot->info.Esp32.Wifi.stop) {
 316              		.loc 1 66 13 view .LVU100
 317 0170 B3B9     		cbnz	r3, .L32
  70:src/mode/main_mode.cpp ****                   if (robot->info.Esp32.Wifi.face_axis == 0) {
 318              		.loc 1 70 19 is_stmt 1 view .LVU101
  70:src/mode/main_mode.cpp ****                   if (robot->info.Esp32.Wifi.face_axis == 0) {
 319              		.loc 1 70 46 is_stmt 0 view .LVU102
 320 0172 90F8A030 		ldrb	r3, [r0, #160]	@ zero_extendqisi2
  70:src/mode/main_mode.cpp ****                   if (robot->info.Esp32.Wifi.face_axis == 0) {
 321              		.loc 1 70 19 view .LVU103
 322 0176 FBB1     		cbz	r3, .L33
  72:src/mode/main_mode.cpp ****                   } else if (robot->info.Esp32.Wifi.face_axis == 1) {
 323              		.loc 1 72 26 is_stmt 1 view .LVU104
 324 0178 012B     		cmp	r3, #1
 325 017a 2CD0     		beq	.L34
  74:src/mode/main_mode.cpp ****                   } else if (robot->info.Esp32.Wifi.face_axis == 2) {
 326              		.loc 1 74 26 view .LVU105
 327 017c 022B     		cmp	r3, #2
 328 017e 39D0     		beq	.L35
 329              	.L20:
  77:src/mode/main_mode.cpp ****                   if (robot->info.Esp32.Wifi.kick) {
 330              		.loc 1 77 19 view .LVU106
  77:src/mode/main_mode.cpp ****                   if (robot->info.Esp32.Wifi.kick) {
 331              		.loc 1 77 23 is_stmt 0 view .LVU107
 332 0180 6568     		ldr	r5, [r4, #4]
  77:src/mode/main_mode.cpp ****                   if (robot->info.Esp32.Wifi.kick) {
 333              		.loc 1 77 46 view .LVU108
 334 0182 95F8A100 		ldrb	r0, [r5, #161]	@ zero_extendqisi2
  77:src/mode/main_mode.cpp ****                   if (robot->info.Esp32.Wifi.kick) {
 335              		.loc 1 77 19 view .LVU109
 336 0186 0028     		cmp	r0, #0
 337 0188 44D1     		bne	.L36
 338              	.L22:
  80:src/mode/main_mode.cpp ****                   if (robot->info.Esp32.Wifi.dribble) {
 339              		.loc 1 80 19 is_stmt 1 view .LVU110
  80:src/mode/main_mode.cpp ****                   if (robot->info.Esp32.Wifi.dribble) {
 340              		.loc 1 80 23 is_stmt 0 view .LVU111
 341 018a 6068     		ldr	r0, [r4, #4]
  80:src/mode/main_mode.cpp ****                   if (robot->info.Esp32.Wifi.dribble) {
 342              		.loc 1 80 46 view .LVU112
 343 018c 90F8A210 		ldrb	r1, [r0, #162]	@ zero_extendqisi2
  80:src/mode/main_mode.cpp ****                   if (robot->info.Esp32.Wifi.dribble) {
 344              		.loc 1 80 19 view .LVU113
 345 0190 0029     		cmp	r1, #0
 346 0192 4FD0     		beq	.L23
  81:src/mode/main_mode.cpp ****                         robot->dribbler_front.Hold(robot->info.Esp32.Wifi.dribble);
 347              		.loc 1 81 25 is_stmt 1 view .LVU114
  81:src/mode/main_mode.cpp ****                         robot->dribbler_front.Hold(robot->info.Esp32.Wifi.dribble);
 348              		.loc 1 81 51 is_stmt 0 view .LVU115
 349 0194 00F58650 		add	r0, r0, #4288
 350 0198 1030     		adds	r0, r0, #16
 351 019a FFF7FEFF 		bl	_ZN13DribblerDrive4HoldEh
 352              	.LVL22:
 353 019e BEE7     		b	.L8
 354              	.L32:
  67:src/mode/main_mode.cpp ****                   robot->motor.Free();
ARM GAS  /var/folders/5c/srt4fy4j1pd641bjfx75k5000000gn/T//cchJmN28.s 			page 10


 355              		.loc 1 67 19 is_stmt 1 view .LVU116
  67:src/mode/main_mode.cpp ****                   robot->motor.Free();
 356              		.loc 1 67 36 is_stmt 0 view .LVU117
 357 01a0 00F5C870 		add	r0, r0, #400
 358 01a4 FFF7FEFF 		bl	_ZN10MotorDrive4FreeEv
 359              	.LVL23:
  68:src/mode/main_mode.cpp ****                   robot->dribbler_front.Hold(0);
 360              		.loc 1 68 19 is_stmt 1 view .LVU118
 361 01a8 6068     		ldr	r0, [r4, #4]
  68:src/mode/main_mode.cpp ****                   robot->dribbler_front.Hold(0);
 362              		.loc 1 68 45 is_stmt 0 view .LVU119
 363 01aa 0021     		movs	r1, #0
 364 01ac 00F58650 		add	r0, r0, #4288
 365 01b0 1030     		adds	r0, r0, #16
 366 01b2 FFF7FEFF 		bl	_ZN13DribblerDrive4HoldEh
 367              	.LVL24:
 368 01b6 B2E7     		b	.L8
 369              	.L33:
  71:src/mode/main_mode.cpp ****                         robot->motor.Drive(robot->info.Esp32.Wifi.move_dir, robot->info.Esp32.Wifi.
 370              		.loc 1 71 25 is_stmt 1 view .LVU120
  71:src/mode/main_mode.cpp ****                         robot->motor.Drive(robot->info.Esp32.Wifi.move_dir, robot->info.Esp32.Wifi.
 371              		.loc 1 71 43 is_stmt 0 view .LVU121
 372 01b8 90ED271A 		vldr.32	s2, [r0, #156]
 373 01bc B0F99820 		ldrsh	r2, [r0, #152]
 374 01c0 D0ED250A 		vldr.32	s1, [r0, #148]
 375 01c4 90ED240A 		vldr.32	s0, [r0, #144]
 376 01c8 B0F98E10 		ldrsh	r1, [r0, #142]
 377 01cc 00F5C870 		add	r0, r0, #400
 378 01d0 FFF7FEFF 		bl	_ZN10MotorDrive5DriveEsffsfh
 379              	.LVL25:
 380 01d4 D4E7     		b	.L20
 381              	.L34:
  73:src/mode/main_mode.cpp ****                         robot->motor.Drive(robot->info.Esp32.Wifi.move_dir, robot->info.Esp32.Wifi.
 382              		.loc 1 73 25 is_stmt 1 view .LVU122
  73:src/mode/main_mode.cpp ****                         robot->motor.Drive(robot->info.Esp32.Wifi.move_dir, robot->info.Esp32.Wifi.
 383              		.loc 1 73 43 is_stmt 0 view .LVU123
 384 01d6 90ED271A 		vldr.32	s2, [r0, #156]
 385 01da B0F99820 		ldrsh	r2, [r0, #152]
 386 01de D0ED250A 		vldr.32	s1, [r0, #148]
 387 01e2 90ED240A 		vldr.32	s0, [r0, #144]
 388 01e6 B0F98E10 		ldrsh	r1, [r0, #142]
 389 01ea 00F5C870 		add	r0, r0, #400
 390 01ee FFF7FEFF 		bl	_ZN10MotorDrive5DriveEsffsfh
 391              	.LVL26:
 392 01f2 C5E7     		b	.L20
 393              	.L35:
  75:src/mode/main_mode.cpp ****                         robot->motor.Drive(robot->info.Esp32.Wifi.move_dir, robot->info.Esp32.Wifi.
 394              		.loc 1 75 25 is_stmt 1 view .LVU124
  75:src/mode/main_mode.cpp ****                         robot->motor.Drive(robot->info.Esp32.Wifi.move_dir, robot->info.Esp32.Wifi.
 395              		.loc 1 75 43 is_stmt 0 view .LVU125
 396 01f4 0323     		movs	r3, #3
 397 01f6 90ED271A 		vldr.32	s2, [r0, #156]
 398 01fa B0F99820 		ldrsh	r2, [r0, #152]
 399 01fe D0ED250A 		vldr.32	s1, [r0, #148]
 400 0202 90ED240A 		vldr.32	s0, [r0, #144]
 401 0206 B0F98E10 		ldrsh	r1, [r0, #142]
 402 020a 00F5C870 		add	r0, r0, #400
ARM GAS  /var/folders/5c/srt4fy4j1pd641bjfx75k5000000gn/T//cchJmN28.s 			page 11


 403 020e FFF7FEFF 		bl	_ZN10MotorDrive5DriveEsffsfh
 404              	.LVL27:
 405 0212 B5E7     		b	.L20
 406              	.L36:
  78:src/mode/main_mode.cpp ****                         robot->kicker.Kick(robot->info.Esp32.Wifi.kick * 0.01);
 407              		.loc 1 78 25 is_stmt 1 view .LVU126
  78:src/mode/main_mode.cpp ****                         robot->kicker.Kick(robot->info.Esp32.Wifi.kick * 0.01);
 408              		.loc 1 78 72 is_stmt 0 view .LVU127
 409 0214 FFF7FEFF 		bl	__aeabi_i2d
 410              	.LVL28:
 411 0218 19A3     		adr	r3, .L37
 412 021a D3E90023 		ldrd	r2, [r3]
 413 021e FFF7FEFF 		bl	__aeabi_dmul
 414              	.LVL29:
  78:src/mode/main_mode.cpp ****                         robot->kicker.Kick(robot->info.Esp32.Wifi.kick * 0.01);
 415              		.loc 1 78 43 view .LVU128
 416 0222 FFF7FEFF 		bl	__aeabi_d2f
 417              	.LVL30:
 418 0226 00EE100A 		vmov	s0, r0
 419 022a 05F58850 		add	r0, r5, #4352
 420 022e FFF7FEFF 		bl	_ZN6Kicker4KickEf
 421              	.LVL31:
 422 0232 AAE7     		b	.L22
 423              	.L23:
  83:src/mode/main_mode.cpp ****                         robot->dribbler_front.Hold(0);
 424              		.loc 1 83 25 is_stmt 1 view .LVU129
  83:src/mode/main_mode.cpp ****                         robot->dribbler_front.Hold(0);
 425              		.loc 1 83 51 is_stmt 0 view .LVU130
 426 0234 0021     		movs	r1, #0
 427 0236 00F58650 		add	r0, r0, #4288
 428 023a 1030     		adds	r0, r0, #16
 429 023c FFF7FEFF 		bl	_ZN13DribblerDrive4HoldEh
 430              	.LVL32:
 431 0240 6DE7     		b	.L8
 432              	.L13:
  88:src/mode/main_mode.cpp ****             robot->motor.Drive(0);
 433              		.loc 1 88 13 is_stmt 1 view .LVU131
  88:src/mode/main_mode.cpp ****             robot->motor.Drive(0);
 434              		.loc 1 88 31 is_stmt 0 view .LVU132
 435 0242 9FED130A 		vldr.32	s0, .L37+16
 436 0246 0023     		movs	r3, #0
 437 0248 B0EE401A 		vmov.f32	s2, s0
 438 024c 1A46     		mov	r2, r3
 439 024e F0EE400A 		vmov.f32	s1, s0
 440 0252 1946     		mov	r1, r3
 441 0254 00F5C870 		add	r0, r0, #400
 442 0258 FFF7FEFF 		bl	_ZN10MotorDrive5DriveEsffsfh
 443              	.LVL33:
  89:src/mode/main_mode.cpp ****             robot->info.Ui.debug[0] = robot->info.motor_rad_s[1] * 100;
 444              		.loc 1 89 13 is_stmt 1 view .LVU133
  89:src/mode/main_mode.cpp ****             robot->info.Ui.debug[0] = robot->info.motor_rad_s[1] * 100;
 445              		.loc 1 89 39 is_stmt 0 view .LVU134
 446 025c 6368     		ldr	r3, [r4, #4]
  89:src/mode/main_mode.cpp ****             robot->info.Ui.debug[0] = robot->info.motor_rad_s[1] * 100;
 447              		.loc 1 89 64 view .LVU135
 448 025e D3ED027A 		vldr.32	s15, [r3, #8]
  89:src/mode/main_mode.cpp ****             robot->info.Ui.debug[0] = robot->info.motor_rad_s[1] * 100;
ARM GAS  /var/folders/5c/srt4fy4j1pd641bjfx75k5000000gn/T//cchJmN28.s 			page 12


 449              		.loc 1 89 66 view .LVU136
 450 0262 9FED0C7A 		vldr.32	s14, .L37+20
 451 0266 67EE877A 		vmul.f32	s15, s15, s14
  89:src/mode/main_mode.cpp ****             robot->info.Ui.debug[0] = robot->info.motor_rad_s[1] * 100;
 452              		.loc 1 89 37 view .LVU137
 453 026a FDEEE77A 		vcvt.s32.f32	s15, s15
 454 026e 17EE902A 		vmov	r2, s15	@ int
 455 0272 A3F84620 		strh	r2, [r3, #70]	@ movhi
  90:src/mode/main_mode.cpp ****             robot->info.Ui.debug[1] = 0;
 456              		.loc 1 90 13 is_stmt 1 view .LVU138
 457 0276 6368     		ldr	r3, [r4, #4]
  90:src/mode/main_mode.cpp ****             robot->info.Ui.debug[1] = 0;
 458              		.loc 1 90 37 is_stmt 0 view .LVU139
 459 0278 0022     		movs	r2, #0
 460 027a A3F84820 		strh	r2, [r3, #72]	@ movhi
 461 027e 4EE7     		b	.L8
 462              	.L38:
 463              		.align	3
 464              	.L37:
 465 0280 7B14AE47 		.word	1202590843
 466 0284 E17A843F 		.word	1065646817
 467 0288 BD378635 		.word	897988541
 468 028c 00000000 		.word	process_freq
 469 0290 00000000 		.word	0
 470 0294 0000C842 		.word	1120403456
 471              		.cfi_endproc
 472              	.LFE275:
 473              		.fnend
 475              		.global	encoder
 476              		.section	.bss.encoder,"aw",%nobits
 477              		.align	2
 480              	encoder:
 481 0000 00000000 		.space	16
 481      00000000 
 481      00000000 
 481      00000000 
 482              		.global	is_on_line
 483              		.section	.bss.is_on_line,"aw",%nobits
 484              		.align	2
 487              	is_on_line:
 488 0000 00000000 		.space	4
 489              		.global	line_dir
 490              		.section	.bss.line_dir,"aw",%nobits
 491              		.align	2
 494              	line_dir:
 495 0000 00000000 		.space	4
 496              		.global	process_freq
 497              		.section	.bss.process_freq,"aw",%nobits
 498              		.align	2
 501              	process_freq:
 502 0000 00000000 		.space	4
 503              		.global	voltage
 504              		.section	.bss.voltage,"aw",%nobits
 505              		.align	2
 508              	voltage:
 509 0000 00000000 		.space	4
 510              		.global	yaw
ARM GAS  /var/folders/5c/srt4fy4j1pd641bjfx75k5000000gn/T//cchJmN28.s 			page 13


 511              		.section	.bss.yaw,"aw",%nobits
 512              		.align	2
 515              	yaw:
 516 0000 00000000 		.space	4
 517              		.text
 518              	.Letext0:
 519              		.file 2 "/opt/ST/STM32CubeCLT_1.16.0/GNU-tools-for-STM32/arm-none-eabi/include/machine/_default_ty
 520              		.file 3 "/opt/ST/STM32CubeCLT_1.16.0/GNU-tools-for-STM32/lib/gcc/arm-none-eabi/12.3.1/include/stdd
 521              		.file 4 "/opt/ST/STM32CubeCLT_1.16.0/GNU-tools-for-STM32/arm-none-eabi/include/sys/_types.h"
 522              		.file 5 "/opt/ST/STM32CubeCLT_1.16.0/GNU-tools-for-STM32/arm-none-eabi/include/sys/reent.h"
 523              		.file 6 "/opt/ST/STM32CubeCLT_1.16.0/GNU-tools-for-STM32/arm-none-eabi/include/sys/lock.h"
 524              		.file 7 "/opt/ST/STM32CubeCLT_1.16.0/GNU-tools-for-STM32/arm-none-eabi/include/stdio.h"
 525              		.file 8 "/opt/ST/STM32CubeCLT_1.16.0/GNU-tools-for-STM32/arm-none-eabi/include/sys/_stdint.h"
 526              		.file 9 "Drivers/CMSIS/Device/ST/STM32F4xx/Include/stm32f446xx.h"
 527              		.file 10 "Drivers/CMSIS/Device/ST/STM32F4xx/Include/stm32f4xx.h"
 528              		.file 11 "Drivers/STM32F4xx_HAL_Driver/Inc/stm32f4xx_hal_def.h"
 529              		.file 12 "Drivers/STM32F4xx_HAL_Driver/Inc/stm32f4xx_hal_dma.h"
 530              		.file 13 "Drivers/STM32F4xx_HAL_Driver/Inc/stm32f4xx_hal_tim.h"
 531              		.file 14 "Drivers/STM32F4xx_HAL_Driver/Inc/stm32f4xx_hal_uart.h"
 532              		.file 15 "Drivers/STM32F4xx_HAL_Driver/Inc/stm32f4xx_hal.h"
 533              		.file 16 "Lib/BufferedSerial/BufferedSerial.hpp"
 534              		.file 17 "Lib/DigitalInOut/DigitalInOut.hpp"
 535              		.file 18 "Lib/MovingAve/MovingAve.hpp"
 536              		.file 19 "/opt/ST/STM32CubeCLT_1.16.0/GNU-tools-for-STM32/arm-none-eabi/include/c++/12.3.1/cstdio"
 537              		.file 20 "/opt/ST/STM32CubeCLT_1.16.0/GNU-tools-for-STM32/arm-none-eabi/include/c++/12.3.1/arm-non
 538              		.file 21 "Lib/PWMSingle/PWMSingle.hpp"
 539              		.file 22 "Lib/Timer/Timer.hpp"
 540              		.file 23 "src/unit/dribbler_drive/dribbler_drive.hpp"
 541              		.file 24 "src/unit/kicker/kicker.hpp"
 542              		.file 25 "Lib/pid/pid.hpp"
 543              		.file 26 "src/unit/motor_drive/motor_drive.hpp"
 544              		.file 27 "src/unit/robot/robot.hpp"
 545              		.file 28 "src/mode/mode.hpp"
ARM GAS  /var/folders/5c/srt4fy4j1pd641bjfx75k5000000gn/T//cchJmN28.s 			page 14


DEFINED SYMBOLS
                            *ABS*:00000000 main_mode.cpp
/var/folders/5c/srt4fy4j1pd641bjfx75k5000000gn/T//cchJmN28.s:24     .text._ZN4Mode8MainModeEv:00000000 $t
/var/folders/5c/srt4fy4j1pd641bjfx75k5000000gn/T//cchJmN28.s:30     .text._ZN4Mode8MainModeEv:00000000 _ZN4Mode8MainModeEv
/var/folders/5c/srt4fy4j1pd641bjfx75k5000000gn/T//cchJmN28.s:160    .text._ZN4Mode8MainModeEv:0000008a $d
/var/folders/5c/srt4fy4j1pd641bjfx75k5000000gn/T//cchJmN28.s:164    .text._ZN4Mode8MainModeEv:0000008e $t
/var/folders/5c/srt4fy4j1pd641bjfx75k5000000gn/T//cchJmN28.s:465    .text._ZN4Mode8MainModeEv:00000280 $d
/var/folders/5c/srt4fy4j1pd641bjfx75k5000000gn/T//cchJmN28.s:501    .bss.process_freq:00000000 process_freq
.ARM.exidx.text._ZN4Mode8MainModeEv:00000000 $d
/var/folders/5c/srt4fy4j1pd641bjfx75k5000000gn/T//cchJmN28.s:480    .bss.encoder:00000000 encoder
/var/folders/5c/srt4fy4j1pd641bjfx75k5000000gn/T//cchJmN28.s:477    .bss.encoder:00000000 $d
/var/folders/5c/srt4fy4j1pd641bjfx75k5000000gn/T//cchJmN28.s:487    .bss.is_on_line:00000000 is_on_line
/var/folders/5c/srt4fy4j1pd641bjfx75k5000000gn/T//cchJmN28.s:484    .bss.is_on_line:00000000 $d
/var/folders/5c/srt4fy4j1pd641bjfx75k5000000gn/T//cchJmN28.s:494    .bss.line_dir:00000000 line_dir
/var/folders/5c/srt4fy4j1pd641bjfx75k5000000gn/T//cchJmN28.s:491    .bss.line_dir:00000000 $d
/var/folders/5c/srt4fy4j1pd641bjfx75k5000000gn/T//cchJmN28.s:498    .bss.process_freq:00000000 $d
/var/folders/5c/srt4fy4j1pd641bjfx75k5000000gn/T//cchJmN28.s:508    .bss.voltage:00000000 voltage
/var/folders/5c/srt4fy4j1pd641bjfx75k5000000gn/T//cchJmN28.s:505    .bss.voltage:00000000 $d
/var/folders/5c/srt4fy4j1pd641bjfx75k5000000gn/T//cchJmN28.s:515    .bss.yaw:00000000 yaw
/var/folders/5c/srt4fy4j1pd641bjfx75k5000000gn/T//cchJmN28.s:512    .bss.yaw:00000000 $d

UNDEFINED SYMBOLS
__aeabi_i2d
__aeabi_dmul
__aeabi_d2f
_ZN5Timer5resetEv
_ZN5Robot7ImuUartEv
_ZN5Robot8LineUartEv
_ZN5Robot6UiUartEv
_ZN5Robot7CamUartEv
_ZN5Robot9Esp32UartEv
_ZN5Robot10GetSensorsEv
_ZN10MotorDrive4FreeEv
_ZN13DribblerDrive4HoldEh
_ZN6Kicker4KickEf
_ZN4Mode7OffenceEv
_ZN5Timer7read_usEv
_ZN4Mode7DefenceEv
_ZN10MotorDrive5DriveEsffsfh
__aeabi_unwind_cpp_pr0
