ARM GAS  /var/folders/5c/srt4fy4j1pd641bjfx75k5000000gn/T//ccfbDWTV.s 			page 1


   1              		.cpu cortex-m4
   2              		.arch armv7e-m
   3              		.fpu fpv4-sp-d16
   4              		.eabi_attribute 27, 1
   5              		.eabi_attribute 28, 1
   6              		.eabi_attribute 20, 1
   7              		.eabi_attribute 21, 1
   8              		.eabi_attribute 23, 3
   9              		.eabi_attribute 24, 1
  10              		.eabi_attribute 25, 1
  11              		.eabi_attribute 26, 1
  12              		.eabi_attribute 30, 1
  13              		.eabi_attribute 34, 1
  14              		.eabi_attribute 18, 4
  15              		.file	"motor_drive.cpp"
  16              		.text
  17              	.Ltext0:
  18              		.cfi_sections	.debug_frame
  19              		.file 1 "src/unit/motor_drive/motor_drive.cpp"
  20              		.section	.text._ZN12PwmSingleOut4initEv,"axG",%progbits,_ZN12PwmSingleOut4initEv,comdat
  21              		.align	1
  22              		.weak	_ZN12PwmSingleOut4initEv
  23              		.syntax unified
  24              		.thumb
  25              		.thumb_func
  27              	_ZN12PwmSingleOut4initEv:
  28              		.fnstart
  29              	.LVL0:
  30              	.LFB245:
  31              		.file 2 "Lib/PWMSingle/PWMSingle.hpp"
   1:Lib/PWMSingle/PWMSingle.hpp **** #ifndef __PWMSINGLE__
   2:Lib/PWMSingle/PWMSingle.hpp **** #define __PWMSINGLE__
   3:Lib/PWMSingle/PWMSingle.hpp **** 
   4:Lib/PWMSingle/PWMSingle.hpp **** #include "MyMath.hpp"
   5:Lib/PWMSingle/PWMSingle.hpp **** #include "tim.h"
   6:Lib/PWMSingle/PWMSingle.hpp **** 
   7:Lib/PWMSingle/PWMSingle.hpp **** #ifdef __cplusplus
   8:Lib/PWMSingle/PWMSingle.hpp **** extern "C" {
   9:Lib/PWMSingle/PWMSingle.hpp **** 
  10:Lib/PWMSingle/PWMSingle.hpp **** class PwmSingleOut {
  11:Lib/PWMSingle/PWMSingle.hpp ****      public:
  12:Lib/PWMSingle/PWMSingle.hpp ****       PwmSingleOut(TIM_HandleTypeDef *htim, uint32_t channel)
  13:Lib/PWMSingle/PWMSingle.hpp ****           : _htim(htim), _channel(channel), _maxValue(_htim->Init.Period) {
  14:Lib/PWMSingle/PWMSingle.hpp ****       }
  15:Lib/PWMSingle/PWMSingle.hpp **** 
  16:Lib/PWMSingle/PWMSingle.hpp ****       void init() {
  32              		.loc 2 16 12 view -0
  33              		.cfi_startproc
  34              		@ args = 0, pretend = 0, frame = 0
  35              		@ frame_needed = 0, uses_anonymous_args = 0
  36              		.loc 2 16 12 is_stmt 0 view .LVU1
  37 0000 10B5     		push	{r4, lr}
  38              		.save {r4, lr}
  39              	.LCFI0:
  40              		.cfi_def_cfa_offset 8
  41              		.cfi_offset 4, -8
  42              		.cfi_offset 14, -4
ARM GAS  /var/folders/5c/srt4fy4j1pd641bjfx75k5000000gn/T//ccfbDWTV.s 			page 2


  43 0002 0446     		mov	r4, r0
  17:Lib/PWMSingle/PWMSingle.hpp ****             HAL_TIM_PWM_Start(_htim, _channel);
  44              		.loc 2 17 13 is_stmt 1 view .LVU2
  45              		.loc 2 17 30 is_stmt 0 view .LVU3
  46 0004 4168     		ldr	r1, [r0, #4]
  47 0006 0068     		ldr	r0, [r0]
  48              	.LVL1:
  49              		.loc 2 17 30 view .LVU4
  50 0008 FFF7FEFF 		bl	HAL_TIM_PWM_Start
  51              	.LVL2:
  18:Lib/PWMSingle/PWMSingle.hpp ****             _maxValue = _htim->Init.Period;
  52              		.loc 2 18 13 is_stmt 1 view .LVU5
  53              		.loc 2 18 25 is_stmt 0 view .LVU6
  54 000c 2368     		ldr	r3, [r4]
  55              		.loc 2 18 37 view .LVU7
  56 000e DB68     		ldr	r3, [r3, #12]
  57              		.loc 2 18 23 view .LVU8
  58 0010 A360     		str	r3, [r4, #8]
  19:Lib/PWMSingle/PWMSingle.hpp ****       }
  59              		.loc 2 19 7 view .LVU9
  60 0012 10BD     		pop	{r4, pc}
  61              		.loc 2 19 7 view .LVU10
  62              		.cfi_endproc
  63              	.LFE245:
  64              		.fnend
  66              		.global	__aeabi_f2d
  67              		.global	__aeabi_ui2d
  68              		.global	__aeabi_dmul
  69              		.global	__aeabi_d2iz
  70              		.section	.text._ZN12PwmSingleOut5writeEf,"axG",%progbits,_ZN12PwmSingleOut5writeEf,comdat
  71              		.align	1
  72              		.weak	_ZN12PwmSingleOut5writeEf
  73              		.syntax unified
  74              		.thumb
  75              		.thumb_func
  77              	_ZN12PwmSingleOut5writeEf:
  78              		.fnstart
  79              	.LVL3:
  80              	.LFB246:
  20:Lib/PWMSingle/PWMSingle.hpp **** 
  21:Lib/PWMSingle/PWMSingle.hpp ****       void write(float duty) {
  81              		.loc 2 21 12 is_stmt 1 view -0
  82              		.cfi_startproc
  83              		@ args = 0, pretend = 0, frame = 0
  84              		@ frame_needed = 0, uses_anonymous_args = 0
  85              		.loc 2 21 12 is_stmt 0 view .LVU12
  86 0000 D0B5     		push	{r4, r6, r7, lr}
  87              	.LCFI1:
  88              		.cfi_def_cfa_offset 16
  89              		.cfi_offset 4, -16
  90              		.cfi_offset 6, -12
  91              		.cfi_offset 7, -8
  92              		.cfi_offset 14, -4
  93 0002 0446     		mov	r4, r0
  22:Lib/PWMSingle/PWMSingle.hpp ****             duty = (int)(Constrain(duty, 0.0, 1.0) * _maxValue);
  94              		.loc 2 22 13 is_stmt 1 view .LVU13
  95              		.loc 2 22 26 is_stmt 0 view .LVU14
ARM GAS  /var/folders/5c/srt4fy4j1pd641bjfx75k5000000gn/T//ccfbDWTV.s 			page 3


  96 0004 B5EEC00A 		vcmpe.f32	s0, #0
  97 0008 F1EE10FA 		vmrs	APSR_nzcv, FPSCR
  98 000c 10D4     		bmi	.L9
  99              		.loc 2 22 26 discriminator 2 view .LVU15
 100 000e F7EE007A 		vmov.f32	s15, #1.0e+0
 101 0012 B4EEE70A 		vcmpe.f32	s0, s15
 102 0016 F1EE10FA 		vmrs	APSR_nzcv, FPSCR
 103 001a 02DD     		ble	.L12
 104              		.loc 2 22 26 view .LVU16
 105 001c 0026     		movs	r6, #0
 106 001e 1D4F     		ldr	r7, .L15
 107 0020 08E0     		b	.L4
 108              	.L12:
 109              		.loc 2 22 26 discriminator 5 view .LVU17
 110 0022 10EE100A 		vmov	r0, s0
 111              	.LVL4:
 112              		.loc 2 22 26 discriminator 5 view .LVU18
 113 0026 FFF7FEFF 		bl	__aeabi_f2d
 114              	.LVL5:
 115              		.loc 2 22 26 discriminator 5 view .LVU19
 116 002a 0646     		mov	r6, r0
 117 002c 0F46     		mov	r7, r1
 118 002e 01E0     		b	.L4
 119              	.LVL6:
 120              	.L9:
 121              		.loc 2 22 26 view .LVU20
 122 0030 0026     		movs	r6, #0
 123 0032 0027     		movs	r7, #0
 124              	.LVL7:
 125              	.L4:
 126              		.loc 2 22 52 discriminator 8 view .LVU21
 127 0034 A068     		ldr	r0, [r4, #8]
 128 0036 FFF7FEFF 		bl	__aeabi_ui2d
 129              	.LVL8:
 130 003a 3246     		mov	r2, r6
 131 003c 3B46     		mov	r3, r7
 132 003e FFF7FEFF 		bl	__aeabi_dmul
 133              	.LVL9:
 134              		.loc 2 22 20 discriminator 8 view .LVU22
 135 0042 FFF7FEFF 		bl	__aeabi_d2iz
 136              	.LVL10:
 137 0046 07EE900A 		vmov	s15, r0	@ int
 138              		.loc 2 22 18 discriminator 8 view .LVU23
 139 004a F8EEE77A 		vcvt.f32.s32	s15, s15
 140              	.LVL11:
  23:Lib/PWMSingle/PWMSingle.hpp ****             __HAL_TIM_SET_COMPARE(_htim, _channel, duty);
 141              		.loc 2 23 13 is_stmt 1 discriminator 8 view .LVU24
 142 004e 6368     		ldr	r3, [r4, #4]
 143 0050 33B9     		cbnz	r3, .L5
 144              		.loc 2 23 13 is_stmt 0 discriminator 1 view .LVU25
 145 0052 2368     		ldr	r3, [r4]
 146 0054 1B68     		ldr	r3, [r3]
 147 0056 FCEEE77A 		vcvt.u32.f32	s15, s15
 148              	.LVL12:
 149              		.loc 2 23 13 discriminator 1 view .LVU26
 150 005a C3ED0D7A 		vstr.32	s15, [r3, #52]	@ int
 151              	.L3:
ARM GAS  /var/folders/5c/srt4fy4j1pd641bjfx75k5000000gn/T//ccfbDWTV.s 			page 4


  24:Lib/PWMSingle/PWMSingle.hpp ****       }
 152              		.loc 2 24 7 view .LVU27
 153 005e D0BD     		pop	{r4, r6, r7, pc}
 154              	.LVL13:
 155              	.L5:
  23:Lib/PWMSingle/PWMSingle.hpp ****             __HAL_TIM_SET_COMPARE(_htim, _channel, duty);
 156              		.loc 2 23 13 discriminator 2 view .LVU28
 157 0060 042B     		cmp	r3, #4
 158 0062 08D0     		beq	.L13
  23:Lib/PWMSingle/PWMSingle.hpp ****             __HAL_TIM_SET_COMPARE(_htim, _channel, duty);
 159              		.loc 2 23 13 discriminator 4 view .LVU29
 160 0064 082B     		cmp	r3, #8
 161 0066 0DD0     		beq	.L14
  23:Lib/PWMSingle/PWMSingle.hpp ****             __HAL_TIM_SET_COMPARE(_htim, _channel, duty);
 162              		.loc 2 23 13 discriminator 6 view .LVU30
 163 0068 2368     		ldr	r3, [r4]
 164 006a 1B68     		ldr	r3, [r3]
 165 006c FCEEE77A 		vcvt.u32.f32	s15, s15
 166              	.LVL14:
  23:Lib/PWMSingle/PWMSingle.hpp ****             __HAL_TIM_SET_COMPARE(_htim, _channel, duty);
 167              		.loc 2 23 13 discriminator 6 view .LVU31
 168 0070 C3ED107A 		vstr.32	s15, [r3, #64]	@ int
 169              		.loc 2 24 7 discriminator 6 view .LVU32
 170 0074 F3E7     		b	.L3
 171              	.LVL15:
 172              	.L13:
  23:Lib/PWMSingle/PWMSingle.hpp ****             __HAL_TIM_SET_COMPARE(_htim, _channel, duty);
 173              		.loc 2 23 13 discriminator 3 view .LVU33
 174 0076 2368     		ldr	r3, [r4]
 175 0078 1B68     		ldr	r3, [r3]
 176 007a FCEEE77A 		vcvt.u32.f32	s15, s15
 177              	.LVL16:
  23:Lib/PWMSingle/PWMSingle.hpp ****             __HAL_TIM_SET_COMPARE(_htim, _channel, duty);
 178              		.loc 2 23 13 discriminator 3 view .LVU34
 179 007e C3ED0E7A 		vstr.32	s15, [r3, #56]	@ int
 180 0082 ECE7     		b	.L3
 181              	.LVL17:
 182              	.L14:
  23:Lib/PWMSingle/PWMSingle.hpp ****             __HAL_TIM_SET_COMPARE(_htim, _channel, duty);
 183              		.loc 2 23 13 discriminator 5 view .LVU35
 184 0084 2368     		ldr	r3, [r4]
 185 0086 1B68     		ldr	r3, [r3]
 186 0088 FCEEE77A 		vcvt.u32.f32	s15, s15
 187              	.LVL18:
  23:Lib/PWMSingle/PWMSingle.hpp ****             __HAL_TIM_SET_COMPARE(_htim, _channel, duty);
 188              		.loc 2 23 13 discriminator 5 view .LVU36
 189 008c C3ED0F7A 		vstr.32	s15, [r3, #60]	@ int
 190 0090 E5E7     		b	.L3
 191              	.L16:
 192 0092 00BF     		.align	2
 193              	.L15:
 194 0094 0000F03F 		.word	1072693248
 195              		.cfi_endproc
 196              	.LFE246:
 197              		.cantunwind
 198              		.fnend
 200              		.section	.text._ZN12PwmSingleOut5soundEtt,"axG",%progbits,_ZN12PwmSingleOut5soundEtt,comdat
ARM GAS  /var/folders/5c/srt4fy4j1pd641bjfx75k5000000gn/T//ccfbDWTV.s 			page 5


 201              		.align	1
 202              		.weak	_ZN12PwmSingleOut5soundEtt
 203              		.syntax unified
 204              		.thumb
 205              		.thumb_func
 207              	_ZN12PwmSingleOut5soundEtt:
 208              		.fnstart
 209              	.LVL19:
 210              	.LFB248:
  25:Lib/PWMSingle/PWMSingle.hpp **** 
  26:Lib/PWMSingle/PWMSingle.hpp ****       void operator=(float duty) {
  27:Lib/PWMSingle/PWMSingle.hpp ****             write(duty);
  28:Lib/PWMSingle/PWMSingle.hpp ****       }
  29:Lib/PWMSingle/PWMSingle.hpp **** 
  30:Lib/PWMSingle/PWMSingle.hpp ****       void sound(uint16_t period, uint16_t time) {
 211              		.loc 2 30 12 is_stmt 1 view -0
 212              		.cfi_startproc
 213              		@ args = 0, pretend = 0, frame = 0
 214              		@ frame_needed = 0, uses_anonymous_args = 0
 215              		.loc 2 30 12 is_stmt 0 view .LVU38
 216 0000 2DE9F041 		push	{r4, r5, r6, r7, r8, lr}
 217              		.save {r4, r5, r6, r7, r8, lr}
 218              	.LCFI2:
 219              		.cfi_def_cfa_offset 24
 220              		.cfi_offset 4, -24
 221              		.cfi_offset 5, -20
 222              		.cfi_offset 6, -16
 223              		.cfi_offset 7, -12
 224              		.cfi_offset 8, -8
 225              		.cfi_offset 14, -4
 226 0004 0446     		mov	r4, r0
 227 0006 1546     		mov	r5, r2
  31:Lib/PWMSingle/PWMSingle.hpp ****             // 周波数変更
  32:Lib/PWMSingle/PWMSingle.hpp ****             int default_prescaler = _htim->Init.Prescaler;
 228              		.loc 2 32 13 is_stmt 1 view .LVU39
 229              		.loc 2 32 37 is_stmt 0 view .LVU40
 230 0008 0368     		ldr	r3, [r0]
 231              		.loc 2 32 49 view .LVU41
 232 000a 5F68     		ldr	r7, [r3, #4]
 233              	.LVL20:
  33:Lib/PWMSingle/PWMSingle.hpp ****             int default_period = _htim->Init.Period;
 234              		.loc 2 33 13 is_stmt 1 view .LVU42
 235              		.loc 2 33 46 is_stmt 0 view .LVU43
 236 000c DE68     		ldr	r6, [r3, #12]
 237              	.LVL21:
  34:Lib/PWMSingle/PWMSingle.hpp ****             _htim->Init.Prescaler = 9;
 238              		.loc 2 34 13 is_stmt 1 view .LVU44
 239              		.loc 2 34 35 is_stmt 0 view .LVU45
 240 000e 0922     		movs	r2, #9
 241              	.LVL22:
 242              		.loc 2 34 35 view .LVU46
 243 0010 5A60     		str	r2, [r3, #4]
  35:Lib/PWMSingle/PWMSingle.hpp ****             _htim->Init.Period = (SystemCoreClock / (period * (_htim->Init.Prescaler + 1))) - 1;
 244              		.loc 2 35 13 is_stmt 1 view .LVU47
 245              		.loc 2 35 64 is_stmt 0 view .LVU48
 246 0012 0268     		ldr	r2, [r0]
 247              		.loc 2 35 76 view .LVU49
ARM GAS  /var/folders/5c/srt4fy4j1pd641bjfx75k5000000gn/T//ccfbDWTV.s 			page 6


 248 0014 5368     		ldr	r3, [r2, #4]
 249              		.loc 2 35 61 view .LVU50
 250 0016 03FB0111 		mla	r1, r3, r1, r1
 251              	.LVL23:
 252              		.loc 2 35 51 view .LVU51
 253 001a 374B     		ldr	r3, .L35+8
 254 001c 1B68     		ldr	r3, [r3]
 255 001e B3FBF1F3 		udiv	r3, r3, r1
 256              		.loc 2 35 93 view .LVU52
 257 0022 013B     		subs	r3, r3, #1
 258              		.loc 2 35 32 view .LVU53
 259 0024 D360     		str	r3, [r2, #12]
  36:Lib/PWMSingle/PWMSingle.hpp ****             if (HAL_TIM_Base_Init(_htim) != HAL_OK) {
 260              		.loc 2 36 13 is_stmt 1 view .LVU54
 261              		.loc 2 36 34 is_stmt 0 view .LVU55
 262 0026 0068     		ldr	r0, [r0]
 263              	.LVL24:
 264              		.loc 2 36 34 view .LVU56
 265 0028 FFF7FEFF 		bl	HAL_TIM_Base_Init
 266              	.LVL25:
 267              		.loc 2 36 13 view .LVU57
 268 002c 58BB     		cbnz	r0, .L29
 269              	.L18:
  37:Lib/PWMSingle/PWMSingle.hpp ****                   Error_Handler();
  38:Lib/PWMSingle/PWMSingle.hpp ****             }
  39:Lib/PWMSingle/PWMSingle.hpp **** 
  40:Lib/PWMSingle/PWMSingle.hpp ****             float duty = (int)(0.1 * _htim->Init.Period);  // duty比を0.5にする
 270              		.loc 2 40 13 is_stmt 1 view .LVU58
 271              		.loc 2 40 38 is_stmt 0 view .LVU59
 272 002e D4F80080 		ldr	r8, [r4]
 273              		.loc 2 40 36 view .LVU60
 274 0032 D8F80C00 		ldr	r0, [r8, #12]
 275 0036 FFF7FEFF 		bl	__aeabi_ui2d
 276              	.LVL26:
 277 003a 2DA3     		adr	r3, .L35
 278 003c D3E90023 		ldrd	r2, [r3]
 279 0040 FFF7FEFF 		bl	__aeabi_dmul
 280              	.LVL27:
 281              		.loc 2 40 26 view .LVU61
 282 0044 FFF7FEFF 		bl	__aeabi_d2iz
 283              	.LVL28:
 284 0048 07EE900A 		vmov	s15, r0	@ int
 285              		.loc 2 40 19 view .LVU62
 286 004c F8EEE77A 		vcvt.f32.s32	s15, s15
 287              	.LVL29:
  41:Lib/PWMSingle/PWMSingle.hpp **** 
  42:Lib/PWMSingle/PWMSingle.hpp ****             // 出力
  43:Lib/PWMSingle/PWMSingle.hpp ****             __HAL_TIM_SET_COMPARE(_htim, _channel, duty);
 288              		.loc 2 43 13 is_stmt 1 view .LVU63
 289 0050 6368     		ldr	r3, [r4, #4]
 290 0052 DBB9     		cbnz	r3, .L19
 291              		.loc 2 43 13 is_stmt 0 discriminator 1 view .LVU64
 292 0054 D8F80030 		ldr	r3, [r8]
 293 0058 FCEEE77A 		vcvt.u32.f32	s15, s15
 294              	.LVL30:
 295              		.loc 2 43 13 discriminator 1 view .LVU65
 296 005c C3ED0D7A 		vstr.32	s15, [r3, #52]	@ int
ARM GAS  /var/folders/5c/srt4fy4j1pd641bjfx75k5000000gn/T//ccfbDWTV.s 			page 7


 297              	.L20:
  44:Lib/PWMSingle/PWMSingle.hpp ****             HAL_Delay(time);
 298              		.loc 2 44 13 is_stmt 1 view .LVU66
 299              		.loc 2 44 22 is_stmt 0 view .LVU67
 300 0060 2846     		mov	r0, r5
 301              	.LVL31:
 302              		.loc 2 44 22 view .LVU68
 303 0062 FFF7FEFF 		bl	HAL_Delay
 304              	.LVL32:
  45:Lib/PWMSingle/PWMSingle.hpp ****             __HAL_TIM_SET_COMPARE(_htim, _channel, 0);
 305              		.loc 2 45 13 is_stmt 1 view .LVU69
 306 0066 6368     		ldr	r3, [r4, #4]
 307 0068 4BBB     		cbnz	r3, .L23
 308              		.loc 2 45 13 is_stmt 0 discriminator 1 view .LVU70
 309 006a 2368     		ldr	r3, [r4]
 310 006c 1B68     		ldr	r3, [r3]
 311 006e 0022     		movs	r2, #0
 312 0070 5A63     		str	r2, [r3, #52]
 313              	.L24:
  46:Lib/PWMSingle/PWMSingle.hpp ****             _htim->Init.Prescaler = default_prescaler;
 314              		.loc 2 46 13 is_stmt 1 view .LVU71
 315 0072 2368     		ldr	r3, [r4]
 316              		.loc 2 46 35 is_stmt 0 view .LVU72
 317 0074 5F60     		str	r7, [r3, #4]
  47:Lib/PWMSingle/PWMSingle.hpp ****             _htim->Init.Period = default_period;
 318              		.loc 2 47 13 is_stmt 1 view .LVU73
 319 0076 2368     		ldr	r3, [r4]
 320              		.loc 2 47 32 is_stmt 0 view .LVU74
 321 0078 DE60     		str	r6, [r3, #12]
  48:Lib/PWMSingle/PWMSingle.hpp ****             if (HAL_TIM_Base_Init(_htim) != HAL_OK) {
 322              		.loc 2 48 13 is_stmt 1 view .LVU75
 323              		.loc 2 48 34 is_stmt 0 view .LVU76
 324 007a 2068     		ldr	r0, [r4]
 325 007c FFF7FEFF 		bl	HAL_TIM_Base_Init
 326              	.LVL33:
 327              		.loc 2 48 13 view .LVU77
 328 0080 80BB     		cbnz	r0, .L30
 329              	.L17:
  49:Lib/PWMSingle/PWMSingle.hpp ****                   Error_Handler();
  50:Lib/PWMSingle/PWMSingle.hpp ****             }
  51:Lib/PWMSingle/PWMSingle.hpp ****       }
 330              		.loc 2 51 7 view .LVU78
 331 0082 BDE8F081 		pop	{r4, r5, r6, r7, r8, pc}
 332              	.LVL34:
 333              	.L29:
  37:Lib/PWMSingle/PWMSingle.hpp ****             }
 334              		.loc 2 37 19 is_stmt 1 view .LVU79
  37:Lib/PWMSingle/PWMSingle.hpp ****             }
 335              		.loc 2 37 32 is_stmt 0 view .LVU80
 336 0086 FFF7FEFF 		bl	Error_Handler
 337              	.LVL35:
 338 008a D0E7     		b	.L18
 339              	.LVL36:
 340              	.L19:
  43:Lib/PWMSingle/PWMSingle.hpp ****             HAL_Delay(time);
 341              		.loc 2 43 13 discriminator 2 view .LVU81
 342 008c 042B     		cmp	r3, #4
ARM GAS  /var/folders/5c/srt4fy4j1pd641bjfx75k5000000gn/T//ccfbDWTV.s 			page 8


 343 008e 08D0     		beq	.L31
  43:Lib/PWMSingle/PWMSingle.hpp ****             HAL_Delay(time);
 344              		.loc 2 43 13 discriminator 4 view .LVU82
 345 0090 082B     		cmp	r3, #8
 346 0092 0DD0     		beq	.L32
  43:Lib/PWMSingle/PWMSingle.hpp ****             HAL_Delay(time);
 347              		.loc 2 43 13 discriminator 6 view .LVU83
 348 0094 D8F80030 		ldr	r3, [r8]
 349 0098 FCEEE77A 		vcvt.u32.f32	s15, s15
 350              	.LVL37:
  43:Lib/PWMSingle/PWMSingle.hpp ****             HAL_Delay(time);
 351              		.loc 2 43 13 discriminator 6 view .LVU84
 352 009c C3ED107A 		vstr.32	s15, [r3, #64]	@ int
 353 00a0 DEE7     		b	.L20
 354              	.LVL38:
 355              	.L31:
  43:Lib/PWMSingle/PWMSingle.hpp ****             HAL_Delay(time);
 356              		.loc 2 43 13 discriminator 3 view .LVU85
 357 00a2 D8F80030 		ldr	r3, [r8]
 358 00a6 FCEEE77A 		vcvt.u32.f32	s15, s15
 359              	.LVL39:
  43:Lib/PWMSingle/PWMSingle.hpp ****             HAL_Delay(time);
 360              		.loc 2 43 13 discriminator 3 view .LVU86
 361 00aa C3ED0E7A 		vstr.32	s15, [r3, #56]	@ int
 362 00ae D7E7     		b	.L20
 363              	.LVL40:
 364              	.L32:
  43:Lib/PWMSingle/PWMSingle.hpp ****             HAL_Delay(time);
 365              		.loc 2 43 13 discriminator 5 view .LVU87
 366 00b0 D8F80030 		ldr	r3, [r8]
 367 00b4 FCEEE77A 		vcvt.u32.f32	s15, s15
 368              	.LVL41:
  43:Lib/PWMSingle/PWMSingle.hpp ****             HAL_Delay(time);
 369              		.loc 2 43 13 discriminator 5 view .LVU88
 370 00b8 C3ED0F7A 		vstr.32	s15, [r3, #60]	@ int
 371 00bc D0E7     		b	.L20
 372              	.LVL42:
 373              	.L23:
  45:Lib/PWMSingle/PWMSingle.hpp ****             _htim->Init.Prescaler = default_prescaler;
 374              		.loc 2 45 13 discriminator 2 view .LVU89
 375 00be 042B     		cmp	r3, #4
 376 00c0 06D0     		beq	.L33
  45:Lib/PWMSingle/PWMSingle.hpp ****             _htim->Init.Prescaler = default_prescaler;
 377              		.loc 2 45 13 discriminator 4 view .LVU90
 378 00c2 082B     		cmp	r3, #8
 379 00c4 09D0     		beq	.L34
  45:Lib/PWMSingle/PWMSingle.hpp ****             _htim->Init.Prescaler = default_prescaler;
 380              		.loc 2 45 13 discriminator 6 view .LVU91
 381 00c6 2368     		ldr	r3, [r4]
 382 00c8 1B68     		ldr	r3, [r3]
 383 00ca 0022     		movs	r2, #0
 384 00cc 1A64     		str	r2, [r3, #64]
 385 00ce D0E7     		b	.L24
 386              	.L33:
  45:Lib/PWMSingle/PWMSingle.hpp ****             _htim->Init.Prescaler = default_prescaler;
 387              		.loc 2 45 13 discriminator 3 view .LVU92
 388 00d0 2368     		ldr	r3, [r4]
ARM GAS  /var/folders/5c/srt4fy4j1pd641bjfx75k5000000gn/T//ccfbDWTV.s 			page 9


 389 00d2 1B68     		ldr	r3, [r3]
 390 00d4 0022     		movs	r2, #0
 391 00d6 9A63     		str	r2, [r3, #56]
 392 00d8 CBE7     		b	.L24
 393              	.L34:
  45:Lib/PWMSingle/PWMSingle.hpp ****             _htim->Init.Prescaler = default_prescaler;
 394              		.loc 2 45 13 discriminator 5 view .LVU93
 395 00da 2368     		ldr	r3, [r4]
 396 00dc 1B68     		ldr	r3, [r3]
 397 00de 0022     		movs	r2, #0
 398 00e0 DA63     		str	r2, [r3, #60]
 399 00e2 C6E7     		b	.L24
 400              	.L30:
  49:Lib/PWMSingle/PWMSingle.hpp ****             }
 401              		.loc 2 49 19 is_stmt 1 view .LVU94
  49:Lib/PWMSingle/PWMSingle.hpp ****             }
 402              		.loc 2 49 32 is_stmt 0 view .LVU95
 403 00e4 FFF7FEFF 		bl	Error_Handler
 404              	.LVL43:
 405              		.loc 2 51 7 view .LVU96
 406 00e8 CBE7     		b	.L17
 407              	.L36:
 408 00ea 00BFAFF3 		.align	3
 408      0080
 409              	.L35:
 410 00f0 9A999999 		.word	-1717986918
 411 00f4 9999B93F 		.word	1069128089
 412 00f8 00000000 		.word	SystemCoreClock
 413              		.cfi_endproc
 414              	.LFE248:
 415              		.fnend
 417              		.section	.text._ZN10MotorDriveC2EP12PwmSingleOutS1_S1_S1_S1_S1_S1_S1_PsS2_Pf,"ax",%progbits
 418              		.align	1
 419              		.global	_ZN10MotorDriveC2EP12PwmSingleOutS1_S1_S1_S1_S1_S1_S1_PsS2_Pf
 420              		.syntax unified
 421              		.thumb
 422              		.thumb_func
 424              	_ZN10MotorDriveC2EP12PwmSingleOutS1_S1_S1_S1_S1_S1_S1_PsS2_Pf:
 425              		.fnstart
 426              	.LVL44:
 427              	.LFB250:
   1:src/unit/motor_drive/motor_drive.cpp **** #include "motor_drive.hpp"
   2:src/unit/motor_drive/motor_drive.cpp **** 
   3:src/unit/motor_drive/motor_drive.cpp **** MotorDrive::MotorDrive(PwmSingleOut *motor1a, PwmSingleOut *motor1b,
 428              		.loc 1 3 1 is_stmt 1 view -0
 429              		.cfi_startproc
 430              		@ args = 32, pretend = 0, frame = 0
 431              		@ frame_needed = 0, uses_anonymous_args = 0
 432              		.loc 1 3 1 is_stmt 0 view .LVU98
 433 0000 F8B5     		push	{r3, r4, r5, r6, r7, lr}
 434              		.save {r3, r4, r5, r6, r7, lr}
 435              	.LCFI3:
 436              		.cfi_def_cfa_offset 24
 437              		.cfi_offset 3, -24
 438              		.cfi_offset 4, -20
 439              		.cfi_offset 5, -16
 440              		.cfi_offset 6, -12
ARM GAS  /var/folders/5c/srt4fy4j1pd641bjfx75k5000000gn/T//ccfbDWTV.s 			page 10


 441              		.cfi_offset 7, -8
 442              		.cfi_offset 14, -4
 443 0002 0646     		mov	r6, r0
 444              	.LBB2:
   4:src/unit/motor_drive/motor_drive.cpp ****                        PwmSingleOut *motor2a, PwmSingleOut *motor2b,
   5:src/unit/motor_drive/motor_drive.cpp ****                        PwmSingleOut *motor3a, PwmSingleOut *motor3b,
   6:src/unit/motor_drive/motor_drive.cpp ****                        PwmSingleOut *motor4a, PwmSingleOut *motor4b,
   7:src/unit/motor_drive/motor_drive.cpp ****                        int16_t *yaw, int16_t *vision_yaw, float *motor_abs_rad_s)
   8:src/unit/motor_drive/motor_drive.cpp ****     : motor1a_(motor1a), motor1b_(motor1b), motor2a_(motor2a), motor2b_(motor2b), motor3a_(motor3a)
 445              		.loc 1 8 7 view .LVU99
 446 0004 0161     		str	r1, [r0, #16]
 447              		.loc 1 8 26 view .LVU100
 448 0006 4261     		str	r2, [r0, #20]
 449              		.loc 1 8 45 view .LVU101
 450 0008 8361     		str	r3, [r0, #24]
 451              		.loc 1 8 64 view .LVU102
 452 000a 069B     		ldr	r3, [sp, #24]
 453              	.LVL45:
 454              		.loc 1 8 64 view .LVU103
 455 000c C361     		str	r3, [r0, #28]
 456              		.loc 1 8 83 view .LVU104
 457 000e 079B     		ldr	r3, [sp, #28]
 458 0010 0362     		str	r3, [r0, #32]
 459              		.loc 1 8 102 view .LVU105
 460 0012 089B     		ldr	r3, [sp, #32]
 461 0014 4362     		str	r3, [r0, #36]
 462              		.loc 1 8 121 view .LVU106
 463 0016 099B     		ldr	r3, [sp, #36]
 464 0018 8362     		str	r3, [r0, #40]
 465              		.loc 1 8 140 view .LVU107
 466 001a 0A9B     		ldr	r3, [sp, #40]
 467 001c C362     		str	r3, [r0, #44]
 468              		.loc 1 8 156 view .LVU108
 469 001e 00F55165 		add	r5, r0, #3344
 470 0022 0324     		movs	r4, #3
 471 0024 04E0     		b	.L38
 472              	.LVL46:
 473              	.L39:
 474              		.loc 1 8 156 discriminator 3 view .LVU109
 475 0026 2846     		mov	r0, r5
 476 0028 FFF7FEFF 		bl	_ZN3PIDC1Ev
 477              	.LVL47:
 478 002c 013C     		subs	r4, r4, #1
 479 002e 6835     		adds	r5, r5, #104
 480              	.L38:
 481              		.loc 1 8 156 is_stmt 1 discriminator 1 view .LVU110
 482 0030 002C     		cmp	r4, #0
 483 0032 F8DA     		bge	.L39
 484              		.loc 1 8 156 is_stmt 0 discriminator 4 view .LVU111
 485 0034 06F56B67 		add	r7, r6, #3760
 486 0038 3846     		mov	r0, r7
 487 003a FFF7FEFF 		bl	_ZN3PIDC1Ev
 488              	.LVL48:
 489 003e 06F63C70 		addw	r0, r6, #3900
 490 0042 FFF7FEFF 		bl	_ZN5TimerC1Ev
 491              	.LVL49:
 492              	.LBB3:
ARM GAS  /var/folders/5c/srt4fy4j1pd641bjfx75k5000000gn/T//ccfbDWTV.s 			page 11


   9:src/unit/motor_drive/motor_drive.cpp ****       this->yaw_ = yaw;
 493              		.loc 1 9 7 is_stmt 1 discriminator 4 view .LVU112
 494              		.loc 1 9 18 is_stmt 0 discriminator 4 view .LVU113
 495 0046 0B9B     		ldr	r3, [sp, #44]
 496 0048 C6F8183F 		str	r3, [r6, #3864]
  10:src/unit/motor_drive/motor_drive.cpp ****       this->vision_yaw_ = vision_yaw;
 497              		.loc 1 10 7 is_stmt 1 discriminator 4 view .LVU114
 498              		.loc 1 10 25 is_stmt 0 discriminator 4 view .LVU115
 499 004c 0C9B     		ldr	r3, [sp, #48]
 500 004e C6F8203F 		str	r3, [r6, #3872]
  11:src/unit/motor_drive/motor_drive.cpp ****       this->motor_abs_rad_s_ = motor_abs_rad_s;
 501              		.loc 1 11 7 is_stmt 1 discriminator 4 view .LVU116
 502              		.loc 1 11 30 is_stmt 0 discriminator 4 view .LVU117
 503 0052 0D9B     		ldr	r3, [sp, #52]
 504 0054 C6F8283F 		str	r3, [r6, #3880]
  12:src/unit/motor_drive/motor_drive.cpp ****       for (uint8_t i = 0; i < MOTOR_QTY; i++) {
 505              		.loc 1 12 7 is_stmt 1 discriminator 4 view .LVU118
 506              	.LVL50:
 507              	.LBB4:
 508              		.loc 1 12 20 is_stmt 0 discriminator 4 view .LVU119
 509 0058 0025     		movs	r5, #0
 510              		.loc 1 12 7 discriminator 4 view .LVU120
 511 005a 28E0     		b	.L40
 512              	.LVL51:
 513              	.L41:
  13:src/unit/motor_drive/motor_drive.cpp ****             motor_ave[i].SetLength(MOVING_AVE_NUM);
 514              		.loc 1 13 13 is_stmt 1 discriminator 3 view .LVU121
 515              		.loc 1 13 35 is_stmt 0 discriminator 3 view .LVU122
 516 005c 4FF44E70 		mov	r0, #824
 517 0060 05FB00F0 		mul	r0, r5, r0
 518 0064 3030     		adds	r0, r0, #48
 519 0066 0521     		movs	r1, #5
 520 0068 3044     		add	r0, r0, r6
 521 006a FFF7FEFF 		bl	_ZN9MovingAve9SetLengthEh
 522              	.LVL52:
  14:src/unit/motor_drive/motor_drive.cpp ****             motor_pid[i].SetGain(50, 100, 0.25);
 523              		.loc 1 14 13 is_stmt 1 discriminator 3 view .LVU123
 524              		.loc 1 14 33 is_stmt 0 discriminator 3 view .LVU124
 525 006e 6824     		movs	r4, #104
 526 0070 05FB04F4 		mul	r4, r5, r4
 527 0074 04F55164 		add	r4, r4, #3344
 528 0078 3444     		add	r4, r4, r6
 529 007a B5EE001A 		vmov.f32	s2, #2.5e-1
 530 007e DFED220A 		vldr.32	s1, .L43+32
 531 0082 9FED220A 		vldr.32	s0, .L43+36
 532 0086 2046     		mov	r0, r4
 533 0088 FFF7FEFF 		bl	_ZN3PID7SetGainEfff
 534              	.LVL53:
  15:src/unit/motor_drive/motor_drive.cpp ****             motor_pid[i].SetLimit(MIN_POWER, MAX_POWER);
 535              		.loc 1 15 13 is_stmt 1 discriminator 3 view .LVU125
 536              		.loc 1 15 34 is_stmt 0 discriminator 3 view .LVU126
 537 008c 9FED161B 		vldr.64	d1, .L43
 538 0090 9FED170B 		vldr.64	d0, .L43+8
 539 0094 2046     		mov	r0, r4
 540 0096 FFF7FEFF 		bl	_ZN3PID8SetLimitEdd
 541              	.LVL54:
  16:src/unit/motor_drive/motor_drive.cpp ****             motor_pid[i].SetSamplingFreq(250);
ARM GAS  /var/folders/5c/srt4fy4j1pd641bjfx75k5000000gn/T//ccfbDWTV.s 			page 12


 542              		.loc 1 16 13 is_stmt 1 discriminator 3 view .LVU127
 543              		.loc 1 16 41 is_stmt 0 discriminator 3 view .LVU128
 544 009a FA21     		movs	r1, #250
 545 009c 2046     		mov	r0, r4
 546 009e FFF7FEFF 		bl	_ZN3PID15SetSamplingFreqEt
 547              	.LVL55:
  17:src/unit/motor_drive/motor_drive.cpp ****             motor_pid[i].SetType(1);
 548              		.loc 1 17 13 is_stmt 1 discriminator 3 view .LVU129
 549              		.loc 1 17 33 is_stmt 0 discriminator 3 view .LVU130
 550 00a2 0121     		movs	r1, #1
 551 00a4 2046     		mov	r0, r4
 552 00a6 FFF7FEFF 		bl	_ZN3PID7SetTypeEh
 553              	.LVL56:
  12:src/unit/motor_drive/motor_drive.cpp ****             motor_ave[i].SetLength(MOVING_AVE_NUM);
 554              		.loc 1 12 7 is_stmt 1 discriminator 3 view .LVU131
 555 00aa 0135     		adds	r5, r5, #1
 556              	.LVL57:
  12:src/unit/motor_drive/motor_drive.cpp ****             motor_ave[i].SetLength(MOVING_AVE_NUM);
 557              		.loc 1 12 7 is_stmt 0 discriminator 3 view .LVU132
 558 00ac EDB2     		uxtb	r5, r5
 559              	.LVL58:
 560              	.L40:
  12:src/unit/motor_drive/motor_drive.cpp ****             motor_ave[i].SetLength(MOVING_AVE_NUM);
 561              		.loc 1 12 29 is_stmt 1 discriminator 1 view .LVU133
 562 00ae 032D     		cmp	r5, #3
 563 00b0 D4D9     		bls	.L41
 564              	.LBE4:
  18:src/unit/motor_drive/motor_drive.cpp ****       }
  19:src/unit/motor_drive/motor_drive.cpp **** 
  20:src/unit/motor_drive/motor_drive.cpp ****       pid.SetGain(0.1, 0, 0.01);
 565              		.loc 1 20 7 view .LVU134
 566              		.loc 1 20 18 is_stmt 0 view .LVU135
 567 00b2 9FED171A 		vldr.32	s2, .L43+40
 568 00b6 DFED170A 		vldr.32	s1, .L43+44
 569 00ba 9FED170A 		vldr.32	s0, .L43+48
 570 00be 3846     		mov	r0, r7
 571 00c0 FFF7FEFF 		bl	_ZN3PID7SetGainEfff
 572              	.LVL59:
  21:src/unit/motor_drive/motor_drive.cpp ****       pid.SetLimit(-MAX_ROTATION_SPEED, MAX_ROTATION_SPEED);
 573              		.loc 1 21 7 is_stmt 1 view .LVU136
 574              		.loc 1 21 19 is_stmt 0 view .LVU137
 575 00c4 9FED0C1B 		vldr.64	d1, .L43+16
 576 00c8 9FED0D0B 		vldr.64	d0, .L43+24
 577 00cc 3846     		mov	r0, r7
 578 00ce FFF7FEFF 		bl	_ZN3PID8SetLimitEdd
 579              	.LVL60:
  22:src/unit/motor_drive/motor_drive.cpp ****       pid.SetSamplingFreq(250);
 580              		.loc 1 22 7 is_stmt 1 view .LVU138
 581              		.loc 1 22 26 is_stmt 0 view .LVU139
 582 00d2 FA21     		movs	r1, #250
 583 00d4 3846     		mov	r0, r7
 584 00d6 FFF7FEFF 		bl	_ZN3PID15SetSamplingFreqEt
 585              	.LVL61:
  23:src/unit/motor_drive/motor_drive.cpp ****       pid.SetType(0);
 586              		.loc 1 23 7 is_stmt 1 view .LVU140
 587              		.loc 1 23 18 is_stmt 0 view .LVU141
 588 00da 0021     		movs	r1, #0
ARM GAS  /var/folders/5c/srt4fy4j1pd641bjfx75k5000000gn/T//ccfbDWTV.s 			page 13


 589 00dc 3846     		mov	r0, r7
 590 00de FFF7FEFF 		bl	_ZN3PID7SetTypeEh
 591              	.LVL62:
 592              	.LBE3:
 593              	.LBE2:
  24:src/unit/motor_drive/motor_drive.cpp **** }
 594              		.loc 1 24 1 view .LVU142
 595 00e2 3046     		mov	r0, r6
 596 00e4 F8BD     		pop	{r3, r4, r5, r6, r7, pc}
 597              	.LVL63:
 598              	.L44:
 599              		.loc 1 24 1 view .LVU143
 600 00e6 00BF     		.align	3
 601              	.L43:
 602 00e8 00000000 		.word	0
 603 00ec 00408F40 		.word	1083129856
 604 00f0 00000000 		.word	0
 605 00f4 0000F03F 		.word	1072693248
 606 00f8 182D4454 		.word	1413754136
 607 00fc FB211940 		.word	1075388923
 608 0100 182D4454 		.word	1413754136
 609 0104 FB2119C0 		.word	-1072094725
 610 0108 0000C842 		.word	1120403456
 611 010c 00004842 		.word	1112014848
 612 0110 0AD7233C 		.word	1008981770
 613 0114 00000000 		.word	0
 614 0118 CDCCCC3D 		.word	1036831949
 615              		.cfi_endproc
 616              	.LFE250:
 617              		.fnend
 619              		.global	_ZN10MotorDriveC1EP12PwmSingleOutS1_S1_S1_S1_S1_S1_S1_PsS2_Pf
 620              		.thumb_set _ZN10MotorDriveC1EP12PwmSingleOutS1_S1_S1_S1_S1_S1_S1_PsS2_Pf,_ZN10MotorDriveC2EP12PwmS
 621              		.section	.text._ZN10MotorDrive4InitEv,"ax",%progbits
 622              		.align	1
 623              		.global	_ZN10MotorDrive4InitEv
 624              		.syntax unified
 625              		.thumb
 626              		.thumb_func
 628              	_ZN10MotorDrive4InitEv:
 629              		.fnstart
 630              	.LVL64:
 631              	.LFB252:
  25:src/unit/motor_drive/motor_drive.cpp **** 
  26:src/unit/motor_drive/motor_drive.cpp **** void MotorDrive::Init() {
 632              		.loc 1 26 25 is_stmt 1 view -0
 633              		.cfi_startproc
 634              		@ args = 0, pretend = 0, frame = 0
 635              		@ frame_needed = 0, uses_anonymous_args = 0
 636              		.loc 1 26 25 is_stmt 0 view .LVU145
 637 0000 10B5     		push	{r4, lr}
 638              		.save {r4, lr}
 639              	.LCFI4:
 640              		.cfi_def_cfa_offset 8
 641              		.cfi_offset 4, -8
 642              		.cfi_offset 14, -4
 643 0002 0446     		mov	r4, r0
  27:src/unit/motor_drive/motor_drive.cpp ****       motor1a_->init();
ARM GAS  /var/folders/5c/srt4fy4j1pd641bjfx75k5000000gn/T//ccfbDWTV.s 			page 14


 644              		.loc 1 27 7 is_stmt 1 view .LVU146
 645              		.loc 1 27 21 is_stmt 0 view .LVU147
 646 0004 0069     		ldr	r0, [r0, #16]
 647              	.LVL65:
 648              		.loc 1 27 21 view .LVU148
 649 0006 FFF7FEFF 		bl	_ZN12PwmSingleOut4initEv
 650              	.LVL66:
  28:src/unit/motor_drive/motor_drive.cpp ****       motor1b_->init();
 651              		.loc 1 28 7 is_stmt 1 view .LVU149
 652              		.loc 1 28 21 is_stmt 0 view .LVU150
 653 000a 6069     		ldr	r0, [r4, #20]
 654 000c FFF7FEFF 		bl	_ZN12PwmSingleOut4initEv
 655              	.LVL67:
  29:src/unit/motor_drive/motor_drive.cpp ****       motor2a_->init();
 656              		.loc 1 29 7 is_stmt 1 view .LVU151
 657              		.loc 1 29 21 is_stmt 0 view .LVU152
 658 0010 A069     		ldr	r0, [r4, #24]
 659 0012 FFF7FEFF 		bl	_ZN12PwmSingleOut4initEv
 660              	.LVL68:
  30:src/unit/motor_drive/motor_drive.cpp ****       motor2b_->init();
 661              		.loc 1 30 7 is_stmt 1 view .LVU153
 662              		.loc 1 30 21 is_stmt 0 view .LVU154
 663 0016 E069     		ldr	r0, [r4, #28]
 664 0018 FFF7FEFF 		bl	_ZN12PwmSingleOut4initEv
 665              	.LVL69:
  31:src/unit/motor_drive/motor_drive.cpp ****       motor3a_->init();
 666              		.loc 1 31 7 is_stmt 1 view .LVU155
 667              		.loc 1 31 21 is_stmt 0 view .LVU156
 668 001c 206A     		ldr	r0, [r4, #32]
 669 001e FFF7FEFF 		bl	_ZN12PwmSingleOut4initEv
 670              	.LVL70:
  32:src/unit/motor_drive/motor_drive.cpp ****       motor3b_->init();
 671              		.loc 1 32 7 is_stmt 1 view .LVU157
 672              		.loc 1 32 21 is_stmt 0 view .LVU158
 673 0022 606A     		ldr	r0, [r4, #36]
 674 0024 FFF7FEFF 		bl	_ZN12PwmSingleOut4initEv
 675              	.LVL71:
  33:src/unit/motor_drive/motor_drive.cpp ****       motor4a_->init();
 676              		.loc 1 33 7 is_stmt 1 view .LVU159
 677              		.loc 1 33 21 is_stmt 0 view .LVU160
 678 0028 A06A     		ldr	r0, [r4, #40]
 679 002a FFF7FEFF 		bl	_ZN12PwmSingleOut4initEv
 680              	.LVL72:
  34:src/unit/motor_drive/motor_drive.cpp ****       motor4b_->init();
 681              		.loc 1 34 7 is_stmt 1 view .LVU161
 682              		.loc 1 34 21 is_stmt 0 view .LVU162
 683 002e E06A     		ldr	r0, [r4, #44]
 684 0030 FFF7FEFF 		bl	_ZN12PwmSingleOut4initEv
 685              	.LVL73:
  35:src/unit/motor_drive/motor_drive.cpp **** }
 686              		.loc 1 35 1 view .LVU163
 687 0034 10BD     		pop	{r4, pc}
 688              		.loc 1 35 1 view .LVU164
 689              		.cfi_endproc
 690              	.LFE252:
 691              		.fnend
 693              		.section	.text._ZN10MotorDrive3RunEssss,"ax",%progbits
ARM GAS  /var/folders/5c/srt4fy4j1pd641bjfx75k5000000gn/T//ccfbDWTV.s 			page 15


 694              		.align	1
 695              		.global	_ZN10MotorDrive3RunEssss
 696              		.syntax unified
 697              		.thumb
 698              		.thumb_func
 700              	_ZN10MotorDrive3RunEssss:
 701              		.fnstart
 702              	.LVL74:
 703              	.LFB254:
  36:src/unit/motor_drive/motor_drive.cpp **** 
  37:src/unit/motor_drive/motor_drive.cpp **** void MotorDrive::Drive(int16_t target_move_dir, float target_move_speed, float move_acce, int16_t r
  38:src/unit/motor_drive/motor_drive.cpp ****       float target_rad_s[MOTOR_QTY];
  39:src/unit/motor_drive/motor_drive.cpp ****       static float pre_target_rad_s[MOTOR_QTY];
  40:src/unit/motor_drive/motor_drive.cpp **** 
  41:src/unit/motor_drive/motor_drive.cpp ****       int16_t power[MOTOR_QTY];
  42:src/unit/motor_drive/motor_drive.cpp ****       static float move_speed = 0;
  43:src/unit/motor_drive/motor_drive.cpp **** 
  44:src/unit/motor_drive/motor_drive.cpp ****       double dt = dt_timer.read();
  45:src/unit/motor_drive/motor_drive.cpp ****       dt_timer.reset();
  46:src/unit/motor_drive/motor_drive.cpp **** 
  47:src/unit/motor_drive/motor_drive.cpp ****       if (dt > 0.1) {
  48:src/unit/motor_drive/motor_drive.cpp ****             move_speed = 0;
  49:src/unit/motor_drive/motor_drive.cpp ****             for (uint8_t i = 0; i < MOTOR_QTY; i++) motor_pid[i].ResetI();
  50:src/unit/motor_drive/motor_drive.cpp ****       } else {
  51:src/unit/motor_drive/motor_drive.cpp ****             double speed_change = move_acce * dt;
  52:src/unit/motor_drive/motor_drive.cpp ****             if (move_acce == 0) {
  53:src/unit/motor_drive/motor_drive.cpp ****                   move_speed = target_move_speed;
  54:src/unit/motor_drive/motor_drive.cpp ****             } else if (target_move_speed > move_speed) {
  55:src/unit/motor_drive/motor_drive.cpp ****                   move_speed += speed_change;
  56:src/unit/motor_drive/motor_drive.cpp ****                   if (move_speed > target_move_speed) move_speed = target_move_speed;
  57:src/unit/motor_drive/motor_drive.cpp ****             } else if (target_move_speed < move_speed) {
  58:src/unit/motor_drive/motor_drive.cpp ****                   move_speed -= speed_change;
  59:src/unit/motor_drive/motor_drive.cpp ****                   if (move_speed < target_move_speed) move_speed = target_move_speed;
  60:src/unit/motor_drive/motor_drive.cpp ****             }
  61:src/unit/motor_drive/motor_drive.cpp ****       }
  62:src/unit/motor_drive/motor_drive.cpp **** 
  63:src/unit/motor_drive/motor_drive.cpp ****       float vel_x = move_speed * MyMath::cosDeg(target_move_dir);
  64:src/unit/motor_drive/motor_drive.cpp ****       float vel_y = move_speed * MyMath::sinDeg(target_move_dir);
  65:src/unit/motor_drive/motor_drive.cpp **** 
  66:src/unit/motor_drive/motor_drive.cpp ****       if (*vision_yaw_ != pre_vision_yaw_) {
  67:src/unit/motor_drive/motor_drive.cpp ****             corrected_yaw_ = *vision_yaw_;
  68:src/unit/motor_drive/motor_drive.cpp ****             pre_yaw_ = *yaw_;
  69:src/unit/motor_drive/motor_drive.cpp ****       } else {
  70:src/unit/motor_drive/motor_drive.cpp ****             corrected_yaw_ = *yaw_ - pre_yaw_ + pre_vision_yaw_;
  71:src/unit/motor_drive/motor_drive.cpp ****       }
  72:src/unit/motor_drive/motor_drive.cpp ****       corrected_yaw_ = MyMath::NormalizeDeg180(corrected_yaw_);
  73:src/unit/motor_drive/motor_drive.cpp ****       pre_vision_yaw_ = *vision_yaw_;
  74:src/unit/motor_drive/motor_drive.cpp ****       if (MyMath::GapDeg(corrected_yaw_, rotation_dir) < 180 && abs(corrected_yaw_ - rotation_dir) 
  75:src/unit/motor_drive/motor_drive.cpp ****             corrected_yaw_ = MyMath::NormalizeDeg(corrected_yaw_);
  76:src/unit/motor_drive/motor_drive.cpp ****             rotation_dir = MyMath::NormalizeDeg(rotation_dir);
  77:src/unit/motor_drive/motor_drive.cpp ****       }
  78:src/unit/motor_drive/motor_drive.cpp ****       pid.Compute(corrected_yaw_, rotation_dir);  // 姿勢制御用PID
  79:src/unit/motor_drive/motor_drive.cpp ****       for (uint8_t i = 0; i < MOTOR_QTY; i++) {
  80:src/unit/motor_drive/motor_drive.cpp ****             float robot_rotation_speed = pid.Get();
  81:src/unit/motor_drive/motor_drive.cpp ****             if (abs(robot_rotation_speed) > rotation_speed && rotation_speed != 0) robot_rotation_s
  82:src/unit/motor_drive/motor_drive.cpp ****             if (rotation_center == FRONT) {
  83:src/unit/motor_drive/motor_drive.cpp ****                   robot_rotation_speed *= 2;
ARM GAS  /var/folders/5c/srt4fy4j1pd641bjfx75k5000000gn/T//ccfbDWTV.s 			page 16


  84:src/unit/motor_drive/motor_drive.cpp ****                   if (i == 0 || i == 3) robot_rotation_speed = 0;
  85:src/unit/motor_drive/motor_drive.cpp ****             } else if (rotation_center == RIGHT) {
  86:src/unit/motor_drive/motor_drive.cpp ****                   robot_rotation_speed *= 2;
  87:src/unit/motor_drive/motor_drive.cpp ****                   if (i == 0 || i == 1) robot_rotation_speed = 0;
  88:src/unit/motor_drive/motor_drive.cpp ****             } else if (rotation_center == BACK) {
  89:src/unit/motor_drive/motor_drive.cpp ****                   robot_rotation_speed *= 2;
  90:src/unit/motor_drive/motor_drive.cpp ****                   if (i == 1 || i == 2) robot_rotation_speed = 0;
  91:src/unit/motor_drive/motor_drive.cpp ****             } else if (rotation_center == LEFT) {
  92:src/unit/motor_drive/motor_drive.cpp ****                   robot_rotation_speed *= 2;
  93:src/unit/motor_drive/motor_drive.cpp ****                   if (i == 2 || i == 3) robot_rotation_speed = 0;
  94:src/unit/motor_drive/motor_drive.cpp ****             }
  95:src/unit/motor_drive/motor_drive.cpp ****             target_rad_s[i] = (1.0f / WHEEL_R) * ((-1 * MyMath::sinDeg(45 + (90 * i)) * MyMath::cos
  96:src/unit/motor_drive/motor_drive.cpp ****       }
  97:src/unit/motor_drive/motor_drive.cpp **** 
  98:src/unit/motor_drive/motor_drive.cpp ****       // 速度制御
  99:src/unit/motor_drive/motor_drive.cpp ****       for (uint8_t i = 0; i < MOTOR_QTY; i++) {
 100:src/unit/motor_drive/motor_drive.cpp ****             if (target_rad_s[i] == 0 || ((pre_target_rad_s[i] / abs(pre_target_rad_s[i])) != (targe
 101:src/unit/motor_drive/motor_drive.cpp ****             pre_target_rad_s[i] = target_rad_s[i];
 102:src/unit/motor_drive/motor_drive.cpp ****             motor_pid[i].Compute(motor_abs_rad_s_[i], abs(target_rad_s[i]));
 103:src/unit/motor_drive/motor_drive.cpp ****             if (target_rad_s[i] > 0) {
 104:src/unit/motor_drive/motor_drive.cpp ****                   power[i] = motor_pid[i].Get();
 105:src/unit/motor_drive/motor_drive.cpp ****                   motor_rad_s_[i] = motor_abs_rad_s_[i];
 106:src/unit/motor_drive/motor_drive.cpp ****             } else {
 107:src/unit/motor_drive/motor_drive.cpp ****                   power[i] = -motor_pid[i].Get();
 108:src/unit/motor_drive/motor_drive.cpp ****                   motor_rad_s_[i] = -motor_abs_rad_s_[i];
 109:src/unit/motor_drive/motor_drive.cpp ****             }
 110:src/unit/motor_drive/motor_drive.cpp ****       }
 111:src/unit/motor_drive/motor_drive.cpp **** 
 112:src/unit/motor_drive/motor_drive.cpp ****       // 移動平均
 113:src/unit/motor_drive/motor_drive.cpp ****       for (uint8_t i = 0; i < MOTOR_QTY; i++) {
 114:src/unit/motor_drive/motor_drive.cpp ****             motor_ave[i].Compute(power[i]);
 115:src/unit/motor_drive/motor_drive.cpp ****             power[i] = motor_ave[i].Get();
 116:src/unit/motor_drive/motor_drive.cpp ****       }
 117:src/unit/motor_drive/motor_drive.cpp **** 
 118:src/unit/motor_drive/motor_drive.cpp ****       moving_vel_x = (WHEEL_R / 2.0f) * (motor_rad_s_[0] - motor_rad_s_[1] - motor_rad_s_[2] + moto
 119:src/unit/motor_drive/motor_drive.cpp ****       moving_vel_y = (WHEEL_R / 2.0f) * (-motor_rad_s_[0] - motor_rad_s_[1] + motor_rad_s_[2] + mot
 120:src/unit/motor_drive/motor_drive.cpp ****       moving_speed = MyMath::sqrt(moving_vel_x * moving_vel_x + moving_vel_y * moving_vel_y);
 121:src/unit/motor_drive/motor_drive.cpp ****       moving_dir = MyMath::atan2(moving_vel_x, moving_vel_y);
 122:src/unit/motor_drive/motor_drive.cpp **** 
 123:src/unit/motor_drive/motor_drive.cpp ****       Run(power[0], power[1], power[2], power[3]);
 124:src/unit/motor_drive/motor_drive.cpp **** }
 125:src/unit/motor_drive/motor_drive.cpp **** 
 126:src/unit/motor_drive/motor_drive.cpp **** void MotorDrive::Run(int16_t motor1, int16_t motor2, int16_t motor3, int16_t motor4) {
 704              		.loc 1 126 86 is_stmt 1 view -0
 705              		.cfi_startproc
 706              		@ args = 4, pretend = 0, frame = 0
 707              		@ frame_needed = 0, uses_anonymous_args = 0
 708              		.loc 1 126 86 is_stmt 0 view .LVU166
 709 0000 2DE9F041 		push	{r4, r5, r6, r7, r8, lr}
 710              	.LCFI5:
 711              		.cfi_def_cfa_offset 24
 712              		.cfi_offset 4, -24
 713              		.cfi_offset 5, -20
 714              		.cfi_offset 6, -16
 715              		.cfi_offset 7, -12
 716              		.cfi_offset 8, -8
 717              		.cfi_offset 14, -4
ARM GAS  /var/folders/5c/srt4fy4j1pd641bjfx75k5000000gn/T//ccfbDWTV.s 			page 17


 718 0004 0446     		mov	r4, r0
 719 0006 0F46     		mov	r7, r1
 720 0008 1646     		mov	r6, r2
 721 000a 1D46     		mov	r5, r3
 722 000c BDF91880 		ldrsh	r8, [sp, #24]
 127:src/unit/motor_drive/motor_drive.cpp ****       // Init();
 128:src/unit/motor_drive/motor_drive.cpp ****       if (abs(motor1) > 1000) motor1 = motor1 * (abs(motor1) / motor1);
 723              		.loc 1 128 7 is_stmt 1 view .LVU167
 724              		.loc 1 128 11 is_stmt 0 view .LVU168
 725 0010 81EAE173 		eor	r3, r1, r1, asr #31
 726              	.LVL75:
 727              		.loc 1 128 11 view .LVU169
 728 0014 A3EBE173 		sub	r3, r3, r1, asr #31
 729 0018 9BB2     		uxth	r3, r3
 730              		.loc 1 128 7 view .LVU170
 731 001a B3F57A7F 		cmp	r3, #1000
 732 001e 04D9     		bls	.L48
 733              		.loc 1 128 31 is_stmt 1 discriminator 1 view .LVU171
 734              		.loc 1 128 62 is_stmt 0 discriminator 1 view .LVU172
 735 0020 93FBF1F3 		sdiv	r3, r3, r1
 736              		.loc 1 128 38 discriminator 1 view .LVU173
 737 0024 13FB01F3 		smulbb	r3, r3, r1
 738 0028 1FB2     		sxth	r7, r3
 739              	.LVL76:
 740              	.L48:
 129:src/unit/motor_drive/motor_drive.cpp ****       if (abs(motor2) > 1000) motor2 = motor2 * (abs(motor2) / motor2);
 741              		.loc 1 129 7 is_stmt 1 view .LVU174
 742              		.loc 1 129 11 is_stmt 0 view .LVU175
 743 002a 86EAE673 		eor	r3, r6, r6, asr #31
 744 002e A3EBE673 		sub	r3, r3, r6, asr #31
 745 0032 9BB2     		uxth	r3, r3
 746              		.loc 1 129 7 view .LVU176
 747 0034 B3F57A7F 		cmp	r3, #1000
 748 0038 04D9     		bls	.L49
 749              		.loc 1 129 31 is_stmt 1 discriminator 1 view .LVU177
 750              		.loc 1 129 62 is_stmt 0 discriminator 1 view .LVU178
 751 003a 93FBF6F3 		sdiv	r3, r3, r6
 752              		.loc 1 129 38 discriminator 1 view .LVU179
 753 003e 13FB06F3 		smulbb	r3, r3, r6
 754 0042 1EB2     		sxth	r6, r3
 755              	.LVL77:
 756              	.L49:
 130:src/unit/motor_drive/motor_drive.cpp ****       if (abs(motor3) > 1000) motor3 = motor3 * (abs(motor3) / motor3);
 757              		.loc 1 130 7 is_stmt 1 view .LVU180
 758              		.loc 1 130 11 is_stmt 0 view .LVU181
 759 0044 85EAE573 		eor	r3, r5, r5, asr #31
 760 0048 A3EBE573 		sub	r3, r3, r5, asr #31
 761 004c 9BB2     		uxth	r3, r3
 762              		.loc 1 130 7 view .LVU182
 763 004e B3F57A7F 		cmp	r3, #1000
 764 0052 04D9     		bls	.L50
 765              		.loc 1 130 31 is_stmt 1 discriminator 1 view .LVU183
 766              		.loc 1 130 62 is_stmt 0 discriminator 1 view .LVU184
 767 0054 93FBF5F3 		sdiv	r3, r3, r5
 768              		.loc 1 130 38 discriminator 1 view .LVU185
 769 0058 13FB05F3 		smulbb	r3, r3, r5
 770 005c 1DB2     		sxth	r5, r3
ARM GAS  /var/folders/5c/srt4fy4j1pd641bjfx75k5000000gn/T//ccfbDWTV.s 			page 18


 771              	.LVL78:
 772              	.L50:
 131:src/unit/motor_drive/motor_drive.cpp ****       if (abs(motor4) > 1000) motor4 = motor4 * (abs(motor4) / motor4);
 773              		.loc 1 131 7 is_stmt 1 view .LVU186
 774              		.loc 1 131 11 is_stmt 0 view .LVU187
 775 005e 88EAE873 		eor	r3, r8, r8, asr #31
 776 0062 A3EBE873 		sub	r3, r3, r8, asr #31
 777 0066 9BB2     		uxth	r3, r3
 778              		.loc 1 131 7 view .LVU188
 779 0068 B3F57A7F 		cmp	r3, #1000
 780 006c 05D9     		bls	.L51
 781              		.loc 1 131 31 is_stmt 1 discriminator 1 view .LVU189
 782              		.loc 1 131 62 is_stmt 0 discriminator 1 view .LVU190
 783 006e 93FBF8F3 		sdiv	r3, r3, r8
 784              		.loc 1 131 38 discriminator 1 view .LVU191
 785 0072 13FB08F3 		smulbb	r3, r3, r8
 786 0076 0FFA83F8 		sxth	r8, r3
 787              	.LVL79:
 788              	.L51:
 132:src/unit/motor_drive/motor_drive.cpp ****       if (motor1 > 0) {
 789              		.loc 1 132 7 is_stmt 1 view .LVU192
 790 007a 002F     		cmp	r7, #0
 791 007c 48DD     		ble	.L52
 133:src/unit/motor_drive/motor_drive.cpp ****             motor1a_->write(motor1 * 0.001f);
 792              		.loc 1 133 13 view .LVU193
 793              		.loc 1 133 28 is_stmt 0 view .LVU194
 794 007e 07EE907A 		vmov	s15, r7	@ int
 795 0082 B8EEE70A 		vcvt.f32.s32	s0, s15
 796 0086 DFED447A 		vldr.32	s15, .L61
 797 008a 20EE270A 		vmul.f32	s0, s0, s15
 798 008e 2069     		ldr	r0, [r4, #16]
 799              	.LVL80:
 800              		.loc 1 133 28 view .LVU195
 801 0090 FFF7FEFF 		bl	_ZN12PwmSingleOut5writeEf
 802              	.LVL81:
 134:src/unit/motor_drive/motor_drive.cpp ****             motor1b_->write(0);
 803              		.loc 1 134 13 is_stmt 1 view .LVU196
 804              		.loc 1 134 28 is_stmt 0 view .LVU197
 805 0094 9FED410A 		vldr.32	s0, .L61+4
 806 0098 6069     		ldr	r0, [r4, #20]
 807 009a FFF7FEFF 		bl	_ZN12PwmSingleOut5writeEf
 808              	.LVL82:
 809              	.L53:
 135:src/unit/motor_drive/motor_drive.cpp ****       } else {
 136:src/unit/motor_drive/motor_drive.cpp ****             motor1a_->write(0);
 137:src/unit/motor_drive/motor_drive.cpp ****             motor1b_->write(motor1 * -0.001f);
 138:src/unit/motor_drive/motor_drive.cpp ****       }
 139:src/unit/motor_drive/motor_drive.cpp ****       if (motor2 > 0) {
 810              		.loc 1 139 7 is_stmt 1 view .LVU198
 811 009e 002E     		cmp	r6, #0
 812 00a0 47DD     		ble	.L54
 140:src/unit/motor_drive/motor_drive.cpp ****             motor2a_->write(motor2 * 0.001f);
 813              		.loc 1 140 13 view .LVU199
 814              		.loc 1 140 28 is_stmt 0 view .LVU200
 815 00a2 07EE906A 		vmov	s15, r6	@ int
 816 00a6 B8EEE70A 		vcvt.f32.s32	s0, s15
 817 00aa DFED3B7A 		vldr.32	s15, .L61
ARM GAS  /var/folders/5c/srt4fy4j1pd641bjfx75k5000000gn/T//ccfbDWTV.s 			page 19


 818 00ae 20EE270A 		vmul.f32	s0, s0, s15
 819 00b2 A069     		ldr	r0, [r4, #24]
 820 00b4 FFF7FEFF 		bl	_ZN12PwmSingleOut5writeEf
 821              	.LVL83:
 141:src/unit/motor_drive/motor_drive.cpp ****             motor2b_->write(0);
 822              		.loc 1 141 13 is_stmt 1 view .LVU201
 823              		.loc 1 141 28 is_stmt 0 view .LVU202
 824 00b8 9FED380A 		vldr.32	s0, .L61+4
 825 00bc E069     		ldr	r0, [r4, #28]
 826 00be FFF7FEFF 		bl	_ZN12PwmSingleOut5writeEf
 827              	.LVL84:
 828              	.L55:
 142:src/unit/motor_drive/motor_drive.cpp ****       } else {
 143:src/unit/motor_drive/motor_drive.cpp ****             motor2a_->write(0);
 144:src/unit/motor_drive/motor_drive.cpp ****             motor2b_->write(motor2 * -0.001f);
 145:src/unit/motor_drive/motor_drive.cpp ****       }
 146:src/unit/motor_drive/motor_drive.cpp ****       if (motor3 > 0) {
 829              		.loc 1 146 7 is_stmt 1 view .LVU203
 830 00c2 002D     		cmp	r5, #0
 831 00c4 46DD     		ble	.L56
 147:src/unit/motor_drive/motor_drive.cpp ****             motor3a_->write(motor3 * 0.001f);
 832              		.loc 1 147 13 view .LVU204
 833              		.loc 1 147 28 is_stmt 0 view .LVU205
 834 00c6 07EE905A 		vmov	s15, r5	@ int
 835 00ca B8EEE70A 		vcvt.f32.s32	s0, s15
 836 00ce DFED327A 		vldr.32	s15, .L61
 837 00d2 20EE270A 		vmul.f32	s0, s0, s15
 838 00d6 206A     		ldr	r0, [r4, #32]
 839 00d8 FFF7FEFF 		bl	_ZN12PwmSingleOut5writeEf
 840              	.LVL85:
 148:src/unit/motor_drive/motor_drive.cpp ****             motor3b_->write(0);
 841              		.loc 1 148 13 is_stmt 1 view .LVU206
 842              		.loc 1 148 28 is_stmt 0 view .LVU207
 843 00dc 9FED2F0A 		vldr.32	s0, .L61+4
 844 00e0 606A     		ldr	r0, [r4, #36]
 845 00e2 FFF7FEFF 		bl	_ZN12PwmSingleOut5writeEf
 846              	.LVL86:
 847              	.L57:
 149:src/unit/motor_drive/motor_drive.cpp ****       } else {
 150:src/unit/motor_drive/motor_drive.cpp ****             motor3a_->write(0);
 151:src/unit/motor_drive/motor_drive.cpp ****             motor3b_->write(motor3 * -0.001f);
 152:src/unit/motor_drive/motor_drive.cpp ****       }
 153:src/unit/motor_drive/motor_drive.cpp ****       if (motor4 > 0) {
 848              		.loc 1 153 7 is_stmt 1 view .LVU208
 849 00e6 B8F1000F 		cmp	r8, #0
 850 00ea 44DD     		ble	.L58
 154:src/unit/motor_drive/motor_drive.cpp ****             motor4a_->write(motor4 * 0.001f);
 851              		.loc 1 154 13 view .LVU209
 852              		.loc 1 154 28 is_stmt 0 view .LVU210
 853 00ec 07EE908A 		vmov	s15, r8	@ int
 854 00f0 B8EEE70A 		vcvt.f32.s32	s0, s15
 855 00f4 DFED287A 		vldr.32	s15, .L61
 856 00f8 20EE270A 		vmul.f32	s0, s0, s15
 857 00fc A06A     		ldr	r0, [r4, #40]
 858 00fe FFF7FEFF 		bl	_ZN12PwmSingleOut5writeEf
 859              	.LVL87:
 155:src/unit/motor_drive/motor_drive.cpp ****             motor4b_->write(0);
ARM GAS  /var/folders/5c/srt4fy4j1pd641bjfx75k5000000gn/T//ccfbDWTV.s 			page 20


 860              		.loc 1 155 13 is_stmt 1 view .LVU211
 861              		.loc 1 155 28 is_stmt 0 view .LVU212
 862 0102 9FED260A 		vldr.32	s0, .L61+4
 863 0106 E06A     		ldr	r0, [r4, #44]
 864 0108 FFF7FEFF 		bl	_ZN12PwmSingleOut5writeEf
 865              	.LVL88:
 866              	.L47:
 156:src/unit/motor_drive/motor_drive.cpp ****       } else {
 157:src/unit/motor_drive/motor_drive.cpp ****             motor4a_->write(0);
 158:src/unit/motor_drive/motor_drive.cpp ****             motor4b_->write(motor4 * -0.001f);
 159:src/unit/motor_drive/motor_drive.cpp ****       }
 160:src/unit/motor_drive/motor_drive.cpp **** }
 867              		.loc 1 160 1 view .LVU213
 868 010c BDE8F081 		pop	{r4, r5, r6, r7, r8, pc}
 869              	.LVL89:
 870              	.L52:
 136:src/unit/motor_drive/motor_drive.cpp ****             motor1b_->write(motor1 * -0.001f);
 871              		.loc 1 136 13 is_stmt 1 view .LVU214
 136:src/unit/motor_drive/motor_drive.cpp ****             motor1b_->write(motor1 * -0.001f);
 872              		.loc 1 136 28 is_stmt 0 view .LVU215
 873 0110 9FED220A 		vldr.32	s0, .L61+4
 874 0114 2069     		ldr	r0, [r4, #16]
 875              	.LVL90:
 136:src/unit/motor_drive/motor_drive.cpp ****             motor1b_->write(motor1 * -0.001f);
 876              		.loc 1 136 28 view .LVU216
 877 0116 FFF7FEFF 		bl	_ZN12PwmSingleOut5writeEf
 878              	.LVL91:
 137:src/unit/motor_drive/motor_drive.cpp ****       }
 879              		.loc 1 137 13 is_stmt 1 view .LVU217
 137:src/unit/motor_drive/motor_drive.cpp ****       }
 880              		.loc 1 137 28 is_stmt 0 view .LVU218
 881 011a 07EE907A 		vmov	s15, r7	@ int
 882 011e F8EEE77A 		vcvt.f32.s32	s15, s15
 883 0122 9FED1F0A 		vldr.32	s0, .L61+8
 884 0126 27EE800A 		vmul.f32	s0, s15, s0
 885 012a 6069     		ldr	r0, [r4, #20]
 886 012c FFF7FEFF 		bl	_ZN12PwmSingleOut5writeEf
 887              	.LVL92:
 888 0130 B5E7     		b	.L53
 889              	.L54:
 143:src/unit/motor_drive/motor_drive.cpp ****             motor2b_->write(motor2 * -0.001f);
 890              		.loc 1 143 13 is_stmt 1 view .LVU219
 143:src/unit/motor_drive/motor_drive.cpp ****             motor2b_->write(motor2 * -0.001f);
 891              		.loc 1 143 28 is_stmt 0 view .LVU220
 892 0132 9FED1A0A 		vldr.32	s0, .L61+4
 893 0136 A069     		ldr	r0, [r4, #24]
 894 0138 FFF7FEFF 		bl	_ZN12PwmSingleOut5writeEf
 895              	.LVL93:
 144:src/unit/motor_drive/motor_drive.cpp ****       }
 896              		.loc 1 144 13 is_stmt 1 view .LVU221
 144:src/unit/motor_drive/motor_drive.cpp ****       }
 897              		.loc 1 144 28 is_stmt 0 view .LVU222
 898 013c 07EE906A 		vmov	s15, r6	@ int
 899 0140 F8EEE77A 		vcvt.f32.s32	s15, s15
 900 0144 9FED160A 		vldr.32	s0, .L61+8
 901 0148 27EE800A 		vmul.f32	s0, s15, s0
 902 014c E069     		ldr	r0, [r4, #28]
ARM GAS  /var/folders/5c/srt4fy4j1pd641bjfx75k5000000gn/T//ccfbDWTV.s 			page 21


 903 014e FFF7FEFF 		bl	_ZN12PwmSingleOut5writeEf
 904              	.LVL94:
 905 0152 B6E7     		b	.L55
 906              	.L56:
 150:src/unit/motor_drive/motor_drive.cpp ****             motor3b_->write(motor3 * -0.001f);
 907              		.loc 1 150 13 is_stmt 1 view .LVU223
 150:src/unit/motor_drive/motor_drive.cpp ****             motor3b_->write(motor3 * -0.001f);
 908              		.loc 1 150 28 is_stmt 0 view .LVU224
 909 0154 9FED110A 		vldr.32	s0, .L61+4
 910 0158 206A     		ldr	r0, [r4, #32]
 911 015a FFF7FEFF 		bl	_ZN12PwmSingleOut5writeEf
 912              	.LVL95:
 151:src/unit/motor_drive/motor_drive.cpp ****       }
 913              		.loc 1 151 13 is_stmt 1 view .LVU225
 151:src/unit/motor_drive/motor_drive.cpp ****       }
 914              		.loc 1 151 28 is_stmt 0 view .LVU226
 915 015e 07EE905A 		vmov	s15, r5	@ int
 916 0162 F8EEE77A 		vcvt.f32.s32	s15, s15
 917 0166 9FED0E0A 		vldr.32	s0, .L61+8
 918 016a 27EE800A 		vmul.f32	s0, s15, s0
 919 016e 606A     		ldr	r0, [r4, #36]
 920 0170 FFF7FEFF 		bl	_ZN12PwmSingleOut5writeEf
 921              	.LVL96:
 922 0174 B7E7     		b	.L57
 923              	.L58:
 157:src/unit/motor_drive/motor_drive.cpp ****             motor4b_->write(motor4 * -0.001f);
 924              		.loc 1 157 13 is_stmt 1 view .LVU227
 157:src/unit/motor_drive/motor_drive.cpp ****             motor4b_->write(motor4 * -0.001f);
 925              		.loc 1 157 28 is_stmt 0 view .LVU228
 926 0176 9FED090A 		vldr.32	s0, .L61+4
 927 017a A06A     		ldr	r0, [r4, #40]
 928 017c FFF7FEFF 		bl	_ZN12PwmSingleOut5writeEf
 929              	.LVL97:
 158:src/unit/motor_drive/motor_drive.cpp ****       }
 930              		.loc 1 158 13 is_stmt 1 view .LVU229
 158:src/unit/motor_drive/motor_drive.cpp ****       }
 931              		.loc 1 158 28 is_stmt 0 view .LVU230
 932 0180 07EE908A 		vmov	s15, r8	@ int
 933 0184 F8EEE77A 		vcvt.f32.s32	s15, s15
 934 0188 9FED050A 		vldr.32	s0, .L61+8
 935 018c 27EE800A 		vmul.f32	s0, s15, s0
 936 0190 E06A     		ldr	r0, [r4, #44]
 937 0192 FFF7FEFF 		bl	_ZN12PwmSingleOut5writeEf
 938              	.LVL98:
 939              		.loc 1 160 1 view .LVU231
 940 0196 B9E7     		b	.L47
 941              	.L62:
 942              		.align	2
 943              	.L61:
 944 0198 6F12833A 		.word	981668463
 945 019c 00000000 		.word	0
 946 01a0 6F1283BA 		.word	-1165815185
 947              		.cfi_endproc
 948              	.LFE254:
 949              		.cantunwind
 950              		.fnend
 952              		.global	__aeabi_dcmpgt
ARM GAS  /var/folders/5c/srt4fy4j1pd641bjfx75k5000000gn/T//ccfbDWTV.s 			page 22


 953              		.global	__aeabi_dadd
 954              		.global	__aeabi_d2f
 955              		.global	__aeabi_dsub
 956              		.global	__aeabi_i2d
 957              		.section	.text._ZN10MotorDrive5DriveEsffsfh,"ax",%progbits
 958              		.align	1
 959              		.global	_ZN10MotorDrive5DriveEsffsfh
 960              		.syntax unified
 961              		.thumb
 962              		.thumb_func
 964              	_ZN10MotorDrive5DriveEsffsfh:
 965              		.fnstart
 966              	.LVL99:
 967              	.LFB253:
  37:src/unit/motor_drive/motor_drive.cpp ****       float target_rad_s[MOTOR_QTY];
 968              		.loc 1 37 160 is_stmt 1 view -0
 969              		.cfi_startproc
 970              		@ args = 0, pretend = 0, frame = 24
 971              		@ frame_needed = 0, uses_anonymous_args = 0
  37:src/unit/motor_drive/motor_drive.cpp ****       float target_rad_s[MOTOR_QTY];
 972              		.loc 1 37 160 is_stmt 0 view .LVU233
 973 0000 2DE9F047 		push	{r4, r5, r6, r7, r8, r9, r10, lr}
 974              		.save {r4, r5, r6, r7, r8, r9, r10, lr}
 975              	.LCFI6:
 976              		.cfi_def_cfa_offset 32
 977              		.cfi_offset 4, -32
 978              		.cfi_offset 5, -28
 979              		.cfi_offset 6, -24
 980              		.cfi_offset 7, -20
 981              		.cfi_offset 8, -16
 982              		.cfi_offset 9, -12
 983              		.cfi_offset 10, -8
 984              		.cfi_offset 14, -4
 985 0004 2DED068B 		vpush.64	{d8, d9, d10}
 986              		.vsave {d8, d9, d10}
 987              	.LCFI7:
 988              		.cfi_def_cfa_offset 56
 989              		.cfi_offset 80, -56
 990              		.cfi_offset 81, -52
 991              		.cfi_offset 82, -48
 992              		.cfi_offset 83, -44
 993              		.cfi_offset 84, -40
 994              		.cfi_offset 85, -36
 995              		.pad #32
 996 0008 88B0     		sub	sp, sp, #32
 997              	.LCFI8:
 998              		.cfi_def_cfa_offset 88
 999 000a 0446     		mov	r4, r0
 1000 000c 8946     		mov	r9, r1
 1001 000e F0EE408A 		vmov.f32	s17, s0
 1002 0012 B0EE608A 		vmov.f32	s16, s1
 1003 0016 1546     		mov	r5, r2
 1004 0018 F0EE419A 		vmov.f32	s19, s2
 1005 001c 9846     		mov	r8, r3
  38:src/unit/motor_drive/motor_drive.cpp ****       static float pre_target_rad_s[MOTOR_QTY];
 1006              		.loc 1 38 7 is_stmt 1 view .LVU234
  39:src/unit/motor_drive/motor_drive.cpp **** 
ARM GAS  /var/folders/5c/srt4fy4j1pd641bjfx75k5000000gn/T//ccfbDWTV.s 			page 23


 1007              		.loc 1 39 7 view .LVU235
  41:src/unit/motor_drive/motor_drive.cpp ****       static float move_speed = 0;
 1008              		.loc 1 41 7 view .LVU236
  42:src/unit/motor_drive/motor_drive.cpp **** 
 1009              		.loc 1 42 7 view .LVU237
  44:src/unit/motor_drive/motor_drive.cpp ****       dt_timer.reset();
 1010              		.loc 1 44 7 view .LVU238
  44:src/unit/motor_drive/motor_drive.cpp ****       dt_timer.reset();
 1011              		.loc 1 44 32 is_stmt 0 view .LVU239
 1012 001e 00F63C7A 		addw	r10, r0, #3900
 1013 0022 5046     		mov	r0, r10
 1014              	.LVL100:
  44:src/unit/motor_drive/motor_drive.cpp ****       dt_timer.reset();
 1015              		.loc 1 44 32 view .LVU240
 1016 0024 FFF7FEFF 		bl	_ZN5Timer4readEv
 1017              	.LVL101:
  44:src/unit/motor_drive/motor_drive.cpp ****       dt_timer.reset();
 1018              		.loc 1 44 32 view .LVU241
 1019 0028 57EC106B 		vmov	r6, r7, d0
 1020              	.LVL102:
  45:src/unit/motor_drive/motor_drive.cpp **** 
 1021              		.loc 1 45 7 is_stmt 1 view .LVU242
  45:src/unit/motor_drive/motor_drive.cpp **** 
 1022              		.loc 1 45 21 is_stmt 0 view .LVU243
 1023 002c 5046     		mov	r0, r10
 1024 002e FFF7FEFF 		bl	_ZN5Timer5resetEv
 1025              	.LVL103:
  47:src/unit/motor_drive/motor_drive.cpp ****             move_speed = 0;
 1026              		.loc 1 47 7 is_stmt 1 view .LVU244
 1027              	.LBB5:
 1028 0032 B6A3     		adr	r3, .L130+20
 1029 0034 D3E90023 		ldrd	r2, [r3]
 1030 0038 3046     		mov	r0, r6
 1031 003a 3946     		mov	r1, r7
 1032 003c FFF7FEFF 		bl	__aeabi_dcmpgt
 1033              	.LVL104:
 1034 0040 0028     		cmp	r0, #0
 1035 0042 5BD0     		beq	.L115
 1036              	.LBB6:
  48:src/unit/motor_drive/motor_drive.cpp ****             for (uint8_t i = 0; i < MOTOR_QTY; i++) motor_pid[i].ResetI();
 1037              		.loc 1 48 13 view .LVU245
  48:src/unit/motor_drive/motor_drive.cpp ****             for (uint8_t i = 0; i < MOTOR_QTY; i++) motor_pid[i].ResetI();
 1038              		.loc 1 48 24 is_stmt 0 view .LVU246
 1039 0044 AE4B     		ldr	r3, .L130+8
 1040 0046 0022     		movs	r2, #0
 1041 0048 1A60     		str	r2, [r3]	@ float
  49:src/unit/motor_drive/motor_drive.cpp ****       } else {
 1042              		.loc 1 49 13 is_stmt 1 view .LVU247
 1043              	.LVL105:
 1044              	.LBB7:
  49:src/unit/motor_drive/motor_drive.cpp ****       } else {
 1045              		.loc 1 49 26 is_stmt 0 view .LVU248
 1046 004a 0026     		movs	r6, #0
 1047              	.LVL106:
  49:src/unit/motor_drive/motor_drive.cpp ****       } else {
 1048              		.loc 1 49 13 view .LVU249
 1049 004c 09E0     		b	.L66
ARM GAS  /var/folders/5c/srt4fy4j1pd641bjfx75k5000000gn/T//ccfbDWTV.s 			page 24


 1050              	.LVL107:
 1051              	.L67:
  49:src/unit/motor_drive/motor_drive.cpp ****       } else {
 1052              		.loc 1 49 53 is_stmt 1 discriminator 4 view .LVU250
  49:src/unit/motor_drive/motor_drive.cpp ****       } else {
 1053              		.loc 1 49 72 is_stmt 0 discriminator 4 view .LVU251
 1054 004e 6820     		movs	r0, #104
 1055 0050 06FB00F0 		mul	r0, r6, r0
 1056 0054 00F55160 		add	r0, r0, #3344
 1057 0058 2044     		add	r0, r0, r4
 1058 005a FFF7FEFF 		bl	_ZN3PID6ResetIEv
 1059              	.LVL108:
  49:src/unit/motor_drive/motor_drive.cpp ****       } else {
 1060              		.loc 1 49 13 is_stmt 1 discriminator 4 view .LVU252
 1061 005e 0136     		adds	r6, r6, #1
 1062              	.LVL109:
  49:src/unit/motor_drive/motor_drive.cpp ****       } else {
 1063              		.loc 1 49 13 is_stmt 0 discriminator 4 view .LVU253
 1064 0060 F6B2     		uxtb	r6, r6
 1065              	.LVL110:
 1066              	.L66:
  49:src/unit/motor_drive/motor_drive.cpp ****       } else {
 1067              		.loc 1 49 35 is_stmt 1 discriminator 3 view .LVU254
 1068 0062 032E     		cmp	r6, #3
 1069 0064 F3D9     		bls	.L67
 1070              	.LVL111:
 1071              	.L68:
  49:src/unit/motor_drive/motor_drive.cpp ****       } else {
 1072              		.loc 1 49 35 is_stmt 0 discriminator 3 view .LVU255
 1073              	.LBE7:
 1074              	.LBE6:
 1075              	.LBE5:
  63:src/unit/motor_drive/motor_drive.cpp ****       float vel_y = move_speed * MyMath::sinDeg(target_move_dir);
 1076              		.loc 1 63 7 is_stmt 1 view .LVU256
  63:src/unit/motor_drive/motor_drive.cpp ****       float vel_y = move_speed * MyMath::sinDeg(target_move_dir);
 1077              		.loc 1 63 48 is_stmt 0 view .LVU257
 1078 0066 4846     		mov	r0, r9
 1079 0068 FFF7FEFF 		bl	cosDeg
 1080              	.LVL112:
  63:src/unit/motor_drive/motor_drive.cpp ****       float vel_y = move_speed * MyMath::sinDeg(target_move_dir);
 1081              		.loc 1 63 32 view .LVU258
 1082 006c A44E     		ldr	r6, .L130+8
 1083 006e 96ED00AA 		vldr.32	s20, [r6]
  63:src/unit/motor_drive/motor_drive.cpp ****       float vel_y = move_speed * MyMath::sinDeg(target_move_dir);
 1084              		.loc 1 63 64 view .LVU259
 1085 0072 2AEE00AA 		vmul.f32	s20, s20, s0
 1086              	.LVL113:
  64:src/unit/motor_drive/motor_drive.cpp **** 
 1087              		.loc 1 64 7 is_stmt 1 view .LVU260
  64:src/unit/motor_drive/motor_drive.cpp **** 
 1088              		.loc 1 64 48 is_stmt 0 view .LVU261
 1089 0076 4846     		mov	r0, r9
 1090 0078 FFF7FEFF 		bl	sinDeg
 1091              	.LVL114:
  64:src/unit/motor_drive/motor_drive.cpp **** 
 1092              		.loc 1 64 32 view .LVU262
 1093 007c D6ED00AA 		vldr.32	s21, [r6]
ARM GAS  /var/folders/5c/srt4fy4j1pd641bjfx75k5000000gn/T//ccfbDWTV.s 			page 25


  64:src/unit/motor_drive/motor_drive.cpp **** 
 1094              		.loc 1 64 64 view .LVU263
 1095 0080 6AEE80AA 		vmul.f32	s21, s21, s0
 1096              	.LVL115:
  66:src/unit/motor_drive/motor_drive.cpp ****             corrected_yaw_ = *vision_yaw_;
 1097              		.loc 1 66 7 is_stmt 1 view .LVU264
  66:src/unit/motor_drive/motor_drive.cpp ****             corrected_yaw_ = *vision_yaw_;
 1098              		.loc 1 66 12 is_stmt 0 view .LVU265
 1099 0084 D4F8203F 		ldr	r3, [r4, #3872]
  66:src/unit/motor_drive/motor_drive.cpp ****             corrected_yaw_ = *vision_yaw_;
 1100              		.loc 1 66 11 view .LVU266
 1101 0088 B3F90020 		ldrsh	r2, [r3]
  66:src/unit/motor_drive/motor_drive.cpp ****             corrected_yaw_ = *vision_yaw_;
 1102              		.loc 1 66 27 view .LVU267
 1103 008c B4F9243F 		ldrsh	r3, [r4, #3876]
  66:src/unit/motor_drive/motor_drive.cpp ****             corrected_yaw_ = *vision_yaw_;
 1104              		.loc 1 66 7 view .LVU268
 1105 0090 9A42     		cmp	r2, r3
 1106 0092 00F08180 		beq	.L75
  67:src/unit/motor_drive/motor_drive.cpp ****             pre_yaw_ = *yaw_;
 1107              		.loc 1 67 13 is_stmt 1 view .LVU269
  67:src/unit/motor_drive/motor_drive.cpp ****             pre_yaw_ = *yaw_;
 1108              		.loc 1 67 28 is_stmt 0 view .LVU270
 1109 0096 A4F8262F 		strh	r2, [r4, #3878]	@ movhi
  68:src/unit/motor_drive/motor_drive.cpp ****       } else {
 1110              		.loc 1 68 13 is_stmt 1 view .LVU271
  68:src/unit/motor_drive/motor_drive.cpp ****       } else {
 1111              		.loc 1 68 25 is_stmt 0 view .LVU272
 1112 009a D4F8183F 		ldr	r3, [r4, #3864]
  68:src/unit/motor_drive/motor_drive.cpp ****       } else {
 1113              		.loc 1 68 24 view .LVU273
 1114 009e B3F90030 		ldrsh	r3, [r3]
  68:src/unit/motor_drive/motor_drive.cpp ****       } else {
 1115              		.loc 1 68 22 view .LVU274
 1116 00a2 A4F81C3F 		strh	r3, [r4, #3868]	@ movhi
 1117              	.L76:
  72:src/unit/motor_drive/motor_drive.cpp ****       pre_vision_yaw_ = *vision_yaw_;
 1118              		.loc 1 72 7 is_stmt 1 view .LVU275
  72:src/unit/motor_drive/motor_drive.cpp ****       pre_vision_yaw_ = *vision_yaw_;
 1119              		.loc 1 72 47 is_stmt 0 view .LVU276
 1120 00a6 B4F9260F 		ldrsh	r0, [r4, #3878]
 1121 00aa FFF7FEFF 		bl	NormalizeDeg180
 1122              	.LVL116:
  72:src/unit/motor_drive/motor_drive.cpp ****       pre_vision_yaw_ = *vision_yaw_;
 1123              		.loc 1 72 22 view .LVU277
 1124 00ae 00B2     		sxth	r0, r0
 1125 00b0 A4F8260F 		strh	r0, [r4, #3878]	@ movhi
  73:src/unit/motor_drive/motor_drive.cpp ****       if (MyMath::GapDeg(corrected_yaw_, rotation_dir) < 180 && abs(corrected_yaw_ - rotation_dir) 
 1126              		.loc 1 73 7 is_stmt 1 view .LVU278
  73:src/unit/motor_drive/motor_drive.cpp ****       if (MyMath::GapDeg(corrected_yaw_, rotation_dir) < 180 && abs(corrected_yaw_ - rotation_dir) 
 1127              		.loc 1 73 26 is_stmt 0 view .LVU279
 1128 00b4 D4F8203F 		ldr	r3, [r4, #3872]
  73:src/unit/motor_drive/motor_drive.cpp ****       if (MyMath::GapDeg(corrected_yaw_, rotation_dir) < 180 && abs(corrected_yaw_ - rotation_dir) 
 1129              		.loc 1 73 25 view .LVU280
 1130 00b8 B3F90030 		ldrsh	r3, [r3]
  73:src/unit/motor_drive/motor_drive.cpp ****       if (MyMath::GapDeg(corrected_yaw_, rotation_dir) < 180 && abs(corrected_yaw_ - rotation_dir) 
 1131              		.loc 1 73 23 view .LVU281
ARM GAS  /var/folders/5c/srt4fy4j1pd641bjfx75k5000000gn/T//ccfbDWTV.s 			page 26


 1132 00bc A4F8243F 		strh	r3, [r4, #3876]	@ movhi
  74:src/unit/motor_drive/motor_drive.cpp ****             corrected_yaw_ = MyMath::NormalizeDeg(corrected_yaw_);
 1133              		.loc 1 74 7 is_stmt 1 view .LVU282
  74:src/unit/motor_drive/motor_drive.cpp ****             corrected_yaw_ = MyMath::NormalizeDeg(corrected_yaw_);
 1134              		.loc 1 74 25 is_stmt 0 view .LVU283
 1135 00c0 2946     		mov	r1, r5
 1136 00c2 FFF7FEFF 		bl	GapDeg
 1137              	.LVL117:
  74:src/unit/motor_drive/motor_drive.cpp ****             corrected_yaw_ = MyMath::NormalizeDeg(corrected_yaw_);
 1138              		.loc 1 74 62 view .LVU284
 1139 00c6 B328     		cmp	r0, #179
 1140 00c8 07DC     		bgt	.L77
  74:src/unit/motor_drive/motor_drive.cpp ****             corrected_yaw_ = MyMath::NormalizeDeg(corrected_yaw_);
 1141              		.loc 1 74 65 discriminator 2 view .LVU285
 1142 00ca B4F9260F 		ldrsh	r0, [r4, #3878]
 1143 00ce 431B     		subs	r3, r0, r5
 1144 00d0 002B     		cmp	r3, #0
 1145 00d2 B8BF     		it	lt
 1146 00d4 5B42     		rsblt	r3, r3, #0
  74:src/unit/motor_drive/motor_drive.cpp ****             corrected_yaw_ = MyMath::NormalizeDeg(corrected_yaw_);
 1147              		.loc 1 74 62 discriminator 2 view .LVU286
 1148 00d6 B42B     		cmp	r3, #180
 1149 00d8 6ADC     		bgt	.L119
 1150              	.LVL118:
 1151              	.L77:
  78:src/unit/motor_drive/motor_drive.cpp ****       for (uint8_t i = 0; i < MOTOR_QTY; i++) {
 1152              		.loc 1 78 7 is_stmt 1 view .LVU287
  78:src/unit/motor_drive/motor_drive.cpp ****       for (uint8_t i = 0; i < MOTOR_QTY; i++) {
 1153              		.loc 1 78 18 is_stmt 0 view .LVU288
 1154 00da 04F56B69 		add	r9, r4, #3760
  78:src/unit/motor_drive/motor_drive.cpp ****       for (uint8_t i = 0; i < MOTOR_QTY; i++) {
 1155              		.loc 1 78 19 view .LVU289
 1156 00de B4F9263F 		ldrsh	r3, [r4, #3878]
 1157 00e2 00EE103A 		vmov	s0, r3	@ int
  78:src/unit/motor_drive/motor_drive.cpp ****       for (uint8_t i = 0; i < MOTOR_QTY; i++) {
 1158              		.loc 1 78 18 view .LVU290
 1159 00e6 07EE905A 		vmov	s15, r5	@ int
 1160 00ea F8EEE70A 		vcvt.f32.s32	s1, s15
 1161 00ee B8EEC00A 		vcvt.f32.s32	s0, s0
 1162 00f2 4846     		mov	r0, r9
 1163 00f4 FFF7FEFF 		bl	_ZN3PID7ComputeEff
 1164              	.LVL119:
 1165              	.LBB9:
  79:src/unit/motor_drive/motor_drive.cpp ****             float robot_rotation_speed = pid.Get();
 1166              		.loc 1 79 20 view .LVU291
 1167 00f8 0025     		movs	r5, #0
 1168              	.LVL120:
  79:src/unit/motor_drive/motor_drive.cpp ****             float robot_rotation_speed = pid.Get();
 1169              		.loc 1 79 20 view .LVU292
 1170 00fa ADE0     		b	.L78
 1171              	.LVL121:
 1172              	.L115:
  79:src/unit/motor_drive/motor_drive.cpp ****             float robot_rotation_speed = pid.Get();
 1173              		.loc 1 79 20 view .LVU293
 1174              	.LBE9:
 1175              	.LBB12:
 1176              	.LBB8:
ARM GAS  /var/folders/5c/srt4fy4j1pd641bjfx75k5000000gn/T//ccfbDWTV.s 			page 27


  51:src/unit/motor_drive/motor_drive.cpp ****             if (move_acce == 0) {
 1177              		.loc 1 51 13 is_stmt 1 view .LVU294
  51:src/unit/motor_drive/motor_drive.cpp ****             if (move_acce == 0) {
 1178              		.loc 1 51 35 is_stmt 0 view .LVU295
 1179 00fc 18EE100A 		vmov	r0, s16
 1180 0100 FFF7FEFF 		bl	__aeabi_f2d
 1181              	.LVL122:
  51:src/unit/motor_drive/motor_drive.cpp ****             if (move_acce == 0) {
 1182              		.loc 1 51 20 view .LVU296
 1183 0104 3246     		mov	r2, r6
 1184 0106 3B46     		mov	r3, r7
 1185 0108 FFF7FEFF 		bl	__aeabi_dmul
 1186              	.LVL123:
 1187 010c 0646     		mov	r6, r0
 1188              	.LVL124:
  51:src/unit/motor_drive/motor_drive.cpp ****             if (move_acce == 0) {
 1189              		.loc 1 51 20 view .LVU297
 1190 010e 0F46     		mov	r7, r1
 1191              	.LVL125:
  52:src/unit/motor_drive/motor_drive.cpp ****                   move_speed = target_move_speed;
 1192              		.loc 1 52 13 is_stmt 1 view .LVU298
 1193 0110 B5EE408A 		vcmp.f32	s16, #0
 1194 0114 F1EE10FA 		vmrs	APSR_nzcv, FPSCR
 1195 0118 03D1     		bne	.L69
  53:src/unit/motor_drive/motor_drive.cpp ****             } else if (target_move_speed > move_speed) {
 1196              		.loc 1 53 19 view .LVU299
  53:src/unit/motor_drive/motor_drive.cpp ****             } else if (target_move_speed > move_speed) {
 1197              		.loc 1 53 30 is_stmt 0 view .LVU300
 1198 011a 794B     		ldr	r3, .L130+8
 1199 011c C3ED008A 		vstr.32	s17, [r3]
 1200 0120 A1E7     		b	.L68
 1201              	.L69:
  54:src/unit/motor_drive/motor_drive.cpp ****                   move_speed += speed_change;
 1202              		.loc 1 54 20 is_stmt 1 view .LVU301
  54:src/unit/motor_drive/motor_drive.cpp ****                   move_speed += speed_change;
 1203              		.loc 1 54 42 is_stmt 0 view .LVU302
 1204 0122 774B     		ldr	r3, .L130+8
 1205 0124 D3ED007A 		vldr.32	s15, [r3]
  54:src/unit/motor_drive/motor_drive.cpp ****                   move_speed += speed_change;
 1206              		.loc 1 54 20 view .LVU303
 1207 0128 F4EEE87A 		vcmpe.f32	s15, s17
 1208 012c F1EE10FA 		vmrs	APSR_nzcv, FPSCR
 1209 0130 15D5     		bpl	.L116
  55:src/unit/motor_drive/motor_drive.cpp ****                   if (move_speed > target_move_speed) move_speed = target_move_speed;
 1210              		.loc 1 55 19 is_stmt 1 view .LVU304
  55:src/unit/motor_drive/motor_drive.cpp ****                   if (move_speed > target_move_speed) move_speed = target_move_speed;
 1211              		.loc 1 55 30 is_stmt 0 view .LVU305
 1212 0132 17EE900A 		vmov	r0, s15
 1213 0136 FFF7FEFF 		bl	__aeabi_f2d
 1214              	.LVL126:
 1215 013a 3246     		mov	r2, r6
 1216 013c 3B46     		mov	r3, r7
 1217 013e FFF7FEFF 		bl	__aeabi_dadd
 1218              	.LVL127:
 1219 0142 FFF7FEFF 		bl	__aeabi_d2f
 1220              	.LVL128:
 1221 0146 07EE900A 		vmov	s15, r0
ARM GAS  /var/folders/5c/srt4fy4j1pd641bjfx75k5000000gn/T//ccfbDWTV.s 			page 28


 1222 014a 6D4B     		ldr	r3, .L130+8
 1223 014c 1860     		str	r0, [r3]	@ float
  56:src/unit/motor_drive/motor_drive.cpp ****             } else if (target_move_speed < move_speed) {
 1224              		.loc 1 56 19 is_stmt 1 view .LVU306
 1225 014e F4EEE87A 		vcmpe.f32	s15, s17
 1226 0152 F1EE10FA 		vmrs	APSR_nzcv, FPSCR
 1227 0156 86DD     		ble	.L68
  56:src/unit/motor_drive/motor_drive.cpp ****             } else if (target_move_speed < move_speed) {
 1228              		.loc 1 56 55 discriminator 1 view .LVU307
  56:src/unit/motor_drive/motor_drive.cpp ****             } else if (target_move_speed < move_speed) {
 1229              		.loc 1 56 66 is_stmt 0 discriminator 1 view .LVU308
 1230 0158 C3ED008A 		vstr.32	s17, [r3]
 1231 015c 83E7     		b	.L68
 1232              	.L116:
  57:src/unit/motor_drive/motor_drive.cpp ****                   move_speed -= speed_change;
 1233              		.loc 1 57 20 is_stmt 1 view .LVU309
 1234 015e F4EEE87A 		vcmpe.f32	s15, s17
 1235 0162 F1EE10FA 		vmrs	APSR_nzcv, FPSCR
 1236 0166 7FF77EAF 		ble	.L68
  58:src/unit/motor_drive/motor_drive.cpp ****                   if (move_speed < target_move_speed) move_speed = target_move_speed;
 1237              		.loc 1 58 19 view .LVU310
  58:src/unit/motor_drive/motor_drive.cpp ****                   if (move_speed < target_move_speed) move_speed = target_move_speed;
 1238              		.loc 1 58 30 is_stmt 0 view .LVU311
 1239 016a 17EE900A 		vmov	r0, s15
 1240 016e FFF7FEFF 		bl	__aeabi_f2d
 1241              	.LVL129:
 1242 0172 3246     		mov	r2, r6
 1243 0174 3B46     		mov	r3, r7
 1244 0176 FFF7FEFF 		bl	__aeabi_dsub
 1245              	.LVL130:
 1246 017a FFF7FEFF 		bl	__aeabi_d2f
 1247              	.LVL131:
 1248 017e 07EE900A 		vmov	s15, r0
 1249 0182 5F4B     		ldr	r3, .L130+8
 1250 0184 1860     		str	r0, [r3]	@ float
  59:src/unit/motor_drive/motor_drive.cpp ****             }
 1251              		.loc 1 59 19 is_stmt 1 view .LVU312
 1252 0186 F4EEE87A 		vcmpe.f32	s15, s17
 1253 018a F1EE10FA 		vmrs	APSR_nzcv, FPSCR
 1254 018e 7FF56AAF 		bpl	.L68
  59:src/unit/motor_drive/motor_drive.cpp ****             }
 1255              		.loc 1 59 55 discriminator 1 view .LVU313
  59:src/unit/motor_drive/motor_drive.cpp ****             }
 1256              		.loc 1 59 66 is_stmt 0 discriminator 1 view .LVU314
 1257 0192 C3ED008A 		vstr.32	s17, [r3]
 1258 0196 66E7     		b	.L68
 1259              	.LVL132:
 1260              	.L75:
  59:src/unit/motor_drive/motor_drive.cpp ****             }
 1261              		.loc 1 59 66 discriminator 1 view .LVU315
 1262              	.LBE8:
 1263              	.LBE12:
  70:src/unit/motor_drive/motor_drive.cpp ****       }
 1264              		.loc 1 70 13 is_stmt 1 view .LVU316
  70:src/unit/motor_drive/motor_drive.cpp ****       }
 1265              		.loc 1 70 31 is_stmt 0 view .LVU317
 1266 0198 D4F8182F 		ldr	r2, [r4, #3864]
ARM GAS  /var/folders/5c/srt4fy4j1pd641bjfx75k5000000gn/T//ccfbDWTV.s 			page 29


  70:src/unit/motor_drive/motor_drive.cpp ****       }
 1267              		.loc 1 70 30 view .LVU318
 1268 019c 1288     		ldrh	r2, [r2]
  70:src/unit/motor_drive/motor_drive.cpp ****       }
 1269              		.loc 1 70 38 view .LVU319
 1270 019e B4F81C1F 		ldrh	r1, [r4, #3868]
  70:src/unit/motor_drive/motor_drive.cpp ****       }
 1271              		.loc 1 70 36 view .LVU320
 1272 01a2 521A     		subs	r2, r2, r1
  70:src/unit/motor_drive/motor_drive.cpp ****       }
 1273              		.loc 1 70 49 view .LVU321
 1274 01a4 9BB2     		uxth	r3, r3
  70:src/unit/motor_drive/motor_drive.cpp ****       }
 1275              		.loc 1 70 47 view .LVU322
 1276 01a6 13FA82F3 		uxtah	r3, r3, r2
  70:src/unit/motor_drive/motor_drive.cpp ****       }
 1277              		.loc 1 70 28 view .LVU323
 1278 01aa A4F8263F 		strh	r3, [r4, #3878]	@ movhi
 1279 01ae 7AE7     		b	.L76
 1280              	.L119:
  75:src/unit/motor_drive/motor_drive.cpp ****             rotation_dir = MyMath::NormalizeDeg(rotation_dir);
 1281              		.loc 1 75 13 is_stmt 1 view .LVU324
  75:src/unit/motor_drive/motor_drive.cpp ****             rotation_dir = MyMath::NormalizeDeg(rotation_dir);
 1282              		.loc 1 75 50 is_stmt 0 view .LVU325
 1283 01b0 FFF7FEFF 		bl	NormalizeDeg
 1284              	.LVL133:
  75:src/unit/motor_drive/motor_drive.cpp ****             rotation_dir = MyMath::NormalizeDeg(rotation_dir);
 1285              		.loc 1 75 28 view .LVU326
 1286 01b4 A4F8260F 		strh	r0, [r4, #3878]	@ movhi
  76:src/unit/motor_drive/motor_drive.cpp ****       }
 1287              		.loc 1 76 13 is_stmt 1 view .LVU327
  76:src/unit/motor_drive/motor_drive.cpp ****       }
 1288              		.loc 1 76 48 is_stmt 0 view .LVU328
 1289 01b8 2846     		mov	r0, r5
 1290 01ba FFF7FEFF 		bl	NormalizeDeg
 1291              	.LVL134:
  76:src/unit/motor_drive/motor_drive.cpp ****       }
 1292              		.loc 1 76 26 view .LVU329
 1293 01be 05B2     		sxth	r5, r0
 1294              	.LVL135:
  76:src/unit/motor_drive/motor_drive.cpp ****       }
 1295              		.loc 1 76 26 view .LVU330
 1296 01c0 8BE7     		b	.L77
 1297              	.LVL136:
 1298              	.L122:
 1299              	.LBB13:
 1300              	.LBB10:
  81:src/unit/motor_drive/motor_drive.cpp ****             if (rotation_center == FRONT) {
 1301              		.loc 1 81 17 discriminator 2 view .LVU331
 1302 01c2 F1EE407A 		vneg.f32	s15, s0
 1303 01c6 55E0     		b	.L79
 1304              	.LVL137:
 1305              	.L123:
  83:src/unit/motor_drive/motor_drive.cpp ****                   if (i == 0 || i == 3) robot_rotation_speed = 0;
 1306              		.loc 1 83 19 is_stmt 1 view .LVU332
  83:src/unit/motor_drive/motor_drive.cpp ****                   if (i == 0 || i == 3) robot_rotation_speed = 0;
 1307              		.loc 1 83 40 is_stmt 0 view .LVU333
ARM GAS  /var/folders/5c/srt4fy4j1pd641bjfx75k5000000gn/T//ccfbDWTV.s 			page 30


 1308 01c8 38EE088A 		vadd.f32	s16, s16, s16
 1309              	.LVL138:
  84:src/unit/motor_drive/motor_drive.cpp ****             } else if (rotation_center == RIGHT) {
 1310              		.loc 1 84 19 is_stmt 1 view .LVU334
 1311 01cc 002D     		cmp	r5, #0
 1312 01ce 00F08480 		beq	.L100
  84:src/unit/motor_drive/motor_drive.cpp ****             } else if (rotation_center == RIGHT) {
 1313              		.loc 1 84 30 is_stmt 0 discriminator 2 view .LVU335
 1314 01d2 032D     		cmp	r5, #3
 1315 01d4 00F08480 		beq	.L120
 1316              	.LVL139:
 1317              	.L83:
  95:src/unit/motor_drive/motor_drive.cpp ****       }
 1318              		.loc 1 95 13 is_stmt 1 view .LVU336
  95:src/unit/motor_drive/motor_drive.cpp ****       }
 1319              		.loc 1 95 81 is_stmt 0 view .LVU337
 1320 01d8 5A26     		movs	r6, #90
 1321 01da 05FB06F6 		mul	r6, r5, r6
  95:src/unit/motor_drive/motor_drive.cpp ****       }
 1322              		.loc 1 95 71 view .LVU338
 1323 01de 2D36     		adds	r6, r6, #45
 1324 01e0 3046     		mov	r0, r6
 1325 01e2 FFF7FEFF 		bl	sinDeg
 1326              	.LVL140:
  95:src/unit/motor_drive/motor_drive.cpp ****       }
 1327              		.loc 1 95 55 view .LVU339
 1328 01e6 B1EE409A 		vneg.f32	s18, s0
  95:src/unit/motor_drive/motor_drive.cpp ****       }
 1329              		.loc 1 95 103 view .LVU340
 1330 01ea 2D20     		movs	r0, #45
 1331 01ec FFF7FEFF 		bl	cosDeg
 1332              	.LVL141:
  95:src/unit/motor_drive/motor_drive.cpp ****       }
 1333              		.loc 1 95 87 view .LVU341
 1334 01f0 29EE009A 		vmul.f32	s18, s18, s0
  95:src/unit/motor_drive/motor_drive.cpp ****       }
 1335              		.loc 1 95 108 view .LVU342
 1336 01f4 29EE0A9A 		vmul.f32	s18, s18, s20
  95:src/unit/motor_drive/motor_drive.cpp ****       }
 1337              		.loc 1 95 134 view .LVU343
 1338 01f8 3046     		mov	r0, r6
 1339 01fa FFF7FEFF 		bl	cosDeg
 1340              	.LVL142:
 1341 01fe F0EE408A 		vmov.f32	s17, s0
  95:src/unit/motor_drive/motor_drive.cpp ****       }
 1342              		.loc 1 95 166 view .LVU344
 1343 0202 2D20     		movs	r0, #45
 1344 0204 FFF7FEFF 		bl	cosDeg
 1345              	.LVL143:
  95:src/unit/motor_drive/motor_drive.cpp ****       }
 1346              		.loc 1 95 150 view .LVU345
 1347 0208 68EE808A 		vmul.f32	s17, s17, s0
  95:src/unit/motor_drive/motor_drive.cpp ****       }
 1348              		.loc 1 95 171 view .LVU346
 1349 020c 68EEAA8A 		vmul.f32	s17, s17, s21
  95:src/unit/motor_drive/motor_drive.cpp ****       }
 1350              		.loc 1 95 117 view .LVU347
ARM GAS  /var/folders/5c/srt4fy4j1pd641bjfx75k5000000gn/T//ccfbDWTV.s 			page 31


 1351 0210 79EE287A 		vadd.f32	s15, s18, s17
 1352 0214 17EE900A 		vmov	r0, s15
 1353 0218 FFF7FEFF 		bl	__aeabi_f2d
 1354              	.LVL144:
 1355 021c 0646     		mov	r6, r0
 1356 021e 0F46     		mov	r7, r1
  95:src/unit/motor_drive/motor_drive.cpp ****       }
 1357              		.loc 1 95 192 view .LVU348
 1358 0220 18EE100A 		vmov	r0, s16
 1359 0224 FFF7FEFF 		bl	__aeabi_f2d
 1360              	.LVL145:
  95:src/unit/motor_drive/motor_drive.cpp ****       }
 1361              		.loc 1 95 190 view .LVU349
 1362 0228 33A3     		adr	r3, .L130
 1363 022a D3E90023 		ldrd	r2, [r3]
 1364 022e FFF7FEFF 		bl	__aeabi_dmul
 1365              	.LVL146:
 1366 0232 0246     		mov	r2, r0
 1367 0234 0B46     		mov	r3, r1
  95:src/unit/motor_drive/motor_drive.cpp ****       }
 1368              		.loc 1 95 180 view .LVU350
 1369 0236 3046     		mov	r0, r6
 1370 0238 3946     		mov	r1, r7
 1371 023a FFF7FEFF 		bl	__aeabi_dadd
 1372              	.LVL147:
  95:src/unit/motor_drive/motor_drive.cpp ****       }
 1373              		.loc 1 95 48 view .LVU351
 1374 023e 0022     		movs	r2, #0
 1375 0240 304B     		ldr	r3, .L130+12
 1376 0242 FFF7FEFF 		bl	__aeabi_dmul
 1377              	.LVL148:
 1378 0246 FFF7FEFF 		bl	__aeabi_d2f
 1379              	.LVL149:
  95:src/unit/motor_drive/motor_drive.cpp ****       }
 1380              		.loc 1 95 29 view .LVU352
 1381 024a 08AB     		add	r3, sp, #32
 1382 024c 03EB8503 		add	r3, r3, r5, lsl #2
 1383 0250 43F8100C 		str	r0, [r3, #-16]	@ float
 1384              	.LBE10:
  79:src/unit/motor_drive/motor_drive.cpp ****             float robot_rotation_speed = pid.Get();
 1385              		.loc 1 79 7 is_stmt 1 view .LVU353
 1386 0254 0135     		adds	r5, r5, #1
 1387              	.LVL150:
  79:src/unit/motor_drive/motor_drive.cpp ****             float robot_rotation_speed = pid.Get();
 1388              		.loc 1 79 7 is_stmt 0 view .LVU354
 1389 0256 EDB2     		uxtb	r5, r5
 1390              	.LVL151:
 1391              	.L78:
  79:src/unit/motor_drive/motor_drive.cpp ****             float robot_rotation_speed = pid.Get();
 1392              		.loc 1 79 29 is_stmt 1 discriminator 2 view .LVU355
 1393 0258 032D     		cmp	r5, #3
 1394 025a 44D8     		bhi	.L121
 1395              	.LBB11:
  80:src/unit/motor_drive/motor_drive.cpp ****             if (abs(robot_rotation_speed) > rotation_speed && rotation_speed != 0) robot_rotation_s
 1396              		.loc 1 80 13 view .LVU356
  80:src/unit/motor_drive/motor_drive.cpp ****             if (abs(robot_rotation_speed) > rotation_speed && rotation_speed != 0) robot_rotation_s
 1397              		.loc 1 80 49 is_stmt 0 view .LVU357
ARM GAS  /var/folders/5c/srt4fy4j1pd641bjfx75k5000000gn/T//ccfbDWTV.s 			page 32


 1398 025c 4846     		mov	r0, r9
 1399 025e FFF7FEFF 		bl	_ZN3PID3GetEv
 1400              	.LVL152:
 1401 0262 B0EE408A 		vmov.f32	s16, s0
 1402              	.LVL153:
  81:src/unit/motor_drive/motor_drive.cpp ****             if (rotation_center == FRONT) {
 1403              		.loc 1 81 13 is_stmt 1 view .LVU358
  81:src/unit/motor_drive/motor_drive.cpp ****             if (rotation_center == FRONT) {
 1404              		.loc 1 81 17 is_stmt 0 view .LVU359
 1405 0266 B5EEC00A 		vcmpe.f32	s0, #0
 1406 026a F1EE10FA 		vmrs	APSR_nzcv, FPSCR
 1407 026e A8DD     		ble	.L122
 1408 0270 F0EE407A 		vmov.f32	s15, s0
 1409              	.L79:
  81:src/unit/motor_drive/motor_drive.cpp ****             if (rotation_center == FRONT) {
 1410              		.loc 1 81 13 discriminator 4 view .LVU360
 1411 0274 F4EEE97A 		vcmpe.f32	s15, s19
 1412 0278 F1EE10FA 		vmrs	APSR_nzcv, FPSCR
 1413 027c 08DD     		ble	.L80
  81:src/unit/motor_drive/motor_drive.cpp ****             if (rotation_center == FRONT) {
 1414              		.loc 1 81 60 discriminator 5 view .LVU361
 1415 027e F5EE409A 		vcmp.f32	s19, #0
 1416 0282 F1EE10FA 		vmrs	APSR_nzcv, FPSCR
 1417 0286 03D0     		beq	.L80
  81:src/unit/motor_drive/motor_drive.cpp ****             if (rotation_center == FRONT) {
 1418              		.loc 1 81 84 is_stmt 1 discriminator 10 view .LVU362
  81:src/unit/motor_drive/motor_drive.cpp ****             if (rotation_center == FRONT) {
 1419              		.loc 1 81 151 is_stmt 0 discriminator 10 view .LVU363
 1420 0288 87EE887A 		vdiv.f32	s14, s15, s16
  81:src/unit/motor_drive/motor_drive.cpp ****             if (rotation_center == FRONT) {
 1421              		.loc 1 81 105 discriminator 10 view .LVU364
 1422 028c 27EE298A 		vmul.f32	s16, s14, s19
 1423              	.LVL154:
 1424              	.L80:
  82:src/unit/motor_drive/motor_drive.cpp ****                   robot_rotation_speed *= 2;
 1425              		.loc 1 82 13 is_stmt 1 view .LVU365
 1426 0290 B8F1010F 		cmp	r8, #1
 1427 0294 98D0     		beq	.L123
  85:src/unit/motor_drive/motor_drive.cpp ****                   robot_rotation_speed *= 2;
 1428              		.loc 1 85 20 view .LVU366
 1429 0296 B8F1020F 		cmp	r8, #2
 1430 029a 0ED0     		beq	.L124
  88:src/unit/motor_drive/motor_drive.cpp ****                   robot_rotation_speed *= 2;
 1431              		.loc 1 88 20 view .LVU367
 1432 029c B8F1030F 		cmp	r8, #3
 1433 02a0 12D0     		beq	.L125
  91:src/unit/motor_drive/motor_drive.cpp ****                   robot_rotation_speed *= 2;
 1434              		.loc 1 91 20 view .LVU368
 1435 02a2 B8F1040F 		cmp	r8, #4
 1436 02a6 97D1     		bne	.L83
  92:src/unit/motor_drive/motor_drive.cpp ****                   if (i == 2 || i == 3) robot_rotation_speed = 0;
 1437              		.loc 1 92 19 view .LVU369
  92:src/unit/motor_drive/motor_drive.cpp ****                   if (i == 2 || i == 3) robot_rotation_speed = 0;
 1438              		.loc 1 92 40 is_stmt 0 view .LVU370
 1439 02a8 38EE088A 		vadd.f32	s16, s16, s16
 1440              	.LVL155:
  93:src/unit/motor_drive/motor_drive.cpp ****             }
ARM GAS  /var/folders/5c/srt4fy4j1pd641bjfx75k5000000gn/T//ccfbDWTV.s 			page 33


 1441              		.loc 1 93 19 is_stmt 1 view .LVU371
  93:src/unit/motor_drive/motor_drive.cpp ****             }
 1442              		.loc 1 93 30 is_stmt 0 view .LVU372
 1443 02ac AB1E     		subs	r3, r5, #2
 1444 02ae DBB2     		uxtb	r3, r3
  93:src/unit/motor_drive/motor_drive.cpp ****             }
 1445              		.loc 1 93 19 view .LVU373
 1446 02b0 012B     		cmp	r3, #1
 1447 02b2 91D8     		bhi	.L83
  93:src/unit/motor_drive/motor_drive.cpp ****             }
 1448              		.loc 1 93 62 view .LVU374
 1449 02b4 9FED148A 		vldr.32	s16, .L130+16
 1450              	.LVL156:
  93:src/unit/motor_drive/motor_drive.cpp ****             }
 1451              		.loc 1 93 62 view .LVU375
 1452 02b8 8EE7     		b	.L83
 1453              	.LVL157:
 1454              	.L124:
  86:src/unit/motor_drive/motor_drive.cpp ****                   if (i == 0 || i == 1) robot_rotation_speed = 0;
 1455              		.loc 1 86 19 is_stmt 1 view .LVU376
  86:src/unit/motor_drive/motor_drive.cpp ****                   if (i == 0 || i == 1) robot_rotation_speed = 0;
 1456              		.loc 1 86 40 is_stmt 0 view .LVU377
 1457 02ba 38EE088A 		vadd.f32	s16, s16, s16
 1458              	.LVL158:
  87:src/unit/motor_drive/motor_drive.cpp ****             } else if (rotation_center == BACK) {
 1459              		.loc 1 87 19 is_stmt 1 view .LVU378
 1460 02be 012D     		cmp	r5, #1
 1461 02c0 8AD8     		bhi	.L83
  87:src/unit/motor_drive/motor_drive.cpp ****             } else if (rotation_center == BACK) {
 1462              		.loc 1 87 62 is_stmt 0 view .LVU379
 1463 02c2 9FED118A 		vldr.32	s16, .L130+16
 1464              	.LVL159:
  87:src/unit/motor_drive/motor_drive.cpp ****             } else if (rotation_center == BACK) {
 1465              		.loc 1 87 62 view .LVU380
 1466 02c6 87E7     		b	.L83
 1467              	.LVL160:
 1468              	.L125:
  89:src/unit/motor_drive/motor_drive.cpp ****                   if (i == 1 || i == 2) robot_rotation_speed = 0;
 1469              		.loc 1 89 19 is_stmt 1 view .LVU381
  89:src/unit/motor_drive/motor_drive.cpp ****                   if (i == 1 || i == 2) robot_rotation_speed = 0;
 1470              		.loc 1 89 40 is_stmt 0 view .LVU382
 1471 02c8 38EE088A 		vadd.f32	s16, s16, s16
 1472              	.LVL161:
  90:src/unit/motor_drive/motor_drive.cpp ****             } else if (rotation_center == LEFT) {
 1473              		.loc 1 90 19 is_stmt 1 view .LVU383
  90:src/unit/motor_drive/motor_drive.cpp ****             } else if (rotation_center == LEFT) {
 1474              		.loc 1 90 30 is_stmt 0 view .LVU384
 1475 02cc 6B1E     		subs	r3, r5, #1
 1476 02ce DBB2     		uxtb	r3, r3
  90:src/unit/motor_drive/motor_drive.cpp ****             } else if (rotation_center == LEFT) {
 1477              		.loc 1 90 19 view .LVU385
 1478 02d0 012B     		cmp	r3, #1
 1479 02d2 81D8     		bhi	.L83
  90:src/unit/motor_drive/motor_drive.cpp ****             } else if (rotation_center == LEFT) {
 1480              		.loc 1 90 62 view .LVU386
 1481 02d4 9FED0C8A 		vldr.32	s16, .L130+16
 1482              	.LVL162:
ARM GAS  /var/folders/5c/srt4fy4j1pd641bjfx75k5000000gn/T//ccfbDWTV.s 			page 34


  90:src/unit/motor_drive/motor_drive.cpp ****             } else if (rotation_center == LEFT) {
 1483              		.loc 1 90 62 view .LVU387
 1484 02d8 7EE7     		b	.L83
 1485              	.LVL163:
 1486              	.L100:
  84:src/unit/motor_drive/motor_drive.cpp ****             } else if (rotation_center == RIGHT) {
 1487              		.loc 1 84 62 view .LVU388
 1488 02da 9FED0B8A 		vldr.32	s16, .L130+16
 1489              	.LVL164:
  84:src/unit/motor_drive/motor_drive.cpp ****             } else if (rotation_center == RIGHT) {
 1490              		.loc 1 84 62 view .LVU389
 1491 02de 7BE7     		b	.L83
 1492              	.LVL165:
 1493              	.L120:
  84:src/unit/motor_drive/motor_drive.cpp ****             } else if (rotation_center == RIGHT) {
 1494              		.loc 1 84 62 view .LVU390
 1495 02e0 9FED098A 		vldr.32	s16, .L130+16
 1496              	.LVL166:
  84:src/unit/motor_drive/motor_drive.cpp ****             } else if (rotation_center == RIGHT) {
 1497              		.loc 1 84 62 view .LVU391
 1498 02e4 78E7     		b	.L83
 1499              	.LVL167:
 1500              	.L121:
  84:src/unit/motor_drive/motor_drive.cpp ****             } else if (rotation_center == RIGHT) {
 1501              		.loc 1 84 62 view .LVU392
 1502              	.LBE11:
 1503              	.LBE13:
 1504              	.LBB14:
  99:src/unit/motor_drive/motor_drive.cpp ****             if (target_rad_s[i] == 0 || ((pre_target_rad_s[i] / abs(pre_target_rad_s[i])) != (targe
 1505              		.loc 1 99 20 view .LVU393
 1506 02e6 0025     		movs	r5, #0
 1507              	.LVL168:
  99:src/unit/motor_drive/motor_drive.cpp ****             if (target_rad_s[i] == 0 || ((pre_target_rad_s[i] / abs(pre_target_rad_s[i])) != (targe
 1508              		.loc 1 99 20 view .LVU394
 1509 02e8 55E0     		b	.L87
 1510              	.LVL169:
 1511              	.L128:
 100:src/unit/motor_drive/motor_drive.cpp ****             pre_target_rad_s[i] = target_rad_s[i];
 1512              		.loc 1 100 65 discriminator 4 view .LVU395
 1513 02ea F1EE676A 		vneg.f32	s13, s15
 1514 02ee 6BE0     		b	.L89
 1515              	.L129:
 100:src/unit/motor_drive/motor_drive.cpp ****             pre_target_rad_s[i] = target_rad_s[i];
 1516              		.loc 1 100 113 discriminator 8 view .LVU396
 1517 02f0 F1EE486A 		vneg.f32	s13, s16
 1518 02f4 71E0     		b	.L90
 1519              	.L131:
 1520 02f6 00BF     		.align	3
 1521              	.L130:
 1522 02f8 C3F5285C 		.word	1546188227
 1523 02fc 8FC2B53F 		.word	1068876431
 1524 0300 00000000 		.word	_ZZN10MotorDrive5DriveEsffsfhE10move_speed
 1525 0304 00004440 		.word	1078198272
 1526 0308 00000000 		.word	0
 1527 030c 9A999999 		.word	-1717986918
 1528 0310 9999B93F 		.word	1069128089
 1529              	.L88:
ARM GAS  /var/folders/5c/srt4fy4j1pd641bjfx75k5000000gn/T//ccfbDWTV.s 			page 35


 100:src/unit/motor_drive/motor_drive.cpp ****             pre_target_rad_s[i] = target_rad_s[i];
 1530              		.loc 1 100 137 is_stmt 1 discriminator 11 view .LVU397
 100:src/unit/motor_drive/motor_drive.cpp ****             pre_target_rad_s[i] = target_rad_s[i];
 1531              		.loc 1 100 156 is_stmt 0 discriminator 11 view .LVU398
 1532 0314 6820     		movs	r0, #104
 1533 0316 06FB00F0 		mul	r0, r6, r0
 1534 031a 00F55160 		add	r0, r0, #3344
 1535 031e 2044     		add	r0, r0, r4
 1536 0320 FFF7FEFF 		bl	_ZN3PID6ResetIEv
 1537              	.LVL170:
 1538              	.L91:
 101:src/unit/motor_drive/motor_drive.cpp ****             motor_pid[i].Compute(motor_abs_rad_s_[i], abs(target_rad_s[i]));
 1539              		.loc 1 101 13 is_stmt 1 view .LVU399
 101:src/unit/motor_drive/motor_drive.cpp ****             motor_pid[i].Compute(motor_abs_rad_s_[i], abs(target_rad_s[i]));
 1540              		.loc 1 101 33 is_stmt 0 view .LVU400
 1541 0324 844B     		ldr	r3, .L132+8
 1542 0326 03EB8603 		add	r3, r3, r6, lsl #2
 1543 032a 83ED008A 		vstr.32	s16, [r3]
 102:src/unit/motor_drive/motor_drive.cpp ****             if (target_rad_s[i] > 0) {
 1544              		.loc 1 102 13 is_stmt 1 view .LVU401
 102:src/unit/motor_drive/motor_drive.cpp ****             if (target_rad_s[i] > 0) {
 1545              		.loc 1 102 33 is_stmt 0 view .LVU402
 1546 032e 6827     		movs	r7, #104
 1547 0330 06FB07F7 		mul	r7, r6, r7
 1548 0334 07F55167 		add	r7, r7, #3344
 1549 0338 2744     		add	r7, r7, r4
 102:src/unit/motor_drive/motor_drive.cpp ****             if (target_rad_s[i] > 0) {
 1550              		.loc 1 102 34 view .LVU403
 1551 033a D4F8283F 		ldr	r3, [r4, #3880]
 102:src/unit/motor_drive/motor_drive.cpp ****             if (target_rad_s[i] > 0) {
 1552              		.loc 1 102 52 view .LVU404
 1553 033e 4FEA8508 		lsl	r8, r5, #2
 1554 0342 03EB8503 		add	r3, r3, r5, lsl #2
 102:src/unit/motor_drive/motor_drive.cpp ****             if (target_rad_s[i] > 0) {
 1555              		.loc 1 102 33 view .LVU405
 1556 0346 93ED000A 		vldr.32	s0, [r3]
 1557 034a B5EEC08A 		vcmpe.f32	s16, #0
 1558 034e F1EE10FA 		vmrs	APSR_nzcv, FPSCR
 1559 0352 4ADD     		ble	.L126
 1560 0354 F0EE480A 		vmov.f32	s1, s16
 1561              	.L92:
 102:src/unit/motor_drive/motor_drive.cpp ****             if (target_rad_s[i] > 0) {
 1562              		.loc 1 102 33 discriminator 4 view .LVU406
 1563 0358 3846     		mov	r0, r7
 1564 035a FFF7FEFF 		bl	_ZN3PID7ComputeEff
 1565              	.LVL171:
 103:src/unit/motor_drive/motor_drive.cpp ****                   power[i] = motor_pid[i].Get();
 1566              		.loc 1 103 13 is_stmt 1 discriminator 4 view .LVU407
 1567 035e B5EEC08A 		vcmpe.f32	s16, #0
 1568 0362 F1EE10FA 		vmrs	APSR_nzcv, FPSCR
 1569 0366 43DD     		ble	.L117
 104:src/unit/motor_drive/motor_drive.cpp ****                   motor_rad_s_[i] = motor_abs_rad_s_[i];
 1570              		.loc 1 104 19 view .LVU408
 104:src/unit/motor_drive/motor_drive.cpp ****                   motor_rad_s_[i] = motor_abs_rad_s_[i];
 1571              		.loc 1 104 46 is_stmt 0 view .LVU409
 1572 0368 3846     		mov	r0, r7
 1573 036a FFF7FEFF 		bl	_ZN3PID3GetEv
ARM GAS  /var/folders/5c/srt4fy4j1pd641bjfx75k5000000gn/T//ccfbDWTV.s 			page 36


 1574              	.LVL172:
 104:src/unit/motor_drive/motor_drive.cpp ****                   motor_rad_s_[i] = motor_abs_rad_s_[i];
 1575              		.loc 1 104 28 view .LVU410
 1576 036e 08AB     		add	r3, sp, #32
 1577 0370 03EB4603 		add	r3, r3, r6, lsl #1
 1578 0374 BDEEC00A 		vcvt.s32.f32	s0, s0
 1579 0378 10EE102A 		vmov	r2, s0	@ int
 1580 037c 23F8182C 		strh	r2, [r3, #-24]	@ movhi
 105:src/unit/motor_drive/motor_drive.cpp ****             } else {
 1581              		.loc 1 105 19 is_stmt 1 view .LVU411
 105:src/unit/motor_drive/motor_drive.cpp ****             } else {
 1582              		.loc 1 105 37 is_stmt 0 view .LVU412
 1583 0380 D4F8283F 		ldr	r3, [r4, #3880]
 105:src/unit/motor_drive/motor_drive.cpp ****             } else {
 1584              		.loc 1 105 55 view .LVU413
 1585 0384 4344     		add	r3, r3, r8
 1586 0386 1B68     		ldr	r3, [r3]	@ float
 105:src/unit/motor_drive/motor_drive.cpp ****             } else {
 1587              		.loc 1 105 35 view .LVU414
 1588 0388 06F2CA36 		addw	r6, r6, #970
 1589 038c 04EB8606 		add	r6, r4, r6, lsl #2
 1590 0390 7360     		str	r3, [r6, #4]	@ float
 1591              	.L95:
  99:src/unit/motor_drive/motor_drive.cpp ****             if (target_rad_s[i] == 0 || ((pre_target_rad_s[i] / abs(pre_target_rad_s[i])) != (targe
 1592              		.loc 1 99 7 is_stmt 1 discriminator 2 view .LVU415
 1593 0392 0135     		adds	r5, r5, #1
 1594              	.LVL173:
  99:src/unit/motor_drive/motor_drive.cpp ****             if (target_rad_s[i] == 0 || ((pre_target_rad_s[i] / abs(pre_target_rad_s[i])) != (targe
 1595              		.loc 1 99 7 is_stmt 0 discriminator 2 view .LVU416
 1596 0394 EDB2     		uxtb	r5, r5
 1597              	.LVL174:
 1598              	.L87:
  99:src/unit/motor_drive/motor_drive.cpp ****             if (target_rad_s[i] == 0 || ((pre_target_rad_s[i] / abs(pre_target_rad_s[i])) != (targe
 1599              		.loc 1 99 29 is_stmt 1 discriminator 1 view .LVU417
 1600 0396 032D     		cmp	r5, #3
 1601 0398 46D8     		bhi	.L127
 100:src/unit/motor_drive/motor_drive.cpp ****             pre_target_rad_s[i] = target_rad_s[i];
 1602              		.loc 1 100 13 view .LVU418
 100:src/unit/motor_drive/motor_drive.cpp ****             pre_target_rad_s[i] = target_rad_s[i];
 1603              		.loc 1 100 30 is_stmt 0 view .LVU419
 1604 039a 2E46     		mov	r6, r5
 100:src/unit/motor_drive/motor_drive.cpp ****             pre_target_rad_s[i] = target_rad_s[i];
 1605              		.loc 1 100 31 view .LVU420
 1606 039c 08AB     		add	r3, sp, #32
 1607 039e 03EB8503 		add	r3, r3, r5, lsl #2
 1608 03a2 13ED048A 		vldr.32	s16, [r3, #-16]
 100:src/unit/motor_drive/motor_drive.cpp ****             pre_target_rad_s[i] = target_rad_s[i];
 1609              		.loc 1 100 13 view .LVU421
 1610 03a6 B5EE408A 		vcmp.f32	s16, #0
 1611 03aa F1EE10FA 		vmrs	APSR_nzcv, FPSCR
 1612 03ae B1D0     		beq	.L88
 100:src/unit/motor_drive/motor_drive.cpp ****             pre_target_rad_s[i] = target_rad_s[i];
 1613              		.loc 1 100 61 discriminator 2 view .LVU422
 1614 03b0 614B     		ldr	r3, .L132+8
 1615 03b2 03EB8503 		add	r3, r3, r5, lsl #2
 1616 03b6 D3ED007A 		vldr.32	s15, [r3]
 100:src/unit/motor_drive/motor_drive.cpp ****             pre_target_rad_s[i] = target_rad_s[i];
ARM GAS  /var/folders/5c/srt4fy4j1pd641bjfx75k5000000gn/T//ccfbDWTV.s 			page 37


 1617              		.loc 1 100 65 discriminator 2 view .LVU423
 1618 03ba F5EEC07A 		vcmpe.f32	s15, #0
 1619 03be F1EE10FA 		vmrs	APSR_nzcv, FPSCR
 1620 03c2 92DD     		ble	.L128
 100:src/unit/motor_drive/motor_drive.cpp ****             pre_target_rad_s[i] = target_rad_s[i];
 1621              		.loc 1 100 65 view .LVU424
 1622 03c4 F0EE676A 		vmov.f32	s13, s15
 1623              	.L89:
 100:src/unit/motor_drive/motor_drive.cpp ****             pre_target_rad_s[i] = target_rad_s[i];
 1624              		.loc 1 100 63 discriminator 6 view .LVU425
 1625 03c8 87EEA67A 		vdiv.f32	s14, s15, s13
 100:src/unit/motor_drive/motor_drive.cpp ****             pre_target_rad_s[i] = target_rad_s[i];
 1626              		.loc 1 100 113 discriminator 6 view .LVU426
 1627 03cc B5EEC08A 		vcmpe.f32	s16, #0
 1628 03d0 F1EE10FA 		vmrs	APSR_nzcv, FPSCR
 1629 03d4 8CDD     		ble	.L129
 100:src/unit/motor_drive/motor_drive.cpp ****             pre_target_rad_s[i] = target_rad_s[i];
 1630              		.loc 1 100 113 view .LVU427
 1631 03d6 F0EE486A 		vmov.f32	s13, s16
 1632              	.L90:
 100:src/unit/motor_drive/motor_drive.cpp ****             pre_target_rad_s[i] = target_rad_s[i];
 1633              		.loc 1 100 111 discriminator 10 view .LVU428
 1634 03da C8EE267A 		vdiv.f32	s15, s16, s13
 100:src/unit/motor_drive/motor_drive.cpp ****             pre_target_rad_s[i] = target_rad_s[i];
 1635              		.loc 1 100 38 discriminator 10 view .LVU429
 1636 03de B4EE677A 		vcmp.f32	s14, s15
 1637 03e2 F1EE10FA 		vmrs	APSR_nzcv, FPSCR
 1638 03e6 9DD0     		beq	.L91
 1639 03e8 94E7     		b	.L88
 1640              	.L126:
 102:src/unit/motor_drive/motor_drive.cpp ****             if (target_rad_s[i] > 0) {
 1641              		.loc 1 102 33 discriminator 2 view .LVU430
 1642 03ea F1EE480A 		vneg.f32	s1, s16
 1643 03ee B3E7     		b	.L92
 1644              	.L117:
 107:src/unit/motor_drive/motor_drive.cpp ****                   motor_rad_s_[i] = -motor_abs_rad_s_[i];
 1645              		.loc 1 107 19 is_stmt 1 view .LVU431
 107:src/unit/motor_drive/motor_drive.cpp ****                   motor_rad_s_[i] = -motor_abs_rad_s_[i];
 1646              		.loc 1 107 47 is_stmt 0 view .LVU432
 1647 03f0 3846     		mov	r0, r7
 1648 03f2 FFF7FEFF 		bl	_ZN3PID3GetEv
 1649              	.LVL175:
 107:src/unit/motor_drive/motor_drive.cpp ****                   motor_rad_s_[i] = -motor_abs_rad_s_[i];
 1650              		.loc 1 107 30 view .LVU433
 1651 03f6 B1EE400A 		vneg.f32	s0, s0
 107:src/unit/motor_drive/motor_drive.cpp ****                   motor_rad_s_[i] = -motor_abs_rad_s_[i];
 1652              		.loc 1 107 28 view .LVU434
 1653 03fa 08AB     		add	r3, sp, #32
 1654 03fc 03EB4603 		add	r3, r3, r6, lsl #1
 1655 0400 BDEEC00A 		vcvt.s32.f32	s0, s0
 1656 0404 10EE102A 		vmov	r2, s0	@ int
 1657 0408 23F8182C 		strh	r2, [r3, #-24]	@ movhi
 108:src/unit/motor_drive/motor_drive.cpp ****             }
 1658              		.loc 1 108 19 is_stmt 1 view .LVU435
 108:src/unit/motor_drive/motor_drive.cpp ****             }
 1659              		.loc 1 108 38 is_stmt 0 view .LVU436
 1660 040c D4F8283F 		ldr	r3, [r4, #3880]
ARM GAS  /var/folders/5c/srt4fy4j1pd641bjfx75k5000000gn/T//ccfbDWTV.s 			page 38


 108:src/unit/motor_drive/motor_drive.cpp ****             }
 1661              		.loc 1 108 56 view .LVU437
 1662 0410 4344     		add	r3, r3, r8
 108:src/unit/motor_drive/motor_drive.cpp ****             }
 1663              		.loc 1 108 37 view .LVU438
 1664 0412 D3ED007A 		vldr.32	s15, [r3]
 1665 0416 F1EE677A 		vneg.f32	s15, s15
 108:src/unit/motor_drive/motor_drive.cpp ****             }
 1666              		.loc 1 108 35 view .LVU439
 1667 041a 06F2CA36 		addw	r6, r6, #970
 1668 041e 04EB8606 		add	r6, r4, r6, lsl #2
 1669 0422 C6ED017A 		vstr.32	s15, [r6, #4]
 1670 0426 B4E7     		b	.L95
 1671              	.L127:
 108:src/unit/motor_drive/motor_drive.cpp ****             }
 1672              		.loc 1 108 35 view .LVU440
 1673              	.LBE14:
 1674              	.LBB15:
 113:src/unit/motor_drive/motor_drive.cpp ****             motor_ave[i].Compute(power[i]);
 1675              		.loc 1 113 20 view .LVU441
 1676 0428 0026     		movs	r6, #0
 1677 042a 1CE0     		b	.L97
 1678              	.LVL176:
 1679              	.L98:
 114:src/unit/motor_drive/motor_drive.cpp ****             power[i] = motor_ave[i].Get();
 1680              		.loc 1 114 13 is_stmt 1 view .LVU442
 114:src/unit/motor_drive/motor_drive.cpp ****             power[i] = motor_ave[i].Get();
 1681              		.loc 1 114 33 is_stmt 0 view .LVU443
 1682 042c 4FF44E75 		mov	r5, #824
 1683 0430 06FB05F5 		mul	r5, r6, r5
 1684 0434 3035     		adds	r5, r5, #48
 1685 0436 2544     		add	r5, r5, r4
 114:src/unit/motor_drive/motor_drive.cpp ****             power[i] = motor_ave[i].Get();
 1686              		.loc 1 114 41 view .LVU444
 1687 0438 08AB     		add	r3, sp, #32
 1688 043a 03EB4607 		add	r7, r3, r6, lsl #1
 114:src/unit/motor_drive/motor_drive.cpp ****             power[i] = motor_ave[i].Get();
 1689              		.loc 1 114 33 view .LVU445
 1690 043e 37F9180C 		ldrsh	r0, [r7, #-24]
 1691 0442 FFF7FEFF 		bl	__aeabi_i2d
 1692              	.LVL177:
 1693 0446 41EC100B 		vmov	d0, r0, r1
 1694 044a 2846     		mov	r0, r5
 1695 044c FFF7FEFF 		bl	_ZN9MovingAve7ComputeEd
 1696              	.LVL178:
 115:src/unit/motor_drive/motor_drive.cpp ****       }
 1697              		.loc 1 115 13 is_stmt 1 view .LVU446
 115:src/unit/motor_drive/motor_drive.cpp ****       }
 1698              		.loc 1 115 40 is_stmt 0 view .LVU447
 1699 0450 2846     		mov	r0, r5
 1700 0452 FFF7FEFF 		bl	_ZN9MovingAve3GetEv
 1701              	.LVL179:
 1702 0456 51EC100B 		vmov	r0, r1, d0
 115:src/unit/motor_drive/motor_drive.cpp ****       }
 1703              		.loc 1 115 22 view .LVU448
 1704 045a FFF7FEFF 		bl	__aeabi_d2iz
 1705              	.LVL180:
ARM GAS  /var/folders/5c/srt4fy4j1pd641bjfx75k5000000gn/T//ccfbDWTV.s 			page 39


 1706 045e 27F8180C 		strh	r0, [r7, #-24]	@ movhi
 113:src/unit/motor_drive/motor_drive.cpp ****             motor_ave[i].Compute(power[i]);
 1707              		.loc 1 113 7 is_stmt 1 view .LVU449
 1708 0462 0136     		adds	r6, r6, #1
 1709              	.LVL181:
 113:src/unit/motor_drive/motor_drive.cpp ****             motor_ave[i].Compute(power[i]);
 1710              		.loc 1 113 7 is_stmt 0 view .LVU450
 1711 0464 F6B2     		uxtb	r6, r6
 1712              	.LVL182:
 1713              	.L97:
 113:src/unit/motor_drive/motor_drive.cpp ****             motor_ave[i].Compute(power[i]);
 1714              		.loc 1 113 29 is_stmt 1 discriminator 2 view .LVU451
 1715 0466 032E     		cmp	r6, #3
 1716 0468 E0D9     		bls	.L98
 1717              	.LBE15:
 118:src/unit/motor_drive/motor_drive.cpp ****       moving_vel_y = (WHEEL_R / 2.0f) * (-motor_rad_s_[0] - motor_rad_s_[1] + motor_rad_s_[2] + mot
 1718              		.loc 1 118 7 view .LVU452
 118:src/unit/motor_drive/motor_drive.cpp ****       moving_vel_y = (WHEEL_R / 2.0f) * (-motor_rad_s_[0] - motor_rad_s_[1] + motor_rad_s_[2] + mot
 1719              		.loc 1 118 56 is_stmt 0 view .LVU453
 1720 046a 04F62C73 		addw	r3, r4, #3884
 1721 046e D3ED008A 		vldr.32	s17, [r3]
 118:src/unit/motor_drive/motor_drive.cpp ****       moving_vel_y = (WHEEL_R / 2.0f) * (-motor_rad_s_[0] - motor_rad_s_[1] + motor_rad_s_[2] + mot
 1722              		.loc 1 118 74 view .LVU454
 1723 0472 04F57363 		add	r3, r4, #3888
 1724 0476 93ED00AA 		vldr.32	s20, [r3]
 1725              	.LVL183:
 118:src/unit/motor_drive/motor_drive.cpp ****       moving_vel_y = (WHEEL_R / 2.0f) * (-motor_rad_s_[0] - motor_rad_s_[1] + motor_rad_s_[2] + mot
 1726              		.loc 1 118 58 view .LVU455
 1727 047a 78EECA7A 		vsub.f32	s15, s17, s20
 118:src/unit/motor_drive/motor_drive.cpp ****       moving_vel_y = (WHEEL_R / 2.0f) * (-motor_rad_s_[0] - motor_rad_s_[1] + motor_rad_s_[2] + mot
 1728              		.loc 1 118 92 view .LVU456
 1729 047e 04F63473 		addw	r3, r4, #3892
 1730 0482 93ED009A 		vldr.32	s18, [r3]
 118:src/unit/motor_drive/motor_drive.cpp ****       moving_vel_y = (WHEEL_R / 2.0f) * (-motor_rad_s_[0] - motor_rad_s_[1] + motor_rad_s_[2] + mot
 1731              		.loc 1 118 76 view .LVU457
 1732 0486 77EEC97A 		vsub.f32	s15, s15, s18
 118:src/unit/motor_drive/motor_drive.cpp ****       moving_vel_y = (WHEEL_R / 2.0f) * (-motor_rad_s_[0] - motor_rad_s_[1] + motor_rad_s_[2] + mot
 1733              		.loc 1 118 110 view .LVU458
 1734 048a 04F63873 		addw	r3, r4, #3896
 1735 048e D3ED009A 		vldr.32	s19, [r3]
 1736              	.LVL184:
 118:src/unit/motor_drive/motor_drive.cpp ****       moving_vel_y = (WHEEL_R / 2.0f) * (-motor_rad_s_[0] - motor_rad_s_[1] + motor_rad_s_[2] + mot
 1737              		.loc 1 118 94 view .LVU459
 1738 0492 77EEA97A 		vadd.f32	s15, s15, s19
 1739 0496 17EE900A 		vmov	r0, s15
 1740 049a FFF7FEFF 		bl	__aeabi_f2d
 1741              	.LVL185:
 118:src/unit/motor_drive/motor_drive.cpp ****       moving_vel_y = (WHEEL_R / 2.0f) * (-motor_rad_s_[0] - motor_rad_s_[1] + motor_rad_s_[2] + mot
 1742              		.loc 1 118 39 view .LVU460
 1743 049e 24A3     		adr	r3, .L132
 1744 04a0 D3E90023 		ldrd	r2, [r3]
 1745 04a4 FFF7FEFF 		bl	__aeabi_dmul
 1746              	.LVL186:
 1747 04a8 FFF7FEFF 		bl	__aeabi_d2f
 1748              	.LVL187:
 1749 04ac 08EE100A 		vmov	s16, r0
 118:src/unit/motor_drive/motor_drive.cpp ****       moving_vel_y = (WHEEL_R / 2.0f) * (-motor_rad_s_[0] - motor_rad_s_[1] + motor_rad_s_[2] + mot
ARM GAS  /var/folders/5c/srt4fy4j1pd641bjfx75k5000000gn/T//ccfbDWTV.s 			page 40


 1750              		.loc 1 118 20 view .LVU461
 1751 04b0 2060     		str	r0, [r4]	@ float
 119:src/unit/motor_drive/motor_drive.cpp ****       moving_speed = MyMath::sqrt(moving_vel_x * moving_vel_x + moving_vel_y * moving_vel_y);
 1752              		.loc 1 119 7 is_stmt 1 view .LVU462
 119:src/unit/motor_drive/motor_drive.cpp ****       moving_speed = MyMath::sqrt(moving_vel_x * moving_vel_x + moving_vel_y * moving_vel_y);
 1753              		.loc 1 119 42 is_stmt 0 view .LVU463
 1754 04b2 F1EE688A 		vneg.f32	s17, s17
 119:src/unit/motor_drive/motor_drive.cpp ****       moving_speed = MyMath::sqrt(moving_vel_x * moving_vel_x + moving_vel_y * moving_vel_y);
 1755              		.loc 1 119 59 view .LVU464
 1756 04b6 78EECA8A 		vsub.f32	s17, s17, s20
 119:src/unit/motor_drive/motor_drive.cpp ****       moving_speed = MyMath::sqrt(moving_vel_x * moving_vel_x + moving_vel_y * moving_vel_y);
 1757              		.loc 1 119 77 view .LVU465
 1758 04ba 39EE289A 		vadd.f32	s18, s18, s17
 119:src/unit/motor_drive/motor_drive.cpp ****       moving_speed = MyMath::sqrt(moving_vel_x * moving_vel_x + moving_vel_y * moving_vel_y);
 1759              		.loc 1 119 95 view .LVU466
 1760 04be 79EE897A 		vadd.f32	s15, s19, s18
 1761 04c2 17EE900A 		vmov	r0, s15
 1762 04c6 FFF7FEFF 		bl	__aeabi_f2d
 1763              	.LVL188:
 119:src/unit/motor_drive/motor_drive.cpp ****       moving_speed = MyMath::sqrt(moving_vel_x * moving_vel_x + moving_vel_y * moving_vel_y);
 1764              		.loc 1 119 39 view .LVU467
 1765 04ca 19A3     		adr	r3, .L132
 1766 04cc D3E90023 		ldrd	r2, [r3]
 1767 04d0 FFF7FEFF 		bl	__aeabi_dmul
 1768              	.LVL189:
 1769 04d4 FFF7FEFF 		bl	__aeabi_d2f
 1770              	.LVL190:
 1771 04d8 07EE900A 		vmov	s15, r0
 119:src/unit/motor_drive/motor_drive.cpp ****       moving_speed = MyMath::sqrt(moving_vel_x * moving_vel_x + moving_vel_y * moving_vel_y);
 1772              		.loc 1 119 20 view .LVU468
 1773 04dc 6060     		str	r0, [r4, #4]	@ float
 120:src/unit/motor_drive/motor_drive.cpp ****       moving_dir = MyMath::atan2(moving_vel_x, moving_vel_y);
 1774              		.loc 1 120 7 is_stmt 1 view .LVU469
 120:src/unit/motor_drive/motor_drive.cpp ****       moving_dir = MyMath::atan2(moving_vel_x, moving_vel_y);
 1775              		.loc 1 120 48 is_stmt 0 view .LVU470
 1776 04de 28EE088A 		vmul.f32	s16, s16, s16
 120:src/unit/motor_drive/motor_drive.cpp ****       moving_dir = MyMath::atan2(moving_vel_x, moving_vel_y);
 1777              		.loc 1 120 78 view .LVU471
 1778 04e2 67EEA77A 		vmul.f32	s15, s15, s15
 120:src/unit/motor_drive/motor_drive.cpp ****       moving_dir = MyMath::atan2(moving_vel_x, moving_vel_y);
 1779              		.loc 1 120 34 view .LVU472
 1780 04e6 38EE270A 		vadd.f32	s0, s16, s15
 1781 04ea FFF7FEFF 		bl	sqrt
 1782              	.LVL191:
 120:src/unit/motor_drive/motor_drive.cpp ****       moving_dir = MyMath::atan2(moving_vel_x, moving_vel_y);
 1783              		.loc 1 120 20 view .LVU473
 1784 04ee 84ED020A 		vstr.32	s0, [r4, #8]
 121:src/unit/motor_drive/motor_drive.cpp **** 
 1785              		.loc 1 121 7 is_stmt 1 view .LVU474
 121:src/unit/motor_drive/motor_drive.cpp **** 
 1786              		.loc 1 121 33 is_stmt 0 view .LVU475
 1787 04f2 D4ED010A 		vldr.32	s1, [r4, #4]
 1788 04f6 94ED000A 		vldr.32	s0, [r4]
 1789 04fa FFF7FEFF 		bl	atan2
 1790              	.LVL192:
 1791 04fe 07EE900A 		vmov	s15, r0	@ int
 121:src/unit/motor_drive/motor_drive.cpp **** 
ARM GAS  /var/folders/5c/srt4fy4j1pd641bjfx75k5000000gn/T//ccfbDWTV.s 			page 41


 1792              		.loc 1 121 18 view .LVU476
 1793 0502 F8EEE77A 		vcvt.f32.s32	s15, s15
 1794 0506 C4ED037A 		vstr.32	s15, [r4, #12]
 123:src/unit/motor_drive/motor_drive.cpp **** }
 1795              		.loc 1 123 7 is_stmt 1 view .LVU477
 123:src/unit/motor_drive/motor_drive.cpp **** }
 1796              		.loc 1 123 10 is_stmt 0 view .LVU478
 1797 050a BDF90E30 		ldrsh	r3, [sp, #14]
 1798 050e 0093     		str	r3, [sp]
 1799 0510 BDF90C30 		ldrsh	r3, [sp, #12]
 1800 0514 BDF90A20 		ldrsh	r2, [sp, #10]
 1801 0518 BDF90810 		ldrsh	r1, [sp, #8]
 1802 051c 2046     		mov	r0, r4
 1803 051e FFF7FEFF 		bl	_ZN10MotorDrive3RunEssss
 1804              	.LVL193:
 124:src/unit/motor_drive/motor_drive.cpp **** 
 1805              		.loc 1 124 1 view .LVU479
 1806 0522 08B0     		add	sp, sp, #32
 1807              	.LCFI9:
 1808              		.cfi_def_cfa_offset 56
 1809              		@ sp needed
 1810 0524 BDEC068B 		vldm	sp!, {d8-d10}
 1811              	.LCFI10:
 1812              		.cfi_restore 84
 1813              		.cfi_restore 85
 1814              		.cfi_restore 82
 1815              		.cfi_restore 83
 1816              		.cfi_restore 80
 1817              		.cfi_restore 81
 1818              		.cfi_def_cfa_offset 32
 1819 0528 BDE8F087 		pop	{r4, r5, r6, r7, r8, r9, r10, pc}
 1820              	.LVL194:
 1821              	.L133:
 124:src/unit/motor_drive/motor_drive.cpp **** 
 1822              		.loc 1 124 1 view .LVU480
 1823 052c AFF30080 		.align	3
 1824              	.L132:
 1825 0530 9A999999 		.word	-1717986918
 1826 0534 9999893F 		.word	1065982361
 1827 0538 00000000 		.word	_ZZN10MotorDrive5DriveEsffsfhE16pre_target_rad_s
 1828              		.cfi_endproc
 1829              	.LFE253:
 1830              		.fnend
 1832              		.section	.text._ZN10MotorDrive5BrakeEt,"ax",%progbits
 1833              		.align	1
 1834              		.global	_ZN10MotorDrive5BrakeEt
 1835              		.syntax unified
 1836              		.thumb
 1837              		.thumb_func
 1839              	_ZN10MotorDrive5BrakeEt:
 1840              		.fnstart
 1841              	.LVL195:
 1842              	.LFB255:
 161:src/unit/motor_drive/motor_drive.cpp **** 
 162:src/unit/motor_drive/motor_drive.cpp **** void MotorDrive::Brake(uint16_t time) {
 1843              		.loc 1 162 39 is_stmt 1 view -0
 1844              		.cfi_startproc
ARM GAS  /var/folders/5c/srt4fy4j1pd641bjfx75k5000000gn/T//ccfbDWTV.s 			page 42


 1845              		@ args = 0, pretend = 0, frame = 0
 1846              		@ frame_needed = 0, uses_anonymous_args = 0
 1847              		.loc 1 162 39 is_stmt 0 view .LVU482
 1848 0000 38B5     		push	{r3, r4, r5, lr}
 1849              		.save {r3, r4, r5, lr}
 1850              	.LCFI11:
 1851              		.cfi_def_cfa_offset 16
 1852              		.cfi_offset 3, -16
 1853              		.cfi_offset 4, -12
 1854              		.cfi_offset 5, -8
 1855              		.cfi_offset 14, -4
 1856 0002 0446     		mov	r4, r0
 1857 0004 0D46     		mov	r5, r1
 163:src/unit/motor_drive/motor_drive.cpp ****       motor1a_->write(1);
 1858              		.loc 1 163 7 is_stmt 1 view .LVU483
 1859              		.loc 1 163 22 is_stmt 0 view .LVU484
 1860 0006 B7EE000A 		vmov.f32	s0, #1.0e+0
 1861 000a 0069     		ldr	r0, [r0, #16]
 1862              	.LVL196:
 1863              		.loc 1 163 22 view .LVU485
 1864 000c FFF7FEFF 		bl	_ZN12PwmSingleOut5writeEf
 1865              	.LVL197:
 164:src/unit/motor_drive/motor_drive.cpp ****       motor1b_->write(1);
 1866              		.loc 1 164 7 is_stmt 1 view .LVU486
 1867              		.loc 1 164 22 is_stmt 0 view .LVU487
 1868 0010 B7EE000A 		vmov.f32	s0, #1.0e+0
 1869 0014 6069     		ldr	r0, [r4, #20]
 1870 0016 FFF7FEFF 		bl	_ZN12PwmSingleOut5writeEf
 1871              	.LVL198:
 165:src/unit/motor_drive/motor_drive.cpp ****       motor2a_->write(1);
 1872              		.loc 1 165 7 is_stmt 1 view .LVU488
 1873              		.loc 1 165 22 is_stmt 0 view .LVU489
 1874 001a B7EE000A 		vmov.f32	s0, #1.0e+0
 1875 001e A069     		ldr	r0, [r4, #24]
 1876 0020 FFF7FEFF 		bl	_ZN12PwmSingleOut5writeEf
 1877              	.LVL199:
 166:src/unit/motor_drive/motor_drive.cpp ****       motor2b_->write(1);
 1878              		.loc 1 166 7 is_stmt 1 view .LVU490
 1879              		.loc 1 166 22 is_stmt 0 view .LVU491
 1880 0024 B7EE000A 		vmov.f32	s0, #1.0e+0
 1881 0028 E069     		ldr	r0, [r4, #28]
 1882 002a FFF7FEFF 		bl	_ZN12PwmSingleOut5writeEf
 1883              	.LVL200:
 167:src/unit/motor_drive/motor_drive.cpp ****       motor3a_->write(1);
 1884              		.loc 1 167 7 is_stmt 1 view .LVU492
 1885              		.loc 1 167 22 is_stmt 0 view .LVU493
 1886 002e B7EE000A 		vmov.f32	s0, #1.0e+0
 1887 0032 206A     		ldr	r0, [r4, #32]
 1888 0034 FFF7FEFF 		bl	_ZN12PwmSingleOut5writeEf
 1889              	.LVL201:
 168:src/unit/motor_drive/motor_drive.cpp ****       motor3b_->write(1);
 1890              		.loc 1 168 7 is_stmt 1 view .LVU494
 1891              		.loc 1 168 22 is_stmt 0 view .LVU495
 1892 0038 B7EE000A 		vmov.f32	s0, #1.0e+0
 1893 003c 606A     		ldr	r0, [r4, #36]
 1894 003e FFF7FEFF 		bl	_ZN12PwmSingleOut5writeEf
 1895              	.LVL202:
ARM GAS  /var/folders/5c/srt4fy4j1pd641bjfx75k5000000gn/T//ccfbDWTV.s 			page 43


 169:src/unit/motor_drive/motor_drive.cpp ****       motor4a_->write(1);
 1896              		.loc 1 169 7 is_stmt 1 view .LVU496
 1897              		.loc 1 169 22 is_stmt 0 view .LVU497
 1898 0042 B7EE000A 		vmov.f32	s0, #1.0e+0
 1899 0046 A06A     		ldr	r0, [r4, #40]
 1900 0048 FFF7FEFF 		bl	_ZN12PwmSingleOut5writeEf
 1901              	.LVL203:
 170:src/unit/motor_drive/motor_drive.cpp ****       motor4b_->write(1);
 1902              		.loc 1 170 7 is_stmt 1 view .LVU498
 1903              		.loc 1 170 22 is_stmt 0 view .LVU499
 1904 004c B7EE000A 		vmov.f32	s0, #1.0e+0
 1905 0050 E06A     		ldr	r0, [r4, #44]
 1906 0052 FFF7FEFF 		bl	_ZN12PwmSingleOut5writeEf
 1907              	.LVL204:
 171:src/unit/motor_drive/motor_drive.cpp ****       HAL_Delay(time);
 1908              		.loc 1 171 7 is_stmt 1 view .LVU500
 1909              		.loc 1 171 16 is_stmt 0 view .LVU501
 1910 0056 2846     		mov	r0, r5
 1911 0058 FFF7FEFF 		bl	HAL_Delay
 1912              	.LVL205:
 172:src/unit/motor_drive/motor_drive.cpp **** }
 1913              		.loc 1 172 1 view .LVU502
 1914 005c 38BD     		pop	{r3, r4, r5, pc}
 1915              		.loc 1 172 1 view .LVU503
 1916              		.cfi_endproc
 1917              	.LFE255:
 1918              		.fnend
 1920              		.section	.text._ZN10MotorDrive4FreeEv,"ax",%progbits
 1921              		.align	1
 1922              		.global	_ZN10MotorDrive4FreeEv
 1923              		.syntax unified
 1924              		.thumb
 1925              		.thumb_func
 1927              	_ZN10MotorDrive4FreeEv:
 1928              		.fnstart
 1929              	.LVL206:
 1930              	.LFB256:
 173:src/unit/motor_drive/motor_drive.cpp **** 
 174:src/unit/motor_drive/motor_drive.cpp **** void MotorDrive::Free() {
 1931              		.loc 1 174 25 is_stmt 1 view -0
 1932              		.cfi_startproc
 1933              		@ args = 0, pretend = 0, frame = 0
 1934              		@ frame_needed = 0, uses_anonymous_args = 0
 1935              		.loc 1 174 25 is_stmt 0 view .LVU505
 1936 0000 10B5     		push	{r4, lr}
 1937              	.LCFI12:
 1938              		.cfi_def_cfa_offset 8
 1939              		.cfi_offset 4, -8
 1940              		.cfi_offset 14, -4
 1941 0002 2DED028B 		vpush.64	{d8}
 1942              	.LCFI13:
 1943              		.cfi_def_cfa_offset 16
 1944              		.cfi_offset 80, -16
 1945              		.cfi_offset 81, -12
 1946 0006 0446     		mov	r4, r0
 175:src/unit/motor_drive/motor_drive.cpp ****       motor1a_->write(0);
 1947              		.loc 1 175 7 is_stmt 1 view .LVU506
ARM GAS  /var/folders/5c/srt4fy4j1pd641bjfx75k5000000gn/T//ccfbDWTV.s 			page 44


 1948              		.loc 1 175 22 is_stmt 0 view .LVU507
 1949 0008 9FED168A 		vldr.32	s16, .L138
 1950 000c B0EE480A 		vmov.f32	s0, s16
 1951 0010 0069     		ldr	r0, [r0, #16]
 1952              	.LVL207:
 1953              		.loc 1 175 22 view .LVU508
 1954 0012 FFF7FEFF 		bl	_ZN12PwmSingleOut5writeEf
 1955              	.LVL208:
 176:src/unit/motor_drive/motor_drive.cpp ****       motor1b_->write(0);
 1956              		.loc 1 176 7 is_stmt 1 view .LVU509
 1957              		.loc 1 176 22 is_stmt 0 view .LVU510
 1958 0016 B0EE480A 		vmov.f32	s0, s16
 1959 001a 6069     		ldr	r0, [r4, #20]
 1960 001c FFF7FEFF 		bl	_ZN12PwmSingleOut5writeEf
 1961              	.LVL209:
 177:src/unit/motor_drive/motor_drive.cpp ****       motor2a_->write(0);
 1962              		.loc 1 177 7 is_stmt 1 view .LVU511
 1963              		.loc 1 177 22 is_stmt 0 view .LVU512
 1964 0020 B0EE480A 		vmov.f32	s0, s16
 1965 0024 A069     		ldr	r0, [r4, #24]
 1966 0026 FFF7FEFF 		bl	_ZN12PwmSingleOut5writeEf
 1967              	.LVL210:
 178:src/unit/motor_drive/motor_drive.cpp ****       motor2b_->write(0);
 1968              		.loc 1 178 7 is_stmt 1 view .LVU513
 1969              		.loc 1 178 22 is_stmt 0 view .LVU514
 1970 002a B0EE480A 		vmov.f32	s0, s16
 1971 002e E069     		ldr	r0, [r4, #28]
 1972 0030 FFF7FEFF 		bl	_ZN12PwmSingleOut5writeEf
 1973              	.LVL211:
 179:src/unit/motor_drive/motor_drive.cpp ****       motor3a_->write(0);
 1974              		.loc 1 179 7 is_stmt 1 view .LVU515
 1975              		.loc 1 179 22 is_stmt 0 view .LVU516
 1976 0034 B0EE480A 		vmov.f32	s0, s16
 1977 0038 206A     		ldr	r0, [r4, #32]
 1978 003a FFF7FEFF 		bl	_ZN12PwmSingleOut5writeEf
 1979              	.LVL212:
 180:src/unit/motor_drive/motor_drive.cpp ****       motor3b_->write(0);
 1980              		.loc 1 180 7 is_stmt 1 view .LVU517
 1981              		.loc 1 180 22 is_stmt 0 view .LVU518
 1982 003e B0EE480A 		vmov.f32	s0, s16
 1983 0042 606A     		ldr	r0, [r4, #36]
 1984 0044 FFF7FEFF 		bl	_ZN12PwmSingleOut5writeEf
 1985              	.LVL213:
 181:src/unit/motor_drive/motor_drive.cpp ****       motor4a_->write(0);
 1986              		.loc 1 181 7 is_stmt 1 view .LVU519
 1987              		.loc 1 181 22 is_stmt 0 view .LVU520
 1988 0048 B0EE480A 		vmov.f32	s0, s16
 1989 004c A06A     		ldr	r0, [r4, #40]
 1990 004e FFF7FEFF 		bl	_ZN12PwmSingleOut5writeEf
 1991              	.LVL214:
 182:src/unit/motor_drive/motor_drive.cpp ****       motor4b_->write(0);
 1992              		.loc 1 182 7 is_stmt 1 view .LVU521
 1993              		.loc 1 182 22 is_stmt 0 view .LVU522
 1994 0052 B0EE480A 		vmov.f32	s0, s16
 1995 0056 E06A     		ldr	r0, [r4, #44]
 1996 0058 FFF7FEFF 		bl	_ZN12PwmSingleOut5writeEf
 1997              	.LVL215:
ARM GAS  /var/folders/5c/srt4fy4j1pd641bjfx75k5000000gn/T//ccfbDWTV.s 			page 45


 183:src/unit/motor_drive/motor_drive.cpp **** }
 1998              		.loc 1 183 1 view .LVU523
 1999 005c BDEC028B 		vldm	sp!, {d8}
 2000              	.LCFI14:
 2001              		.cfi_restore 80
 2002              		.cfi_restore 81
 2003              		.cfi_def_cfa_offset 8
 2004 0060 10BD     		pop	{r4, pc}
 2005              	.LVL216:
 2006              	.L139:
 2007              		.loc 1 183 1 view .LVU524
 2008 0062 00BF     		.align	2
 2009              	.L138:
 2010 0064 00000000 		.word	0
 2011              		.cfi_endproc
 2012              	.LFE256:
 2013              		.cantunwind
 2014              		.fnend
 2016              		.section	.text._ZN10MotorDrive15CheckConnectionEv,"ax",%progbits
 2017              		.align	1
 2018              		.global	_ZN10MotorDrive15CheckConnectionEv
 2019              		.syntax unified
 2020              		.thumb
 2021              		.thumb_func
 2023              	_ZN10MotorDrive15CheckConnectionEv:
 2024              		.fnstart
 2025              	.LVL217:
 2026              	.LFB257:
 184:src/unit/motor_drive/motor_drive.cpp **** 
 185:src/unit/motor_drive/motor_drive.cpp **** void MotorDrive::CheckConnection() {
 2027              		.loc 1 185 36 is_stmt 1 view -0
 2028              		.cfi_startproc
 2029              		@ args = 0, pretend = 0, frame = 0
 2030              		@ frame_needed = 0, uses_anonymous_args = 0
 2031              		.loc 1 185 36 is_stmt 0 view .LVU526
 2032 0000 10B5     		push	{r4, lr}
 2033              		.save {r4, lr}
 2034              	.LCFI15:
 2035              		.cfi_def_cfa_offset 8
 2036              		.cfi_offset 4, -8
 2037              		.cfi_offset 14, -4
 2038 0002 0446     		mov	r4, r0
 186:src/unit/motor_drive/motor_drive.cpp ****       // 接続チェック
 187:src/unit/motor_drive/motor_drive.cpp ****       motor1a_->sound(700, CHECK_SPEED);
 2039              		.loc 1 187 7 is_stmt 1 view .LVU527
 2040              		.loc 1 187 22 is_stmt 0 view .LVU528
 2041 0004 6422     		movs	r2, #100
 2042 0006 4FF42F71 		mov	r1, #700
 2043 000a 0069     		ldr	r0, [r0, #16]
 2044              	.LVL218:
 2045              		.loc 1 187 22 view .LVU529
 2046 000c FFF7FEFF 		bl	_ZN12PwmSingleOut5soundEtt
 2047              	.LVL219:
 188:src/unit/motor_drive/motor_drive.cpp ****       motor2a_->sound(800, CHECK_SPEED);
 2048              		.loc 1 188 7 is_stmt 1 view .LVU530
 2049              		.loc 1 188 22 is_stmt 0 view .LVU531
 2050 0010 6422     		movs	r2, #100
ARM GAS  /var/folders/5c/srt4fy4j1pd641bjfx75k5000000gn/T//ccfbDWTV.s 			page 46


 2051 0012 4FF44871 		mov	r1, #800
 2052 0016 A069     		ldr	r0, [r4, #24]
 2053 0018 FFF7FEFF 		bl	_ZN12PwmSingleOut5soundEtt
 2054              	.LVL220:
 189:src/unit/motor_drive/motor_drive.cpp ****       motor3a_->sound(900, CHECK_SPEED);
 2055              		.loc 1 189 7 is_stmt 1 view .LVU532
 2056              		.loc 1 189 22 is_stmt 0 view .LVU533
 2057 001c 6422     		movs	r2, #100
 2058 001e 4FF46171 		mov	r1, #900
 2059 0022 206A     		ldr	r0, [r4, #32]
 2060 0024 FFF7FEFF 		bl	_ZN12PwmSingleOut5soundEtt
 2061              	.LVL221:
 190:src/unit/motor_drive/motor_drive.cpp ****       motor4a_->sound(1000, CHECK_SPEED);
 2062              		.loc 1 190 7 is_stmt 1 view .LVU534
 2063              		.loc 1 190 22 is_stmt 0 view .LVU535
 2064 0028 6422     		movs	r2, #100
 2065 002a 4FF47A71 		mov	r1, #1000
 2066 002e A06A     		ldr	r0, [r4, #40]
 2067 0030 FFF7FEFF 		bl	_ZN12PwmSingleOut5soundEtt
 2068              	.LVL222:
 191:src/unit/motor_drive/motor_drive.cpp ****       motor1b_->sound(700, CHECK_SPEED);
 2069              		.loc 1 191 7 is_stmt 1 view .LVU536
 2070              		.loc 1 191 22 is_stmt 0 view .LVU537
 2071 0034 6422     		movs	r2, #100
 2072 0036 4FF42F71 		mov	r1, #700
 2073 003a 6069     		ldr	r0, [r4, #20]
 2074 003c FFF7FEFF 		bl	_ZN12PwmSingleOut5soundEtt
 2075              	.LVL223:
 192:src/unit/motor_drive/motor_drive.cpp ****       motor2b_->sound(800, CHECK_SPEED);
 2076              		.loc 1 192 7 is_stmt 1 view .LVU538
 2077              		.loc 1 192 22 is_stmt 0 view .LVU539
 2078 0040 6422     		movs	r2, #100
 2079 0042 4FF44871 		mov	r1, #800
 2080 0046 E069     		ldr	r0, [r4, #28]
 2081 0048 FFF7FEFF 		bl	_ZN12PwmSingleOut5soundEtt
 2082              	.LVL224:
 193:src/unit/motor_drive/motor_drive.cpp ****       motor3b_->sound(900, CHECK_SPEED);
 2083              		.loc 1 193 7 is_stmt 1 view .LVU540
 2084              		.loc 1 193 22 is_stmt 0 view .LVU541
 2085 004c 6422     		movs	r2, #100
 2086 004e 4FF46171 		mov	r1, #900
 2087 0052 606A     		ldr	r0, [r4, #36]
 2088 0054 FFF7FEFF 		bl	_ZN12PwmSingleOut5soundEtt
 2089              	.LVL225:
 194:src/unit/motor_drive/motor_drive.cpp ****       motor4b_->sound(1000, CHECK_SPEED);
 2090              		.loc 1 194 7 is_stmt 1 view .LVU542
 2091              		.loc 1 194 22 is_stmt 0 view .LVU543
 2092 0058 6422     		movs	r2, #100
 2093 005a 4FF47A71 		mov	r1, #1000
 2094 005e E06A     		ldr	r0, [r4, #44]
 2095 0060 FFF7FEFF 		bl	_ZN12PwmSingleOut5soundEtt
 2096              	.LVL226:
 195:src/unit/motor_drive/motor_drive.cpp **** }...
 2097              		.loc 1 195 1 view .LVU544
 2098 0064 10BD     		pop	{r4, pc}
 2099              		.loc 1 195 1 view .LVU545
 2100              		.cfi_endproc
ARM GAS  /var/folders/5c/srt4fy4j1pd641bjfx75k5000000gn/T//ccfbDWTV.s 			page 47


 2101              	.LFE257:
 2102              		.fnend
 2104              		.section	.bss._ZZN10MotorDrive5DriveEsffsfhE10move_speed,"aw",%nobits
 2105              		.align	2
 2108              	_ZZN10MotorDrive5DriveEsffsfhE10move_speed:
 2109 0000 00000000 		.space	4
 2110              		.section	.bss._ZZN10MotorDrive5DriveEsffsfhE16pre_target_rad_s,"aw",%nobits
 2111              		.align	2
 2114              	_ZZN10MotorDrive5DriveEsffsfhE16pre_target_rad_s:
 2115 0000 00000000 		.space	16
 2115      00000000 
 2115      00000000 
 2115      00000000 
 2116              		.text
 2117              	.Letext0:
 2118              		.file 3 "/opt/ST/STM32CubeCLT_1.16.0/GNU-tools-for-STM32/arm-none-eabi/include/machine/_default_ty
 2119              		.file 4 "/opt/ST/STM32CubeCLT_1.16.0/GNU-tools-for-STM32/arm-none-eabi/include/sys/_stdint.h"
 2120              		.file 5 "Drivers/CMSIS/Device/ST/STM32F4xx/Include/stm32f446xx.h"
 2121              		.file 6 "/opt/ST/STM32CubeCLT_1.16.0/GNU-tools-for-STM32/lib/gcc/arm-none-eabi/12.3.1/include/stdd
 2122              		.file 7 "Drivers/STM32F4xx_HAL_Driver/Inc/stm32f4xx_hal_def.h"
 2123              		.file 8 "Drivers/STM32F4xx_HAL_Driver/Inc/stm32f4xx_hal_dma.h"
 2124              		.file 9 "Drivers/STM32F4xx_HAL_Driver/Inc/stm32f4xx_hal_tim.h"
 2125              		.file 10 "Lib/MovingAve/MovingAve.hpp"
 2126              		.file 11 "/opt/ST/STM32CubeCLT_1.16.0/GNU-tools-for-STM32/arm-none-eabi/include/c++/12.3.1/cstdio"
 2127              		.file 12 "/opt/ST/STM32CubeCLT_1.16.0/GNU-tools-for-STM32/arm-none-eabi/include/c++/12.3.1/arm-non
 2128              		.file 13 "/opt/ST/STM32CubeCLT_1.16.0/GNU-tools-for-STM32/arm-none-eabi/include/sys/_types.h"
 2129              		.file 14 "/opt/ST/STM32CubeCLT_1.16.0/GNU-tools-for-STM32/arm-none-eabi/include/sys/reent.h"
 2130              		.file 15 "/opt/ST/STM32CubeCLT_1.16.0/GNU-tools-for-STM32/arm-none-eabi/include/sys/lock.h"
 2131              		.file 16 "/opt/ST/STM32CubeCLT_1.16.0/GNU-tools-for-STM32/arm-none-eabi/include/stdio.h"
 2132              		.file 17 "Lib/Timer/Timer.hpp"
 2133              		.file 18 "Lib/pid/pid.hpp"
 2134              		.file 19 "src/unit/motor_drive/motor_drive.hpp"
 2135              		.file 20 "Drivers/STM32F4xx_HAL_Driver/Inc/stm32f4xx_hal.h"
 2136              		.file 21 "Lib/MyMath/MyMath.hpp"
 2137              		.file 22 "Drivers/CMSIS/Device/ST/STM32F4xx/Include/system_stm32f4xx.h"
 2138              		.file 23 "Core/Inc/main.h"
ARM GAS  /var/folders/5c/srt4fy4j1pd641bjfx75k5000000gn/T//ccfbDWTV.s 			page 48

