ARM GAS  /var/folders/5c/srt4fy4j1pd641bjfx75k5000000gn/T//ccvAokLV.s 			page 1


   1              		.cpu cortex-m4
   2              		.arch armv7e-m
   3              		.fpu fpv4-sp-d16
   4              		.eabi_attribute 27, 1
   5              		.eabi_attribute 28, 1
   6              		.eabi_attribute 20, 1
   7              		.eabi_attribute 21, 1
   8              		.eabi_attribute 23, 3
   9              		.eabi_attribute 24, 1
  10              		.eabi_attribute 25, 1
  11              		.eabi_attribute 26, 1
  12              		.eabi_attribute 30, 1
  13              		.eabi_attribute 34, 1
  14              		.eabi_attribute 18, 4
  15              		.file	"robot.cpp"
  16              		.text
  17              	.Ltext0:
  18              		.cfi_sections	.debug_frame
  19              		.file 1 "src/unit/robot/robot.cpp"
  20              		.section	.text._ZN14BufferedSerial9availableEv,"axG",%progbits,_ZN14BufferedSerial9availableEv,com
  21              		.align	1
  22              		.weak	_ZN14BufferedSerial9availableEv
  23              		.syntax unified
  24              		.thumb
  25              		.thumb_func
  27              	_ZN14BufferedSerial9availableEv:
  28              		.fnstart
  29              	.LVL0:
  30              	.LFB247:
  31              		.file 2 "Lib/BufferedSerial/BufferedSerial.hpp"
   1:Lib/BufferedSerial/BufferedSerial.hpp **** #ifndef __BUFFERED_SERIAL__
   2:Lib/BufferedSerial/BufferedSerial.hpp **** #define __BUFFERED_SERIAL__
   3:Lib/BufferedSerial/BufferedSerial.hpp **** 
   4:Lib/BufferedSerial/BufferedSerial.hpp **** #include <stdio.h>
   5:Lib/BufferedSerial/BufferedSerial.hpp **** 
   6:Lib/BufferedSerial/BufferedSerial.hpp **** #include "usart.h"
   7:Lib/BufferedSerial/BufferedSerial.hpp **** 
   8:Lib/BufferedSerial/BufferedSerial.hpp **** #ifdef __cplusplus
   9:Lib/BufferedSerial/BufferedSerial.hpp **** 
  10:Lib/BufferedSerial/BufferedSerial.hpp **** /*
  11:Lib/BufferedSerial/BufferedSerial.hpp ****  Initの順番をDMAが先になるようにする
  12:Lib/BufferedSerial/BufferedSerial.hpp ****  - MX_DMA_Init();
  13:Lib/BufferedSerial/BufferedSerial.hpp ****  - MX_USART2_UART_Init();
  14:Lib/BufferedSerial/BufferedSerial.hpp ****  - DMAはCircularモードにする
  15:Lib/BufferedSerial/BufferedSerial.hpp **** */
  16:Lib/BufferedSerial/BufferedSerial.hpp **** 
  17:Lib/BufferedSerial/BufferedSerial.hpp **** class BufferedSerial {
  18:Lib/BufferedSerial/BufferedSerial.hpp ****      public:
  19:Lib/BufferedSerial/BufferedSerial.hpp ****       BufferedSerial(UART_HandleTypeDef *huart, uint16_t rxBufSize)
  20:Lib/BufferedSerial/BufferedSerial.hpp ****           : _huart(huart),
  21:Lib/BufferedSerial/BufferedSerial.hpp ****             _rxBuf(new uint8_t[rxBufSize]),
  22:Lib/BufferedSerial/BufferedSerial.hpp ****             rxTop(0),
  23:Lib/BufferedSerial/BufferedSerial.hpp ****             rxBtm(0),
  24:Lib/BufferedSerial/BufferedSerial.hpp ****             _rxBufSize(rxBufSize),
  25:Lib/BufferedSerial/BufferedSerial.hpp ****             _useDMA(false) {}
  26:Lib/BufferedSerial/BufferedSerial.hpp ****       ~BufferedSerial() {
  27:Lib/BufferedSerial/BufferedSerial.hpp ****             delete[] _rxBuf;
ARM GAS  /var/folders/5c/srt4fy4j1pd641bjfx75k5000000gn/T//ccvAokLV.s 			page 2


  28:Lib/BufferedSerial/BufferedSerial.hpp ****       }
  29:Lib/BufferedSerial/BufferedSerial.hpp **** 
  30:Lib/BufferedSerial/BufferedSerial.hpp ****       void init(bool dma = false) {
  31:Lib/BufferedSerial/BufferedSerial.hpp ****             _useDMA = dma;
  32:Lib/BufferedSerial/BufferedSerial.hpp ****             HAL_UART_Receive_DMA(_huart, _rxBuf, _rxBufSize);
  33:Lib/BufferedSerial/BufferedSerial.hpp ****       }
  34:Lib/BufferedSerial/BufferedSerial.hpp **** 
  35:Lib/BufferedSerial/BufferedSerial.hpp ****       bool available() {
  32              		.loc 2 35 12 view -0
  33              		.cfi_startproc
  34              		@ args = 0, pretend = 0, frame = 0
  35              		@ frame_needed = 0, uses_anonymous_args = 0
  36              		.loc 2 35 12 is_stmt 0 view .LVU1
  37 0000 10B5     		push	{r4, lr}
  38              		.save {r4, lr}
  39              	.LCFI0:
  40              		.cfi_def_cfa_offset 8
  41              		.cfi_offset 4, -8
  42              		.cfi_offset 14, -4
  43 0002 0446     		mov	r4, r0
  36:Lib/BufferedSerial/BufferedSerial.hpp ****             if (__HAL_UART_GET_FLAG(_huart, UART_FLAG_ORE) ||
  44              		.loc 2 36 13 is_stmt 1 view .LVU2
  45              		.loc 2 36 17 is_stmt 0 view .LVU3
  46 0004 0068     		ldr	r0, [r0]
  47              	.LVL1:
  48              		.loc 2 36 17 view .LVU4
  49 0006 0368     		ldr	r3, [r0]
  50 0008 1A68     		ldr	r2, [r3]
  37:Lib/BufferedSerial/BufferedSerial.hpp ****                 __HAL_UART_GET_FLAG(_huart, UART_FLAG_NE) ||
  38:Lib/BufferedSerial/BufferedSerial.hpp ****                 __HAL_UART_GET_FLAG(_huart, UART_FLAG_FE) ||
  51              		.loc 2 38 59 view .LVU5
  52 000a 12F0080F 		tst	r2, #8
  53 000e 0BD1     		bne	.L2
  37:Lib/BufferedSerial/BufferedSerial.hpp ****                 __HAL_UART_GET_FLAG(_huart, UART_FLAG_NE) ||
  54              		.loc 2 37 17 view .LVU6
  55 0010 1A68     		ldr	r2, [r3]
  36:Lib/BufferedSerial/BufferedSerial.hpp ****             if (__HAL_UART_GET_FLAG(_huart, UART_FLAG_ORE) ||
  56              		.loc 2 36 60 view .LVU7
  57 0012 12F0040F 		tst	r2, #4
  58 0016 07D1     		bne	.L2
  59              		.loc 2 38 17 view .LVU8
  60 0018 1A68     		ldr	r2, [r3]
  37:Lib/BufferedSerial/BufferedSerial.hpp ****                 __HAL_UART_GET_FLAG(_huart, UART_FLAG_NE) ||
  61              		.loc 2 37 59 view .LVU9
  62 001a 12F0020F 		tst	r2, #2
  63 001e 03D1     		bne	.L2
  39:Lib/BufferedSerial/BufferedSerial.hpp ****                 __HAL_UART_GET_FLAG(_huart, UART_FLAG_PE)) {
  64              		.loc 2 39 17 discriminator 2 view .LVU10
  65 0020 1B68     		ldr	r3, [r3]
  38:Lib/BufferedSerial/BufferedSerial.hpp ****                 __HAL_UART_GET_FLAG(_huart, UART_FLAG_PE)) {
  66              		.loc 2 38 59 discriminator 2 view .LVU11
  67 0022 13F0010F 		tst	r3, #1
  68 0026 06D0     		beq	.L3
  69              	.L2:
  40:Lib/BufferedSerial/BufferedSerial.hpp ****                   HAL_UART_Abort(_huart); /* エラークリア */
  70              		.loc 2 40 19 is_stmt 1 view .LVU12
  71              		.loc 2 40 33 is_stmt 0 view .LVU13
ARM GAS  /var/folders/5c/srt4fy4j1pd641bjfx75k5000000gn/T//ccvAokLV.s 			page 3


  72 0028 FFF7FEFF 		bl	HAL_UART_Abort
  73              	.LVL2:
  41:Lib/BufferedSerial/BufferedSerial.hpp ****                   HAL_UART_Receive_DMA(_huart, _rxBuf, _rxBufSize);
  74              		.loc 2 41 19 is_stmt 1 view .LVU14
  75              		.loc 2 41 39 is_stmt 0 view .LVU15
  76 002c A289     		ldrh	r2, [r4, #12]
  77 002e 6168     		ldr	r1, [r4, #4]
  78 0030 2068     		ldr	r0, [r4]
  79 0032 FFF7FEFF 		bl	HAL_UART_Receive_DMA
  80              	.LVL3:
  81              	.L3:
  42:Lib/BufferedSerial/BufferedSerial.hpp ****             }
  43:Lib/BufferedSerial/BufferedSerial.hpp ****             rxTop = _rxBufSize - _huart->hdmarx->Instance->NDTR;
  82              		.loc 2 43 13 is_stmt 1 view .LVU16
  83              		.loc 2 43 21 is_stmt 0 view .LVU17
  84 0036 A389     		ldrh	r3, [r4, #12]
  85              		.loc 2 43 34 view .LVU18
  86 0038 2268     		ldr	r2, [r4]
  87              		.loc 2 43 42 view .LVU19
  88 003a D26B     		ldr	r2, [r2, #60]
  89              		.loc 2 43 50 view .LVU20
  90 003c 1268     		ldr	r2, [r2]
  91              		.loc 2 43 60 view .LVU21
  92 003e 5268     		ldr	r2, [r2, #4]
  93              		.loc 2 43 32 view .LVU22
  94 0040 9B1A     		subs	r3, r3, r2
  95 0042 9BB2     		uxth	r3, r3
  96              		.loc 2 43 19 view .LVU23
  97 0044 2381     		strh	r3, [r4, #8]	@ movhi
  44:Lib/BufferedSerial/BufferedSerial.hpp ****             return rxTop != rxBtm;
  98              		.loc 2 44 13 is_stmt 1 view .LVU24
  99              		.loc 2 44 29 is_stmt 0 view .LVU25
 100 0046 6089     		ldrh	r0, [r4, #10]
  45:Lib/BufferedSerial/BufferedSerial.hpp ****       }
 101              		.loc 2 45 7 view .LVU26
 102 0048 C01A     		subs	r0, r0, r3
 103 004a 18BF     		it	ne
 104 004c 0120     		movne	r0, #1
 105 004e 10BD     		pop	{r4, pc}
 106              		.loc 2 45 7 view .LVU27
 107              		.cfi_endproc
 108              	.LFE247:
 109              		.fnend
 111              		.section	.text._ZN14BufferedSerial4readEv,"axG",%progbits,_ZN14BufferedSerial4readEv,comdat
 112              		.align	1
 113              		.weak	_ZN14BufferedSerial4readEv
 114              		.syntax unified
 115              		.thumb
 116              		.thumb_func
 118              	_ZN14BufferedSerial4readEv:
 119              		.fnstart
 120              	.LVL4:
 121              	.LFB248:
  46:Lib/BufferedSerial/BufferedSerial.hpp **** 
  47:Lib/BufferedSerial/BufferedSerial.hpp ****       uint8_t read() {
 122              		.loc 2 47 15 is_stmt 1 view -0
 123              		.cfi_startproc
ARM GAS  /var/folders/5c/srt4fy4j1pd641bjfx75k5000000gn/T//ccvAokLV.s 			page 4


 124              		@ args = 0, pretend = 0, frame = 0
 125              		@ frame_needed = 0, uses_anonymous_args = 0
 126              		@ link register save eliminated.
 127              		.loc 2 47 15 is_stmt 0 view .LVU29
 128 0000 0346     		mov	r3, r0
  48:Lib/BufferedSerial/BufferedSerial.hpp ****             rxTop = _rxBufSize - _huart->hdmarx->Instance->NDTR;
 129              		.loc 2 48 13 is_stmt 1 view .LVU30
 130              		.loc 2 48 21 is_stmt 0 view .LVU31
 131 0002 B0F80CC0 		ldrh	ip, [r0, #12]
 132              		.loc 2 48 34 view .LVU32
 133 0006 0268     		ldr	r2, [r0]
 134              		.loc 2 48 42 view .LVU33
 135 0008 D26B     		ldr	r2, [r2, #60]
 136              		.loc 2 48 50 view .LVU34
 137 000a 1268     		ldr	r2, [r2]
 138              		.loc 2 48 60 view .LVU35
 139 000c 5168     		ldr	r1, [r2, #4]
 140              		.loc 2 48 32 view .LVU36
 141 000e ACEB0101 		sub	r1, ip, r1
 142 0012 89B2     		uxth	r1, r1
 143              		.loc 2 48 19 view .LVU37
 144 0014 0181     		strh	r1, [r0, #8]	@ movhi
  49:Lib/BufferedSerial/BufferedSerial.hpp ****             if (rxTop == rxBtm) {
 145              		.loc 2 49 13 is_stmt 1 view .LVU38
 146              		.loc 2 49 26 is_stmt 0 view .LVU39
 147 0016 4289     		ldrh	r2, [r0, #10]
 148              		.loc 2 49 13 view .LVU40
 149 0018 9142     		cmp	r1, r2
 150 001a 08D0     		beq	.L7
  50:Lib/BufferedSerial/BufferedSerial.hpp ****                   return 0;
  51:Lib/BufferedSerial/BufferedSerial.hpp ****             }
  52:Lib/BufferedSerial/BufferedSerial.hpp ****             uint8_t data = _rxBuf[rxBtm];
 151              		.loc 2 52 13 is_stmt 1 view .LVU41
 152              		.loc 2 52 28 is_stmt 0 view .LVU42
 153 001c 4168     		ldr	r1, [r0, #4]
 154              		.loc 2 52 21 view .LVU43
 155 001e 885C     		ldrb	r0, [r1, r2]	@ zero_extendqisi2
 156              	.LVL5:
  53:Lib/BufferedSerial/BufferedSerial.hpp ****             rxBtm = (rxBtm + 1) % _rxBufSize;
 157              		.loc 2 53 13 is_stmt 1 view .LVU44
 158              		.loc 2 53 28 is_stmt 0 view .LVU45
 159 0020 0132     		adds	r2, r2, #1
 160              		.loc 2 53 33 view .LVU46
 161 0022 92FBFCF1 		sdiv	r1, r2, ip
 162 0026 0CFB1122 		mls	r2, ip, r1, r2
 163              		.loc 2 53 19 view .LVU47
 164 002a 5A81     		strh	r2, [r3, #10]	@ movhi
  54:Lib/BufferedSerial/BufferedSerial.hpp ****             return data;
 165              		.loc 2 54 13 is_stmt 1 view .LVU48
 166              		.loc 2 54 20 is_stmt 0 view .LVU49
 167 002c 7047     		bx	lr
 168              	.LVL6:
 169              	.L7:
  50:Lib/BufferedSerial/BufferedSerial.hpp ****                   return 0;
 170              		.loc 2 50 26 view .LVU50
 171 002e 0020     		movs	r0, #0
 172              	.LVL7:
ARM GAS  /var/folders/5c/srt4fy4j1pd641bjfx75k5000000gn/T//ccvAokLV.s 			page 5


  55:Lib/BufferedSerial/BufferedSerial.hpp ****       }
 173              		.loc 2 55 7 view .LVU51
 174 0030 7047     		bx	lr
 175              		.cfi_endproc
 176              	.LFE248:
 177              		.cantunwind
 178              		.fnend
 180              		.section	.text._ZN12PwmSingleOut4initEv,"axG",%progbits,_ZN12PwmSingleOut4initEv,comdat
 181              		.align	1
 182              		.weak	_ZN12PwmSingleOut4initEv
 183              		.syntax unified
 184              		.thumb
 185              		.thumb_func
 187              	_ZN12PwmSingleOut4initEv:
 188              		.fnstart
 189              	.LVL8:
 190              	.LFB267:
 191              		.file 3 "Lib/PWMSingle/PWMSingle.hpp"
   1:Lib/PWMSingle/PWMSingle.hpp **** #ifndef __PWMSINGLE__
   2:Lib/PWMSingle/PWMSingle.hpp **** #define __PWMSINGLE__
   3:Lib/PWMSingle/PWMSingle.hpp **** 
   4:Lib/PWMSingle/PWMSingle.hpp **** #include "MyMath.hpp"
   5:Lib/PWMSingle/PWMSingle.hpp **** #include "tim.h"
   6:Lib/PWMSingle/PWMSingle.hpp **** 
   7:Lib/PWMSingle/PWMSingle.hpp **** #ifdef __cplusplus
   8:Lib/PWMSingle/PWMSingle.hpp **** extern "C" {
   9:Lib/PWMSingle/PWMSingle.hpp **** 
  10:Lib/PWMSingle/PWMSingle.hpp **** class PwmSingleOut {
  11:Lib/PWMSingle/PWMSingle.hpp ****      public:
  12:Lib/PWMSingle/PWMSingle.hpp ****       PwmSingleOut(TIM_HandleTypeDef *htim, uint32_t channel)
  13:Lib/PWMSingle/PWMSingle.hpp ****           : _htim(htim), _channel(channel), _maxValue(_htim->Init.Period) {
  14:Lib/PWMSingle/PWMSingle.hpp ****       }
  15:Lib/PWMSingle/PWMSingle.hpp **** 
  16:Lib/PWMSingle/PWMSingle.hpp ****       void init() {
 192              		.loc 3 16 12 is_stmt 1 view -0
 193              		.cfi_startproc
 194              		@ args = 0, pretend = 0, frame = 0
 195              		@ frame_needed = 0, uses_anonymous_args = 0
 196              		.loc 3 16 12 is_stmt 0 view .LVU53
 197 0000 10B5     		push	{r4, lr}
 198              		.save {r4, lr}
 199              	.LCFI1:
 200              		.cfi_def_cfa_offset 8
 201              		.cfi_offset 4, -8
 202              		.cfi_offset 14, -4
 203 0002 0446     		mov	r4, r0
  17:Lib/PWMSingle/PWMSingle.hpp ****             HAL_TIM_PWM_Start(_htim, _channel);
 204              		.loc 3 17 13 is_stmt 1 view .LVU54
 205              		.loc 3 17 30 is_stmt 0 view .LVU55
 206 0004 4168     		ldr	r1, [r0, #4]
 207 0006 0068     		ldr	r0, [r0]
 208              	.LVL9:
 209              		.loc 3 17 30 view .LVU56
 210 0008 FFF7FEFF 		bl	HAL_TIM_PWM_Start
 211              	.LVL10:
  18:Lib/PWMSingle/PWMSingle.hpp ****             _maxValue = _htim->Init.Period;
 212              		.loc 3 18 13 is_stmt 1 view .LVU57
ARM GAS  /var/folders/5c/srt4fy4j1pd641bjfx75k5000000gn/T//ccvAokLV.s 			page 6


 213              		.loc 3 18 25 is_stmt 0 view .LVU58
 214 000c 2368     		ldr	r3, [r4]
 215              		.loc 3 18 37 view .LVU59
 216 000e DB68     		ldr	r3, [r3, #12]
 217              		.loc 3 18 23 view .LVU60
 218 0010 A360     		str	r3, [r4, #8]
  19:Lib/PWMSingle/PWMSingle.hpp ****       }
 219              		.loc 3 19 7 view .LVU61
 220 0012 10BD     		pop	{r4, pc}
 221              		.loc 3 19 7 view .LVU62
 222              		.cfi_endproc
 223              	.LFE267:
 224              		.fnend
 226              		.section	.text._ZN5RobotC2Ev,"ax",%progbits
 227              		.align	1
 228              		.global	_ZN5RobotC2Ev
 229              		.syntax unified
 230              		.thumb
 231              		.thumb_func
 233              	_ZN5RobotC2Ev:
 234              		.fnstart
 235              	.LVL11:
 236              	.LFB285:
   1:src/unit/robot/robot.cpp **** #include "robot.hpp"
   2:src/unit/robot/robot.cpp **** 
   3:src/unit/robot/robot.cpp **** uint16_t adc_get_val[3];
   4:src/unit/robot/robot.cpp **** 
   5:src/unit/robot/robot.cpp **** Robot::Robot() {
 237              		.loc 1 5 1 is_stmt 1 view -0
 238              		.cfi_startproc
 239              		@ args = 0, pretend = 0, frame = 0
 240              		@ frame_needed = 0, uses_anonymous_args = 0
 241              		.loc 1 5 1 is_stmt 0 view .LVU64
 242 0000 F0B5     		push	{r4, r5, r6, r7, lr}
 243              		.save {r4, r5, r6, r7, lr}
 244              	.LCFI2:
 245              		.cfi_def_cfa_offset 20
 246              		.cfi_offset 4, -20
 247              		.cfi_offset 5, -16
 248              		.cfi_offset 6, -12
 249              		.cfi_offset 7, -8
 250              		.cfi_offset 14, -4
 251              		.pad #36
 252 0002 89B0     		sub	sp, sp, #36
 253              	.LCFI3:
 254              		.cfi_def_cfa_offset 56
 255 0004 0446     		mov	r4, r0
 256              	.LVL12:
 257              	.LBB162:
 258              	.LBB163:
 259              	.LBI163:
 260              		.file 4 "src/unit/robot/robot.hpp"
   1:src/unit/robot/robot.hpp **** #ifndef __ROBOT__
   2:src/unit/robot/robot.hpp **** #define __ROBOT__
   3:src/unit/robot/robot.hpp **** 
   4:src/unit/robot/robot.hpp **** #include "BufferedSerial.hpp"
   5:src/unit/robot/robot.hpp **** #include "DigitalInOut.hpp"
ARM GAS  /var/folders/5c/srt4fy4j1pd641bjfx75k5000000gn/T//ccvAokLV.s 			page 7


   6:src/unit/robot/robot.hpp **** #include "MovingAve.hpp"
   7:src/unit/robot/robot.hpp **** #include "PWMSingle.hpp"
   8:src/unit/robot/robot.hpp **** #include "Timer.hpp"
   9:src/unit/robot/robot.hpp **** #include "adc.h"
  10:src/unit/robot/robot.hpp **** #include "config.h"
  11:src/unit/robot/robot.hpp **** #include "dribbler_drive.hpp"
  12:src/unit/robot/robot.hpp **** #include "kicker.hpp"
  13:src/unit/robot/robot.hpp **** #include "main.h"
  14:src/unit/robot/robot.hpp **** #include "motor_drive.hpp"
  15:src/unit/robot/robot.hpp **** 
  16:src/unit/robot/robot.hpp **** #define VOLTAGE_CONVERTION 0.01298828125
  17:src/unit/robot/robot.hpp **** 
  18:src/unit/robot/robot.hpp **** struct RobotInfo {
 261              		.loc 4 18 8 is_stmt 1 view .LVU65
 262              	.LBB164:
 263              	.LBI164:
  19:src/unit/robot/robot.hpp ****       float voltage;
  20:src/unit/robot/robot.hpp ****       float motor_rad_s[4];
  21:src/unit/robot/robot.hpp **** 
  22:src/unit/robot/robot.hpp ****       uint8_t mode;
  23:src/unit/robot/robot.hpp **** 
  24:src/unit/robot/robot.hpp ****       float target_move_speed, target_line_move_speed;
  25:src/unit/robot/robot.hpp ****       struct {
 264              		.loc 4 25 14 view .LVU66
 265              	.LBB165:
 266 0006 0025     		movs	r5, #0
 267 0008 80F82050 		strb	r5, [r0, #32]
 268              	.LVL13:
 269              		.loc 4 25 14 is_stmt 0 view .LVU67
 270              	.LBE165:
 271              	.LBE164:
 272              	.LBB166:
 273              	.LBI166:
  26:src/unit/robot/robot.hpp ****             bool is_initialized = 0;
  27:src/unit/robot/robot.hpp **** 
  28:src/unit/robot/robot.hpp ****             uint8_t interval;
  29:src/unit/robot/robot.hpp ****             uint8_t depth;
  30:src/unit/robot/robot.hpp ****             bool is_on_line;
  31:src/unit/robot/robot.hpp ****             bool is_leftside;
  32:src/unit/robot/robot.hpp ****             bool is_rightside;
  33:src/unit/robot/robot.hpp ****             int16_t dir;
  34:src/unit/robot/robot.hpp ****             int16_t inside_dir;
  35:src/unit/robot/robot.hpp **** 
  36:src/unit/robot/robot.hpp ****             bool on_led;
  37:src/unit/robot/robot.hpp ****       } Line;
  38:src/unit/robot/robot.hpp ****       struct {
  39:src/unit/robot/robot.hpp ****             uint16_t front_val;
  40:src/unit/robot/robot.hpp ****             bool is_front;
  41:src/unit/robot/robot.hpp ****             uint16_t back_val;
  42:src/unit/robot/robot.hpp ****             bool is_back;
  43:src/unit/robot/robot.hpp ****       } Catch;
  44:src/unit/robot/robot.hpp ****       struct {
 274              		.loc 4 44 14 is_stmt 1 view .LVU68
 275              	.LBB167:
 276 000c 80F83450 		strb	r5, [r0, #52]
 277              	.LVL14:
 278              		.loc 4 44 14 is_stmt 0 view .LVU69
ARM GAS  /var/folders/5c/srt4fy4j1pd641bjfx75k5000000gn/T//ccvAokLV.s 			page 8


 279              	.LBE167:
 280              	.LBE166:
 281              	.LBB168:
 282              	.LBI168:
  45:src/unit/robot/robot.hpp ****             bool is_initialized = 0;
  46:src/unit/robot/robot.hpp **** 
  47:src/unit/robot/robot.hpp ****             int16_t yaw;
  48:src/unit/robot/robot.hpp ****             int16_t pitch;
  49:src/unit/robot/robot.hpp ****             int16_t roll;
  50:src/unit/robot/robot.hpp ****             int16_t yaw_correction_val;
  51:src/unit/robot/robot.hpp ****       } Imu;
  52:src/unit/robot/robot.hpp **** 
  53:src/unit/robot/robot.hpp ****       struct {
  54:src/unit/robot/robot.hpp ****             bool reset_yaw;
  55:src/unit/robot/robot.hpp ****             bool success_reset_yaw;
  56:src/unit/robot/robot.hpp ****             bool success_reset_line;
  57:src/unit/robot/robot.hpp ****             bool reset_line;
  58:src/unit/robot/robot.hpp ****             uint8_t dribbler_sig;
  59:src/unit/robot/robot.hpp ****             int8_t item;
  60:src/unit/robot/robot.hpp ****             uint8_t sub_item;
  61:src/unit/robot/robot.hpp **** 
  62:src/unit/robot/robot.hpp ****             int16_t debug[2];
  63:src/unit/robot/robot.hpp ****       } Ui;
  64:src/unit/robot/robot.hpp **** 
  65:src/unit/robot/robot.hpp ****       struct {
 283              		.loc 4 65 14 is_stmt 1 view .LVU70
 284              	.LBB169:
 285 0010 80F84C50 		strb	r5, [r0, #76]
 286              	.LVL15:
 287              		.loc 4 65 14 is_stmt 0 view .LVU71
 288              	.LBE169:
 289              	.LBE168:
 290              	.LBE163:
 291              	.LBB170:
 292              	.LBI170:
 293              		.file 5 "Lib/DigitalInOut/DigitalInOut.hpp"
   1:Lib/DigitalInOut/DigitalInOut.hpp **** #ifndef __DigitalInOut__
   2:Lib/DigitalInOut/DigitalInOut.hpp **** #define __DigitalInOut__
   3:Lib/DigitalInOut/DigitalInOut.hpp **** 
   4:Lib/DigitalInOut/DigitalInOut.hpp **** #include "main.h"
   5:Lib/DigitalInOut/DigitalInOut.hpp **** 
   6:Lib/DigitalInOut/DigitalInOut.hpp **** #ifdef __cplusplus
   7:Lib/DigitalInOut/DigitalInOut.hpp **** 
   8:Lib/DigitalInOut/DigitalInOut.hpp **** extern "C" {
   9:Lib/DigitalInOut/DigitalInOut.hpp **** 
  10:Lib/DigitalInOut/DigitalInOut.hpp **** class DigitalOut {
  11:Lib/DigitalInOut/DigitalInOut.hpp ****   public:
  12:Lib/DigitalInOut/DigitalInOut.hpp ****     DigitalOut(GPIO_TypeDef *port, uint16_t pin) : port(port), pin(pin) {
 294              		.loc 5 12 5 is_stmt 1 view .LVU72
 295              	.LBB171:
 296              		.loc 5 12 52 is_stmt 0 view .LVU73
 297 0014 B248     		ldr	r0, .L29
 298              	.LVL16:
 299              		.loc 5 12 52 view .LVU74
 300 0016 C4F89C00 		str	r0, [r4, #156]
 301              		.loc 5 12 64 view .LVU75
 302 001a 2021     		movs	r1, #32
ARM GAS  /var/folders/5c/srt4fy4j1pd641bjfx75k5000000gn/T//ccvAokLV.s 			page 9


 303 001c A4F8A010 		strh	r1, [r4, #160]	@ movhi
  13:Lib/DigitalInOut/DigitalInOut.hpp ****         HAL_GPIO_WritePin(port, pin, GPIO_PIN_RESET);
 304              		.loc 5 13 9 is_stmt 1 view .LVU76
 305              		.loc 5 13 26 is_stmt 0 view .LVU77
 306 0020 2A46     		mov	r2, r5
 307              	.LEHB0:
 308 0022 FFF7FEFF 		bl	HAL_GPIO_WritePin
 309              	.LVL17:
 310              		.loc 5 13 26 view .LVU78
 311              	.LBE171:
 312              	.LBE170:
 313              	.LBB172:
 314              	.LBI172:
  12:Lib/PWMSingle/PWMSingle.hpp ****           : _htim(htim), _channel(channel), _maxValue(_htim->Init.Period) {
 315              		.loc 3 12 7 is_stmt 1 view .LVU79
 316              	.LBB173:
  13:Lib/PWMSingle/PWMSingle.hpp ****       }
 317              		.loc 3 13 13 is_stmt 0 view .LVU80
 318 0026 AF4B     		ldr	r3, .L29+4
 319 0028 C4F8A430 		str	r3, [r4, #164]
  13:Lib/PWMSingle/PWMSingle.hpp ****       }
 320              		.loc 3 13 26 view .LVU81
 321 002c C4F8A850 		str	r5, [r4, #168]
  13:Lib/PWMSingle/PWMSingle.hpp ****       }
 322              		.loc 3 13 67 view .LVU82
 323 0030 DB68     		ldr	r3, [r3, #12]
  13:Lib/PWMSingle/PWMSingle.hpp ****       }
 324              		.loc 3 13 45 view .LVU83
 325 0032 C4F8AC30 		str	r3, [r4, #172]
 326              	.LVL18:
  13:Lib/PWMSingle/PWMSingle.hpp ****       }
 327              		.loc 3 13 45 view .LVU84
 328              	.LBE173:
 329              	.LBE172:
 330              	.LBB174:
 331              	.LBI174:
  12:Lib/PWMSingle/PWMSingle.hpp ****           : _htim(htim), _channel(channel), _maxValue(_htim->Init.Period) {
 332              		.loc 3 12 7 is_stmt 1 view .LVU85
 333              	.LBB175:
  13:Lib/PWMSingle/PWMSingle.hpp ****       }
 334              		.loc 3 13 13 is_stmt 0 view .LVU86
 335 0036 AC4B     		ldr	r3, .L29+8
 336 0038 C4F8B430 		str	r3, [r4, #180]
  13:Lib/PWMSingle/PWMSingle.hpp ****       }
 337              		.loc 3 13 26 view .LVU87
 338 003c 0420     		movs	r0, #4
 339 003e C4F8B800 		str	r0, [r4, #184]
  13:Lib/PWMSingle/PWMSingle.hpp ****       }
 340              		.loc 3 13 67 view .LVU88
 341 0042 DA68     		ldr	r2, [r3, #12]
  13:Lib/PWMSingle/PWMSingle.hpp ****       }
 342              		.loc 3 13 45 view .LVU89
 343 0044 C4F8BC20 		str	r2, [r4, #188]
 344              	.LVL19:
  13:Lib/PWMSingle/PWMSingle.hpp ****       }
 345              		.loc 3 13 45 view .LVU90
 346              	.LBE175:
ARM GAS  /var/folders/5c/srt4fy4j1pd641bjfx75k5000000gn/T//ccvAokLV.s 			page 10


 347              	.LBE174:
 348              	.LBB176:
 349              	.LBI176:
  12:Lib/PWMSingle/PWMSingle.hpp ****           : _htim(htim), _channel(channel), _maxValue(_htim->Init.Period) {
 350              		.loc 3 12 7 is_stmt 1 view .LVU91
 351              	.LBB177:
  13:Lib/PWMSingle/PWMSingle.hpp ****       }
 352              		.loc 3 13 13 is_stmt 0 view .LVU92
 353 0048 C4F8C430 		str	r3, [r4, #196]
  13:Lib/PWMSingle/PWMSingle.hpp ****       }
 354              		.loc 3 13 26 view .LVU93
 355 004c C4F8C850 		str	r5, [r4, #200]
  13:Lib/PWMSingle/PWMSingle.hpp ****       }
 356              		.loc 3 13 45 view .LVU94
 357 0050 C4F8CC20 		str	r2, [r4, #204]
 358              	.LVL20:
  13:Lib/PWMSingle/PWMSingle.hpp ****       }
 359              		.loc 3 13 45 view .LVU95
 360              	.LBE177:
 361              	.LBE176:
 362              	.LBB178:
 363              	.LBI178:
  12:Lib/PWMSingle/PWMSingle.hpp ****           : _htim(htim), _channel(channel), _maxValue(_htim->Init.Period) {
 364              		.loc 3 12 7 is_stmt 1 view .LVU96
 365              	.LBB179:
  13:Lib/PWMSingle/PWMSingle.hpp ****       }
 366              		.loc 3 13 13 is_stmt 0 view .LVU97
 367 0054 A54B     		ldr	r3, .L29+12
 368 0056 C4F8D430 		str	r3, [r4, #212]
  13:Lib/PWMSingle/PWMSingle.hpp ****       }
 369              		.loc 3 13 26 view .LVU98
 370 005a 4FF0080C 		mov	ip, #8
 371 005e C4F8D8C0 		str	ip, [r4, #216]
  13:Lib/PWMSingle/PWMSingle.hpp ****       }
 372              		.loc 3 13 67 view .LVU99
 373 0062 D968     		ldr	r1, [r3, #12]
  13:Lib/PWMSingle/PWMSingle.hpp ****       }
 374              		.loc 3 13 45 view .LVU100
 375 0064 C4F8DC10 		str	r1, [r4, #220]
 376              	.LVL21:
  13:Lib/PWMSingle/PWMSingle.hpp ****       }
 377              		.loc 3 13 45 view .LVU101
 378              	.LBE179:
 379              	.LBE178:
 380              	.LBB180:
 381              	.LBI180:
  12:Lib/PWMSingle/PWMSingle.hpp ****           : _htim(htim), _channel(channel), _maxValue(_htim->Init.Period) {
 382              		.loc 3 12 7 is_stmt 1 view .LVU102
 383              	.LBB181:
  13:Lib/PWMSingle/PWMSingle.hpp ****       }
 384              		.loc 3 13 13 is_stmt 0 view .LVU103
 385 0068 C4F8E430 		str	r3, [r4, #228]
  13:Lib/PWMSingle/PWMSingle.hpp ****       }
 386              		.loc 3 13 26 view .LVU104
 387 006c 0C27     		movs	r7, #12
 388 006e C4F8E870 		str	r7, [r4, #232]
  13:Lib/PWMSingle/PWMSingle.hpp ****       }
ARM GAS  /var/folders/5c/srt4fy4j1pd641bjfx75k5000000gn/T//ccvAokLV.s 			page 11


 389              		.loc 3 13 45 view .LVU105
 390 0072 C4F8EC10 		str	r1, [r4, #236]
 391              	.LVL22:
  13:Lib/PWMSingle/PWMSingle.hpp ****       }
 392              		.loc 3 13 45 view .LVU106
 393              	.LBE181:
 394              	.LBE180:
 395              	.LBB182:
 396              	.LBI182:
  12:Lib/PWMSingle/PWMSingle.hpp ****           : _htim(htim), _channel(channel), _maxValue(_htim->Init.Period) {
 397              		.loc 3 12 7 is_stmt 1 view .LVU107
 398              	.LBB183:
  13:Lib/PWMSingle/PWMSingle.hpp ****       }
 399              		.loc 3 13 13 is_stmt 0 view .LVU108
 400 0076 9E4A     		ldr	r2, .L29+16
 401 0078 C4F8F420 		str	r2, [r4, #244]
  13:Lib/PWMSingle/PWMSingle.hpp ****       }
 402              		.loc 3 13 26 view .LVU109
 403 007c C4F8F800 		str	r0, [r4, #248]
  13:Lib/PWMSingle/PWMSingle.hpp ****       }
 404              		.loc 3 13 67 view .LVU110
 405 0080 D668     		ldr	r6, [r2, #12]
  13:Lib/PWMSingle/PWMSingle.hpp ****       }
 406              		.loc 3 13 45 view .LVU111
 407 0082 C4F8FC60 		str	r6, [r4, #252]
 408              	.LVL23:
  13:Lib/PWMSingle/PWMSingle.hpp ****       }
 409              		.loc 3 13 45 view .LVU112
 410              	.LBE183:
 411              	.LBE182:
 412              	.LBB184:
 413              	.LBI184:
  12:Lib/PWMSingle/PWMSingle.hpp ****           : _htim(htim), _channel(channel), _maxValue(_htim->Init.Period) {
 414              		.loc 3 12 7 is_stmt 1 view .LVU113
 415              	.LBB185:
  13:Lib/PWMSingle/PWMSingle.hpp ****       }
 416              		.loc 3 13 13 is_stmt 0 view .LVU114
 417 0086 C4F80431 		str	r3, [r4, #260]
  13:Lib/PWMSingle/PWMSingle.hpp ****       }
 418              		.loc 3 13 26 view .LVU115
 419 008a C4F80801 		str	r0, [r4, #264]
  13:Lib/PWMSingle/PWMSingle.hpp ****       }
 420              		.loc 3 13 45 view .LVU116
 421 008e C4F80C11 		str	r1, [r4, #268]
 422              	.LVL24:
  13:Lib/PWMSingle/PWMSingle.hpp ****       }
 423              		.loc 3 13 45 view .LVU117
 424              	.LBE185:
 425              	.LBE184:
 426              	.LBB186:
 427              	.LBI186:
  12:Lib/PWMSingle/PWMSingle.hpp ****           : _htim(htim), _channel(channel), _maxValue(_htim->Init.Period) {
 428              		.loc 3 12 7 is_stmt 1 view .LVU118
 429              	.LBB187:
  13:Lib/PWMSingle/PWMSingle.hpp ****       }
 430              		.loc 3 13 13 is_stmt 0 view .LVU119
 431 0092 C4F81421 		str	r2, [r4, #276]
ARM GAS  /var/folders/5c/srt4fy4j1pd641bjfx75k5000000gn/T//ccvAokLV.s 			page 12


  13:Lib/PWMSingle/PWMSingle.hpp ****       }
 432              		.loc 3 13 26 view .LVU120
 433 0096 C4F81851 		str	r5, [r4, #280]
  13:Lib/PWMSingle/PWMSingle.hpp ****       }
 434              		.loc 3 13 45 view .LVU121
 435 009a C4F81C61 		str	r6, [r4, #284]
 436              	.LVL25:
  13:Lib/PWMSingle/PWMSingle.hpp ****       }
 437              		.loc 3 13 45 view .LVU122
 438              	.LBE187:
 439              	.LBE186:
 440              	.LBB188:
 441              	.LBI188:
  12:Lib/PWMSingle/PWMSingle.hpp ****           : _htim(htim), _channel(channel), _maxValue(_htim->Init.Period) {
 442              		.loc 3 12 7 is_stmt 1 view .LVU123
 443              	.LBB189:
  13:Lib/PWMSingle/PWMSingle.hpp ****       }
 444              		.loc 3 13 13 is_stmt 0 view .LVU124
 445 009e C4F82421 		str	r2, [r4, #292]
  13:Lib/PWMSingle/PWMSingle.hpp ****       }
 446              		.loc 3 13 26 view .LVU125
 447 00a2 C4F828C1 		str	ip, [r4, #296]
  13:Lib/PWMSingle/PWMSingle.hpp ****       }
 448              		.loc 3 13 45 view .LVU126
 449 00a6 C4F82C61 		str	r6, [r4, #300]
 450              	.LVL26:
  13:Lib/PWMSingle/PWMSingle.hpp ****       }
 451              		.loc 3 13 45 view .LVU127
 452              	.LBE189:
 453              	.LBE188:
 454              	.LBB190:
 455              	.LBI190:
  12:Lib/PWMSingle/PWMSingle.hpp ****           : _htim(htim), _channel(channel), _maxValue(_htim->Init.Period) {
 456              		.loc 3 12 7 is_stmt 1 view .LVU128
 457              	.LBB191:
  13:Lib/PWMSingle/PWMSingle.hpp ****       }
 458              		.loc 3 13 13 is_stmt 0 view .LVU129
 459 00aa 924A     		ldr	r2, .L29+20
 460 00ac C4F83421 		str	r2, [r4, #308]
  13:Lib/PWMSingle/PWMSingle.hpp ****       }
 461              		.loc 3 13 26 view .LVU130
 462 00b0 C4F83851 		str	r5, [r4, #312]
  13:Lib/PWMSingle/PWMSingle.hpp ****       }
 463              		.loc 3 13 67 view .LVU131
 464 00b4 D668     		ldr	r6, [r2, #12]
  13:Lib/PWMSingle/PWMSingle.hpp ****       }
 465              		.loc 3 13 45 view .LVU132
 466 00b6 C4F83C61 		str	r6, [r4, #316]
 467              	.LVL27:
  13:Lib/PWMSingle/PWMSingle.hpp ****       }
 468              		.loc 3 13 45 view .LVU133
 469              	.LBE191:
 470              	.LBE190:
 471              	.LBB192:
 472              	.LBI192:
  12:Lib/PWMSingle/PWMSingle.hpp ****           : _htim(htim), _channel(channel), _maxValue(_htim->Init.Period) {
 473              		.loc 3 12 7 is_stmt 1 view .LVU134
ARM GAS  /var/folders/5c/srt4fy4j1pd641bjfx75k5000000gn/T//ccvAokLV.s 			page 13


 474              	.LBB193:
  13:Lib/PWMSingle/PWMSingle.hpp ****       }
 475              		.loc 3 13 13 is_stmt 0 view .LVU135
 476 00ba C4F84421 		str	r2, [r4, #324]
  13:Lib/PWMSingle/PWMSingle.hpp ****       }
 477              		.loc 3 13 26 view .LVU136
 478 00be C4F84801 		str	r0, [r4, #328]
  13:Lib/PWMSingle/PWMSingle.hpp ****       }
 479              		.loc 3 13 45 view .LVU137
 480 00c2 C4F84C61 		str	r6, [r4, #332]
 481              	.LVL28:
  13:Lib/PWMSingle/PWMSingle.hpp ****       }
 482              		.loc 3 13 45 view .LVU138
 483              	.LBE193:
 484              	.LBE192:
 485              	.LBB194:
 486              	.LBI194:
  12:Lib/PWMSingle/PWMSingle.hpp ****           : _htim(htim), _channel(channel), _maxValue(_htim->Init.Period) {
 487              		.loc 3 12 7 is_stmt 1 view .LVU139
 488              	.LBB195:
  13:Lib/PWMSingle/PWMSingle.hpp ****       }
 489              		.loc 3 13 13 is_stmt 0 view .LVU140
 490 00c6 C4F85431 		str	r3, [r4, #340]
  13:Lib/PWMSingle/PWMSingle.hpp ****       }
 491              		.loc 3 13 26 view .LVU141
 492 00ca C4F85851 		str	r5, [r4, #344]
  13:Lib/PWMSingle/PWMSingle.hpp ****       }
 493              		.loc 3 13 45 view .LVU142
 494 00ce C4F85C11 		str	r1, [r4, #348]
 495              	.LVL29:
  13:Lib/PWMSingle/PWMSingle.hpp ****       }
 496              		.loc 3 13 45 view .LVU143
 497              	.LBE195:
 498              	.LBE194:
 499              	.LBB196:
 500              	.LBI196:
  12:Lib/PWMSingle/PWMSingle.hpp ****           : _htim(htim), _channel(channel), _maxValue(_htim->Init.Period) {
 501              		.loc 3 12 7 is_stmt 1 view .LVU144
 502              	.LBB197:
  13:Lib/PWMSingle/PWMSingle.hpp ****       }
 503              		.loc 3 13 13 is_stmt 0 view .LVU145
 504 00d2 C4F86421 		str	r2, [r4, #356]
  13:Lib/PWMSingle/PWMSingle.hpp ****       }
 505              		.loc 3 13 26 view .LVU146
 506 00d6 C4F86871 		str	r7, [r4, #360]
  13:Lib/PWMSingle/PWMSingle.hpp ****       }
 507              		.loc 3 13 45 view .LVU147
 508 00da C4F86C61 		str	r6, [r4, #364]
 509              	.LVL30:
  13:Lib/PWMSingle/PWMSingle.hpp ****       }
 510              		.loc 3 13 45 view .LVU148
 511              	.LBE197:
 512              	.LBE196:
 513              	.LBB198:
 514              	.LBI198:
  12:Lib/DigitalInOut/DigitalInOut.hpp ****         HAL_GPIO_WritePin(port, pin, GPIO_PIN_RESET);
 515              		.loc 5 12 5 is_stmt 1 view .LVU149
ARM GAS  /var/folders/5c/srt4fy4j1pd641bjfx75k5000000gn/T//ccvAokLV.s 			page 14


 516              	.LBB199:
  12:Lib/DigitalInOut/DigitalInOut.hpp ****         HAL_GPIO_WritePin(port, pin, GPIO_PIN_RESET);
 517              		.loc 5 12 52 is_stmt 0 view .LVU150
 518 00de 864E     		ldr	r6, .L29+24
 519 00e0 C4F87461 		str	r6, [r4, #372]
  12:Lib/DigitalInOut/DigitalInOut.hpp ****         HAL_GPIO_WritePin(port, pin, GPIO_PIN_RESET);
 520              		.loc 5 12 64 view .LVU151
 521 00e4 0121     		movs	r1, #1
 522 00e6 A4F87811 		strh	r1, [r4, #376]	@ movhi
 523              		.loc 5 13 9 is_stmt 1 view .LVU152
 524              		.loc 5 13 26 is_stmt 0 view .LVU153
 525 00ea 2A46     		mov	r2, r5
 526 00ec 3046     		mov	r0, r6
 527 00ee FFF7FEFF 		bl	HAL_GPIO_WritePin
 528              	.LVL31:
 529              		.loc 5 13 26 view .LVU154
 530              	.LBE199:
 531              	.LBE198:
 532              	.LBB200:
 533              	.LBI200:
  12:Lib/DigitalInOut/DigitalInOut.hpp ****         HAL_GPIO_WritePin(port, pin, GPIO_PIN_RESET);
 534              		.loc 5 12 5 is_stmt 1 view .LVU155
 535              	.LBB201:
  12:Lib/DigitalInOut/DigitalInOut.hpp ****         HAL_GPIO_WritePin(port, pin, GPIO_PIN_RESET);
 536              		.loc 5 12 52 is_stmt 0 view .LVU156
 537 00f2 C4F87C61 		str	r6, [r4, #380]
  12:Lib/DigitalInOut/DigitalInOut.hpp ****         HAL_GPIO_WritePin(port, pin, GPIO_PIN_RESET);
 538              		.loc 5 12 64 view .LVU157
 539 00f6 0221     		movs	r1, #2
 540 00f8 A4F88011 		strh	r1, [r4, #384]	@ movhi
 541              		.loc 5 13 9 is_stmt 1 view .LVU158
 542              		.loc 5 13 26 is_stmt 0 view .LVU159
 543 00fc 2A46     		mov	r2, r5
 544 00fe 3046     		mov	r0, r6
 545 0100 FFF7FEFF 		bl	HAL_GPIO_WritePin
 546              	.LVL32:
 547              		.loc 5 13 26 view .LVU160
 548              	.LBE201:
 549              	.LBE200:
 550              		.loc 1 5 14 view .LVU161
 551 0104 231D     		adds	r3, r4, #4
 552 0106 0793     		str	r3, [sp, #28]
 553 0108 04F19A03 		add	r3, r4, #154
 554 010c 0693     		str	r3, [sp, #24]
 555 010e 04F13603 		add	r3, r4, #54
 556 0112 0593     		str	r3, [sp, #20]
 557 0114 04F59273 		add	r3, r4, #292
 558 0118 0493     		str	r3, [sp, #16]
 559 011a 04F58A73 		add	r3, r4, #276
 560 011e 0393     		str	r3, [sp, #12]
 561 0120 04F58273 		add	r3, r4, #260
 562 0124 0293     		str	r3, [sp, #8]
 563 0126 04F1F403 		add	r3, r4, #244
 564 012a 0193     		str	r3, [sp, #4]
 565 012c 04F1E403 		add	r3, r4, #228
 566 0130 0093     		str	r3, [sp]
 567 0132 04F1D403 		add	r3, r4, #212
ARM GAS  /var/folders/5c/srt4fy4j1pd641bjfx75k5000000gn/T//ccvAokLV.s 			page 15


 568 0136 04F1C402 		add	r2, r4, #196
 569 013a 04F1B401 		add	r1, r4, #180
 570 013e 04F5C470 		add	r0, r4, #392
 571 0142 FFF7FEFF 		bl	_ZN10MotorDriveC1EP12PwmSingleOutS1_S1_S1_S1_S1_S1_S1_PsS2_Pf
 572              	.LVL33:
 573 0146 04F5A272 		add	r2, r4, #324
 574 014a 04F59A71 		add	r1, r4, #308
 575 014e 04F58650 		add	r0, r4, #4288
 576 0152 0830     		adds	r0, r0, #8
 577 0154 FFF7FEFF 		bl	_ZN13DribblerDriveC1EP12PwmSingleOutS1_
 578              	.LVL34:
 579 0158 04F5B272 		add	r2, r4, #356
 580 015c 04F5AA71 		add	r1, r4, #340
 581 0160 04F58750 		add	r0, r4, #4320
 582 0164 FFF7FEFF 		bl	_ZN13DribblerDriveC1EP12PwmSingleOutS1_
 583              	.LVL35:
 584 0168 04F5BE72 		add	r2, r4, #380
 585 016c 04F5BA71 		add	r1, r4, #372
 586 0170 04F58750 		add	r0, r4, #4320
 587 0174 1830     		adds	r0, r0, #24
 588 0176 FFF7FEFF 		bl	_ZN6KickerC1EP10DigitalOutS1_
 589              	.LVL36:
 590              	.LBB202:
 591              	.LBI202:
  19:Lib/BufferedSerial/BufferedSerial.hpp ****           : _huart(huart),
 592              		.loc 2 19 7 is_stmt 1 view .LVU162
 593              	.LBB203:
  20:Lib/BufferedSerial/BufferedSerial.hpp ****             _rxBuf(new uint8_t[rxBufSize]),
 594              		.loc 2 20 13 is_stmt 0 view .LVU163
 595 017a 04F58056 		add	r6, r4, #4096
 596 017e 5F4B     		ldr	r3, .L29+28
 597 0180 C6F80C31 		str	r3, [r6, #268]
  21:Lib/BufferedSerial/BufferedSerial.hpp ****             rxTop(0),
 598              		.loc 2 21 41 view .LVU164
 599 0184 8020     		movs	r0, #128
 600 0186 FFF7FEFF 		bl	_Znaj
 601              	.LVL37:
 602              	.LEHE0:
  21:Lib/BufferedSerial/BufferedSerial.hpp ****             rxTop(0),
 603              		.loc 2 21 13 view .LVU165
 604 018a C6F81001 		str	r0, [r6, #272]
  22:Lib/BufferedSerial/BufferedSerial.hpp ****             rxBtm(0),
 605              		.loc 2 22 13 view .LVU166
 606 018e A6F81451 		strh	r5, [r6, #276]	@ movhi
  23:Lib/BufferedSerial/BufferedSerial.hpp ****             _rxBufSize(rxBufSize),
 607              		.loc 2 23 13 view .LVU167
 608 0192 A6F81651 		strh	r5, [r6, #278]	@ movhi
  24:Lib/BufferedSerial/BufferedSerial.hpp ****             _useDMA(false) {}
 609              		.loc 2 24 13 view .LVU168
 610 0196 8023     		movs	r3, #128
 611 0198 A6F81831 		strh	r3, [r6, #280]	@ movhi
  25:Lib/BufferedSerial/BufferedSerial.hpp ****       ~BufferedSerial() {
 612              		.loc 2 25 13 view .LVU169
 613 019c 86F81A51 		strb	r5, [r6, #282]
 614              	.LVL38:
  25:Lib/BufferedSerial/BufferedSerial.hpp ****       ~BufferedSerial() {
 615              		.loc 2 25 13 view .LVU170
ARM GAS  /var/folders/5c/srt4fy4j1pd641bjfx75k5000000gn/T//ccvAokLV.s 			page 16


 616              	.LBE203:
 617              	.LBE202:
 618              	.LBB204:
 619              	.LBI204:
  19:Lib/BufferedSerial/BufferedSerial.hpp ****           : _huart(huart),
 620              		.loc 2 19 7 is_stmt 1 view .LVU171
 621              	.LBB205:
  20:Lib/BufferedSerial/BufferedSerial.hpp ****             _rxBuf(new uint8_t[rxBufSize]),
 622              		.loc 2 20 13 is_stmt 0 view .LVU172
 623 01a0 574B     		ldr	r3, .L29+32
 624 01a2 C6F81C31 		str	r3, [r6, #284]
  21:Lib/BufferedSerial/BufferedSerial.hpp ****             rxTop(0),
 625              		.loc 2 21 41 view .LVU173
 626 01a6 4FF48070 		mov	r0, #256
 627              	.LEHB1:
 628 01aa FFF7FEFF 		bl	_Znaj
 629              	.LVL39:
 630              	.LEHE1:
  21:Lib/BufferedSerial/BufferedSerial.hpp ****             rxTop(0),
 631              		.loc 2 21 13 view .LVU174
 632 01ae C6F82001 		str	r0, [r6, #288]
  22:Lib/BufferedSerial/BufferedSerial.hpp ****             rxBtm(0),
 633              		.loc 2 22 13 view .LVU175
 634 01b2 A6F82451 		strh	r5, [r6, #292]	@ movhi
  23:Lib/BufferedSerial/BufferedSerial.hpp ****             _rxBufSize(rxBufSize),
 635              		.loc 2 23 13 view .LVU176
 636 01b6 A6F82651 		strh	r5, [r6, #294]	@ movhi
  24:Lib/BufferedSerial/BufferedSerial.hpp ****             _useDMA(false) {}
 637              		.loc 2 24 13 view .LVU177
 638 01ba 4FF48071 		mov	r1, #256
 639 01be A6F82811 		strh	r1, [r6, #296]	@ movhi
  25:Lib/BufferedSerial/BufferedSerial.hpp ****       ~BufferedSerial() {
 640              		.loc 2 25 13 view .LVU178
 641 01c2 86F82A51 		strb	r5, [r6, #298]
 642              	.LVL40:
  25:Lib/BufferedSerial/BufferedSerial.hpp ****       ~BufferedSerial() {
 643              		.loc 2 25 13 view .LVU179
 644              	.LBE205:
 645              	.LBE204:
 646              	.LBB206:
 647              	.LBI206:
  19:Lib/BufferedSerial/BufferedSerial.hpp ****           : _huart(huart),
 648              		.loc 2 19 7 is_stmt 1 view .LVU180
 649              	.LBB207:
  20:Lib/BufferedSerial/BufferedSerial.hpp ****             _rxBuf(new uint8_t[rxBufSize]),
 650              		.loc 2 20 13 is_stmt 0 view .LVU181
 651 01c6 4F4A     		ldr	r2, .L29+36
 652 01c8 C6F82C21 		str	r2, [r6, #300]
  21:Lib/BufferedSerial/BufferedSerial.hpp ****             rxTop(0),
 653              		.loc 2 21 41 view .LVU182
 654 01cc 8020     		movs	r0, #128
 655              	.LEHB2:
 656 01ce FFF7FEFF 		bl	_Znaj
 657              	.LVL41:
 658              	.LEHE2:
  21:Lib/BufferedSerial/BufferedSerial.hpp ****             rxTop(0),
 659              		.loc 2 21 13 view .LVU183
ARM GAS  /var/folders/5c/srt4fy4j1pd641bjfx75k5000000gn/T//ccvAokLV.s 			page 17


 660 01d2 C6F83001 		str	r0, [r6, #304]
  22:Lib/BufferedSerial/BufferedSerial.hpp ****             rxBtm(0),
 661              		.loc 2 22 13 view .LVU184
 662 01d6 A6F83451 		strh	r5, [r6, #308]	@ movhi
  23:Lib/BufferedSerial/BufferedSerial.hpp ****             _rxBufSize(rxBufSize),
 663              		.loc 2 23 13 view .LVU185
 664 01da A6F83651 		strh	r5, [r6, #310]	@ movhi
  24:Lib/BufferedSerial/BufferedSerial.hpp ****             _useDMA(false) {}
 665              		.loc 2 24 13 view .LVU186
 666 01de 8021     		movs	r1, #128
 667 01e0 A6F83811 		strh	r1, [r6, #312]	@ movhi
  25:Lib/BufferedSerial/BufferedSerial.hpp ****       ~BufferedSerial() {
 668              		.loc 2 25 13 view .LVU187
 669 01e4 86F83A51 		strb	r5, [r6, #314]
 670              	.LVL42:
  25:Lib/BufferedSerial/BufferedSerial.hpp ****       ~BufferedSerial() {
 671              		.loc 2 25 13 view .LVU188
 672              	.LBE207:
 673              	.LBE206:
 674              	.LBB208:
 675              	.LBI208:
  19:Lib/BufferedSerial/BufferedSerial.hpp ****           : _huart(huart),
 676              		.loc 2 19 7 is_stmt 1 view .LVU189
 677              	.LBB209:
  20:Lib/BufferedSerial/BufferedSerial.hpp ****             _rxBuf(new uint8_t[rxBufSize]),
 678              		.loc 2 20 13 is_stmt 0 view .LVU190
 679 01e8 474A     		ldr	r2, .L29+40
 680 01ea C6F83C21 		str	r2, [r6, #316]
  21:Lib/BufferedSerial/BufferedSerial.hpp ****             rxTop(0),
 681              		.loc 2 21 41 view .LVU191
 682 01ee 4FF48070 		mov	r0, #256
 683              	.LEHB3:
 684 01f2 FFF7FEFF 		bl	_Znaj
 685              	.LVL43:
 686              	.LEHE3:
  21:Lib/BufferedSerial/BufferedSerial.hpp ****             rxTop(0),
 687              		.loc 2 21 13 view .LVU192
 688 01f6 C6F84001 		str	r0, [r6, #320]
  22:Lib/BufferedSerial/BufferedSerial.hpp ****             rxBtm(0),
 689              		.loc 2 22 13 view .LVU193
 690 01fa A6F84451 		strh	r5, [r6, #324]	@ movhi
  23:Lib/BufferedSerial/BufferedSerial.hpp ****             _rxBufSize(rxBufSize),
 691              		.loc 2 23 13 view .LVU194
 692 01fe A6F84651 		strh	r5, [r6, #326]	@ movhi
  24:Lib/BufferedSerial/BufferedSerial.hpp ****             _useDMA(false) {}
 693              		.loc 2 24 13 view .LVU195
 694 0202 4FF48070 		mov	r0, #256
 695 0206 A6F84801 		strh	r0, [r6, #328]	@ movhi
  25:Lib/BufferedSerial/BufferedSerial.hpp ****       ~BufferedSerial() {
 696              		.loc 2 25 13 view .LVU196
 697 020a 86F84A51 		strb	r5, [r6, #330]
 698              	.LVL44:
  25:Lib/BufferedSerial/BufferedSerial.hpp ****       ~BufferedSerial() {
 699              		.loc 2 25 13 view .LVU197
 700              	.LBE209:
 701              	.LBE208:
 702              	.LBB210:
ARM GAS  /var/folders/5c/srt4fy4j1pd641bjfx75k5000000gn/T//ccvAokLV.s 			page 18


 703              	.LBI210:
  19:Lib/BufferedSerial/BufferedSerial.hpp ****           : _huart(huart),
 704              		.loc 2 19 7 is_stmt 1 view .LVU198
 705              	.LBB211:
  20:Lib/BufferedSerial/BufferedSerial.hpp ****             _rxBuf(new uint8_t[rxBufSize]),
 706              		.loc 2 20 13 is_stmt 0 view .LVU199
 707 020e 3F4A     		ldr	r2, .L29+44
 708 0210 C6F84C21 		str	r2, [r6, #332]
 709              	.LEHB4:
  21:Lib/BufferedSerial/BufferedSerial.hpp ****             rxTop(0),
 710              		.loc 2 21 41 view .LVU200
 711 0214 FFF7FEFF 		bl	_Znaj
 712              	.LVL45:
 713              	.LEHE4:
  21:Lib/BufferedSerial/BufferedSerial.hpp ****             rxTop(0),
 714              		.loc 2 21 13 view .LVU201
 715 0218 C6F85001 		str	r0, [r6, #336]
  22:Lib/BufferedSerial/BufferedSerial.hpp ****             rxBtm(0),
 716              		.loc 2 22 13 view .LVU202
 717 021c A6F85451 		strh	r5, [r6, #340]	@ movhi
  23:Lib/BufferedSerial/BufferedSerial.hpp ****             _rxBufSize(rxBufSize),
 718              		.loc 2 23 13 view .LVU203
 719 0220 A6F85651 		strh	r5, [r6, #342]	@ movhi
  24:Lib/BufferedSerial/BufferedSerial.hpp ****             _useDMA(false) {}
 720              		.loc 2 24 13 view .LVU204
 721 0224 4FF48071 		mov	r1, #256
 722 0228 A6F85811 		strh	r1, [r6, #344]	@ movhi
  25:Lib/BufferedSerial/BufferedSerial.hpp ****       ~BufferedSerial() {
 723              		.loc 2 25 13 view .LVU205
 724 022c 86F85A51 		strb	r5, [r6, #346]
 725              	.LVL46:
  25:Lib/BufferedSerial/BufferedSerial.hpp ****       ~BufferedSerial() {
 726              		.loc 2 25 13 view .LVU206
 727              	.LBE211:
 728              	.LBE210:
 729              		.loc 1 5 14 view .LVU207
 730 0230 04F58A50 		add	r0, r4, #4416
 731 0234 1C30     		adds	r0, r0, #28
 732              	.LEHB5:
 733 0236 FFF7FEFF 		bl	_ZN5TimerC1Ev
 734              	.LVL47:
 735              		.loc 1 5 14 discriminator 5 view .LVU208
 736 023a 04F58B50 		add	r0, r4, #4448
 737 023e FFF7FEFF 		bl	_ZN5TimerC1Ev
 738              	.LVL48:
 739              		.loc 1 5 14 discriminator 6 view .LVU209
 740 0242 04F58B50 		add	r0, r4, #4448
 741 0246 0430     		adds	r0, r0, #4
 742 0248 FFF7FEFF 		bl	_ZN5TimerC1Ev
 743              	.LVL49:
 744              		.loc 1 5 14 discriminator 7 view .LVU210
 745 024c 04F58B50 		add	r0, r4, #4448
 746 0250 0830     		adds	r0, r0, #8
 747 0252 FFF7FEFF 		bl	_ZN5TimerC1Ev
 748              	.LVL50:
   6:src/unit/robot/robot.cpp ****       catch_front.SetLength(10);
 749              		.loc 1 6 7 is_stmt 1 view .LVU211
ARM GAS  /var/folders/5c/srt4fy4j1pd641bjfx75k5000000gn/T//ccvAokLV.s 			page 19


 750              		.loc 1 6 28 is_stmt 0 view .LVU212
 751 0256 0A21     		movs	r1, #10
 752 0258 04F58B50 		add	r0, r4, #4448
 753 025c 1030     		adds	r0, r0, #16
 754 025e FFF7FEFF 		bl	_ZN9MovingAve9SetLengthEh
 755              	.LVL51:
   7:src/unit/robot/robot.cpp ****       catch_back.SetLength(10);
 756              		.loc 1 7 7 is_stmt 1 view .LVU213
 757              		.loc 1 7 27 is_stmt 0 view .LVU214
 758 0262 0A21     		movs	r1, #10
 759 0264 04F5A550 		add	r0, r4, #5280
 760 0268 0830     		adds	r0, r0, #8
 761 026a FFF7FEFF 		bl	_ZN9MovingAve9SetLengthEh
 762              	.LVL52:
   8:src/unit/robot/robot.cpp ****       ball_vel_x_ave.SetLength(3);
 763              		.loc 1 8 7 is_stmt 1 view .LVU215
 764              		.loc 1 8 31 is_stmt 0 view .LVU216
 765 026e 0321     		movs	r1, #3
 766 0270 04F5BF50 		add	r0, r4, #6112
 767 0274 FFF7FEFF 		bl	_ZN9MovingAve9SetLengthEh
 768              	.LVL53:
   9:src/unit/robot/robot.cpp ****       ball_vel_y_ave.SetLength(3);
 769              		.loc 1 9 7 is_stmt 1 view .LVU217
 770              		.loc 1 9 31 is_stmt 0 view .LVU218
 771 0278 0321     		movs	r1, #3
 772 027a 04F5D850 		add	r0, r4, #6912
 773 027e 1830     		adds	r0, r0, #24
 774 0280 FFF7FEFF 		bl	_ZN9MovingAve9SetLengthEh
 775              	.LVL54:
 776              	.LEHE5:
 777 0284 28E0     		b	.L28
 778              	.L25:
 779              	.LVL55:
 780              	.LBB212:
 781              	.LBI212:
  26:Lib/BufferedSerial/BufferedSerial.hpp ****             delete[] _rxBuf;
 782              		.loc 2 26 7 is_stmt 1 view .LVU219
 783              	.LBB213:
  27:Lib/BufferedSerial/BufferedSerial.hpp ****       }
 784              		.loc 2 27 13 view .LVU220
  27:Lib/BufferedSerial/BufferedSerial.hpp ****       }
 785              		.loc 2 27 22 is_stmt 0 view .LVU221
 786 0286 04F58053 		add	r3, r4, #4096
 787 028a D3F85001 		ldr	r0, [r3, #336]
  27:Lib/BufferedSerial/BufferedSerial.hpp ****       }
 788              		.loc 2 27 13 view .LVU222
 789 028e 08B1     		cbz	r0, .L13
  27:Lib/BufferedSerial/BufferedSerial.hpp ****       }
 790              		.loc 2 27 22 view .LVU223
 791 0290 FFF7FEFF 		bl	_ZdaPv
 792              	.LVL56:
 793              	.L13:
  27:Lib/BufferedSerial/BufferedSerial.hpp ****       }
 794              		.loc 2 27 22 view .LVU224
 795              	.LBE213:
 796              	.LBE212:
 797              	.LBB214:
ARM GAS  /var/folders/5c/srt4fy4j1pd641bjfx75k5000000gn/T//ccvAokLV.s 			page 20


 798              	.LBI214:
  26:Lib/BufferedSerial/BufferedSerial.hpp ****             delete[] _rxBuf;
 799              		.loc 2 26 7 is_stmt 1 view .LVU225
 800              	.LBB215:
  27:Lib/BufferedSerial/BufferedSerial.hpp ****       }
 801              		.loc 2 27 13 view .LVU226
  27:Lib/BufferedSerial/BufferedSerial.hpp ****       }
 802              		.loc 2 27 22 is_stmt 0 view .LVU227
 803 0294 04F58053 		add	r3, r4, #4096
 804 0298 D3F84001 		ldr	r0, [r3, #320]
  27:Lib/BufferedSerial/BufferedSerial.hpp ****       }
 805              		.loc 2 27 13 view .LVU228
 806 029c 08B1     		cbz	r0, .L15
  27:Lib/BufferedSerial/BufferedSerial.hpp ****       }
 807              		.loc 2 27 22 view .LVU229
 808 029e FFF7FEFF 		bl	_ZdaPv
 809              	.LVL57:
 810              	.L15:
  27:Lib/BufferedSerial/BufferedSerial.hpp ****       }
 811              		.loc 2 27 22 view .LVU230
 812              	.LBE215:
 813              	.LBE214:
 814              	.LBB216:
 815              	.LBI216:
  26:Lib/BufferedSerial/BufferedSerial.hpp ****             delete[] _rxBuf;
 816              		.loc 2 26 7 is_stmt 1 view .LVU231
 817              	.LBB217:
  27:Lib/BufferedSerial/BufferedSerial.hpp ****       }
 818              		.loc 2 27 13 view .LVU232
  27:Lib/BufferedSerial/BufferedSerial.hpp ****       }
 819              		.loc 2 27 22 is_stmt 0 view .LVU233
 820 02a2 04F58053 		add	r3, r4, #4096
 821 02a6 D3F83001 		ldr	r0, [r3, #304]
  27:Lib/BufferedSerial/BufferedSerial.hpp ****       }
 822              		.loc 2 27 13 view .LVU234
 823 02aa 08B1     		cbz	r0, .L17
  27:Lib/BufferedSerial/BufferedSerial.hpp ****       }
 824              		.loc 2 27 22 view .LVU235
 825 02ac FFF7FEFF 		bl	_ZdaPv
 826              	.LVL58:
 827              	.L17:
  27:Lib/BufferedSerial/BufferedSerial.hpp ****       }
 828              		.loc 2 27 22 view .LVU236
 829              	.LBE217:
 830              	.LBE216:
 831              	.LBB218:
 832              	.LBI218:
  26:Lib/BufferedSerial/BufferedSerial.hpp ****             delete[] _rxBuf;
 833              		.loc 2 26 7 is_stmt 1 view .LVU237
 834              	.LBB219:
  27:Lib/BufferedSerial/BufferedSerial.hpp ****       }
 835              		.loc 2 27 13 view .LVU238
  27:Lib/BufferedSerial/BufferedSerial.hpp ****       }
 836              		.loc 2 27 22 is_stmt 0 view .LVU239
 837 02b0 04F58053 		add	r3, r4, #4096
 838 02b4 D3F82001 		ldr	r0, [r3, #288]
  27:Lib/BufferedSerial/BufferedSerial.hpp ****       }
ARM GAS  /var/folders/5c/srt4fy4j1pd641bjfx75k5000000gn/T//ccvAokLV.s 			page 21


 839              		.loc 2 27 13 view .LVU240
 840 02b8 08B1     		cbz	r0, .L19
  27:Lib/BufferedSerial/BufferedSerial.hpp ****       }
 841              		.loc 2 27 22 view .LVU241
 842 02ba FFF7FEFF 		bl	_ZdaPv
 843              	.LVL59:
 844              	.L19:
  27:Lib/BufferedSerial/BufferedSerial.hpp ****       }
 845              		.loc 2 27 22 view .LVU242
 846              	.LBE219:
 847              	.LBE218:
 848              	.LBB220:
 849              	.LBI220:
  26:Lib/BufferedSerial/BufferedSerial.hpp ****             delete[] _rxBuf;
 850              		.loc 2 26 7 is_stmt 1 view .LVU243
 851              	.LBB221:
  27:Lib/BufferedSerial/BufferedSerial.hpp ****       }
 852              		.loc 2 27 13 view .LVU244
  27:Lib/BufferedSerial/BufferedSerial.hpp ****       }
 853              		.loc 2 27 22 is_stmt 0 view .LVU245
 854 02be 04F58054 		add	r4, r4, #4096
 855              	.LVL60:
  27:Lib/BufferedSerial/BufferedSerial.hpp ****       }
 856              		.loc 2 27 22 view .LVU246
 857 02c2 D4F81001 		ldr	r0, [r4, #272]
  27:Lib/BufferedSerial/BufferedSerial.hpp ****       }
 858              		.loc 2 27 13 view .LVU247
 859 02c6 08B1     		cbz	r0, .L20
  27:Lib/BufferedSerial/BufferedSerial.hpp ****       }
 860              		.loc 2 27 22 view .LVU248
 861 02c8 FFF7FEFF 		bl	_ZdaPv
 862              	.LVL61:
 863              	.L20:
 864              	.LEHB6:
  27:Lib/BufferedSerial/BufferedSerial.hpp ****       }
 865              		.loc 2 27 22 view .LVU249
 866 02cc FFF7FEFF 		bl	__cxa_end_cleanup
 867              	.LVL62:
 868              	.LEHE6:
 869              	.L24:
  27:Lib/BufferedSerial/BufferedSerial.hpp ****       }
 870              		.loc 2 27 22 view .LVU250
 871 02d0 E0E7     		b	.L13
 872              	.LVL63:
 873              	.L23:
  27:Lib/BufferedSerial/BufferedSerial.hpp ****       }
 874              		.loc 2 27 22 view .LVU251
 875 02d2 E6E7     		b	.L15
 876              	.LVL64:
 877              	.L22:
  27:Lib/BufferedSerial/BufferedSerial.hpp ****       }
 878              		.loc 2 27 22 view .LVU252
 879 02d4 ECE7     		b	.L17
 880              	.LVL65:
 881              	.L21:
  27:Lib/BufferedSerial/BufferedSerial.hpp ****       }
 882              		.loc 2 27 22 view .LVU253
ARM GAS  /var/folders/5c/srt4fy4j1pd641bjfx75k5000000gn/T//ccvAokLV.s 			page 22


 883 02d6 F2E7     		b	.L19
 884              	.LVL66:
 885              	.L28:
  27:Lib/BufferedSerial/BufferedSerial.hpp ****       }
 886              		.loc 2 27 22 view .LVU254
 887              	.LBE221:
 888              	.LBE220:
 889              	.LBE162:
  10:src/unit/robot/robot.cpp **** }
 890              		.loc 1 10 1 view .LVU255
 891 02d8 2046     		mov	r0, r4
 892 02da 09B0     		add	sp, sp, #36
 893              	.LCFI4:
 894              		.cfi_def_cfa_offset 20
 895              		@ sp needed
 896 02dc F0BD     		pop	{r4, r5, r6, r7, pc}
 897              	.LVL67:
 898              	.L30:
 899              		.loc 1 10 1 view .LVU256
 900 02de 00BF     		.align	2
 901              	.L29:
 902 02e0 00000240 		.word	1073872896
 903 02e4 00000000 		.word	htim13
 904 02e8 00000000 		.word	htim12
 905 02ec 00000000 		.word	htim2
 906 02f0 00000000 		.word	htim3
 907 02f4 00000000 		.word	htim4
 908 02f8 00080240 		.word	1073874944
 909 02fc 00000000 		.word	huart1
 910 0300 00000000 		.word	huart2
 911 0304 00000000 		.word	huart3
 912 0308 00000000 		.word	huart4
 913 030c 00000000 		.word	huart5
 914              		.cfi_endproc
 915              	.LFE285:
 916              		.global	__gxx_personality_v0
 917              		.personality	__gxx_personality_v0
 918              		.handlerdata
 919              	.LLSDA285:
 920 0008 FF       		.byte	0xff
 921 0009 FF       		.byte	0xff
 922 000a 01       		.byte	0x1
 923 000b 28       		.uleb128 .LLSDACSE285-.LLSDACSB285
 924              	.LLSDACSB285:
 925 000c 22       		.uleb128 .LEHB0-.LFB285
 926 000d E802     		.uleb128 .LEHE0-.LEHB0
 927 000f 00       		.uleb128 0
 928 0010 00       		.uleb128 0
 929 0011 AA03     		.uleb128 .LEHB1-.LFB285
 930 0013 04       		.uleb128 .LEHE1-.LEHB1
 931 0014 D605     		.uleb128 .L21-.LFB285
 932 0016 00       		.uleb128 0
 933 0017 CE03     		.uleb128 .LEHB2-.LFB285
 934 0019 04       		.uleb128 .LEHE2-.LEHB2
 935 001a D405     		.uleb128 .L22-.LFB285
 936 001c 00       		.uleb128 0
 937 001d F203     		.uleb128 .LEHB3-.LFB285
ARM GAS  /var/folders/5c/srt4fy4j1pd641bjfx75k5000000gn/T//ccvAokLV.s 			page 23


 938 001f 04       		.uleb128 .LEHE3-.LEHB3
 939 0020 D205     		.uleb128 .L23-.LFB285
 940 0022 00       		.uleb128 0
 941 0023 9404     		.uleb128 .LEHB4-.LFB285
 942 0025 04       		.uleb128 .LEHE4-.LEHB4
 943 0026 D005     		.uleb128 .L24-.LFB285
 944 0028 00       		.uleb128 0
 945 0029 B604     		.uleb128 .LEHB5-.LFB285
 946 002b 4E       		.uleb128 .LEHE5-.LEHB5
 947 002c 8605     		.uleb128 .L25-.LFB285
 948 002e 00       		.uleb128 0
 949 002f CC05     		.uleb128 .LEHB6-.LFB285
 950 0031 04       		.uleb128 .LEHE6-.LEHB6
 951 0032 00       		.uleb128 0
 952 0033 00       		.uleb128 0
 953              	.LLSDACSE285:
 954              		.section	.text._ZN5RobotC2Ev
 955              		.fnend
 957              		.global	_ZN5RobotC1Ev
 958              		.thumb_set _ZN5RobotC1Ev,_ZN5RobotC2Ev
 959              		.section	.text._ZN5Robot12HardwareInitEv,"ax",%progbits
 960              		.align	1
 961              		.global	_ZN5Robot12HardwareInitEv
 962              		.syntax unified
 963              		.thumb
 964              		.thumb_func
 966              	_ZN5Robot12HardwareInitEv:
 967              		.fnstart
 968              	.LVL68:
 969              	.LFB287:
  11:src/unit/robot/robot.cpp **** 
  12:src/unit/robot/robot.cpp **** void Robot::HardwareInit() {
 970              		.loc 1 12 28 is_stmt 1 view -0
 971              		.cfi_startproc
 972              		@ args = 0, pretend = 0, frame = 0
 973              		@ frame_needed = 0, uses_anonymous_args = 0
 974              		.loc 1 12 28 is_stmt 0 view .LVU258
 975 0000 70B5     		push	{r4, r5, r6, lr}
 976              		.save {r4, r5, r6, lr}
 977              	.LCFI5:
 978              		.cfi_def_cfa_offset 16
 979              		.cfi_offset 4, -16
 980              		.cfi_offset 5, -12
 981              		.cfi_offset 6, -8
 982              		.cfi_offset 14, -4
 983 0002 0546     		mov	r5, r0
  13:src/unit/robot/robot.cpp ****       HAL_ADC_Start(&hadc1);
 984              		.loc 1 13 7 is_stmt 1 view .LVU259
 985              		.loc 1 13 20 is_stmt 0 view .LVU260
 986 0004 464C     		ldr	r4, .L35
 987 0006 2046     		mov	r0, r4
 988              	.LVL69:
 989              		.loc 1 13 20 view .LVU261
 990 0008 FFF7FEFF 		bl	HAL_ADC_Start
 991              	.LVL70:
  14:src/unit/robot/robot.cpp ****       HAL_ADC_Start_DMA(&hadc1, (uint32_t *)&adc_get_val, 3);
 992              		.loc 1 14 7 is_stmt 1 view .LVU262
ARM GAS  /var/folders/5c/srt4fy4j1pd641bjfx75k5000000gn/T//ccvAokLV.s 			page 24


 993              		.loc 1 14 24 is_stmt 0 view .LVU263
 994 000c 0322     		movs	r2, #3
 995 000e 4549     		ldr	r1, .L35+4
 996 0010 2046     		mov	r0, r4
 997 0012 FFF7FEFF 		bl	HAL_ADC_Start_DMA
 998              	.LVL71:
  15:src/unit/robot/robot.cpp ****       for (uint8_t i = 0; i < 3; i++) {
 999              		.loc 1 15 7 is_stmt 1 view .LVU264
 1000              	.LBB222:
 1001              		.loc 1 15 20 is_stmt 0 view .LVU265
 1002 0016 0022     		movs	r2, #0
 1003              		.loc 1 15 7 view .LVU266
 1004 0018 06E0     		b	.L32
 1005              	.LVL72:
 1006              	.L33:
  16:src/unit/robot/robot.cpp ****             while (!(adc_get_val[i] > 0));
 1007              		.loc 1 16 20 is_stmt 1 discriminator 1 view .LVU267
 1008              		.loc 1 16 35 is_stmt 0 discriminator 1 view .LVU268
 1009 001a 424B     		ldr	r3, .L35+4
 1010 001c 33F81230 		ldrh	r3, [r3, r2, lsl #1]
 1011              		.loc 1 16 20 discriminator 1 view .LVU269
 1012 0020 002B     		cmp	r3, #0
 1013 0022 FAD0     		beq	.L33
  15:src/unit/robot/robot.cpp ****       for (uint8_t i = 0; i < 3; i++) {
 1014              		.loc 1 15 7 is_stmt 1 discriminator 2 view .LVU270
 1015 0024 0132     		adds	r2, r2, #1
 1016              	.LVL73:
  15:src/unit/robot/robot.cpp ****       for (uint8_t i = 0; i < 3; i++) {
 1017              		.loc 1 15 7 is_stmt 0 discriminator 2 view .LVU271
 1018 0026 D2B2     		uxtb	r2, r2
 1019              	.LVL74:
 1020              	.L32:
  15:src/unit/robot/robot.cpp ****       for (uint8_t i = 0; i < 3; i++) {
 1021              		.loc 1 15 29 is_stmt 1 discriminator 1 view .LVU272
 1022 0028 022A     		cmp	r2, #2
 1023 002a F6D9     		bls	.L33
 1024              	.LBE222:
  17:src/unit/robot/robot.cpp ****       }
  18:src/unit/robot/robot.cpp **** 
  19:src/unit/robot/robot.cpp ****       // 諸々の初期化
  20:src/unit/robot/robot.cpp ****       serial1.init();
 1025              		.loc 1 20 7 view .LVU273
 1026              	.LVL75:
 1027              	.LBB223:
 1028              	.LBI223:
  30:Lib/BufferedSerial/BufferedSerial.hpp ****             _useDMA = dma;
 1029              		.loc 2 30 12 view .LVU274
 1030              	.LBB224:
  31:Lib/BufferedSerial/BufferedSerial.hpp ****             HAL_UART_Receive_DMA(_huart, _rxBuf, _rxBufSize);
 1031              		.loc 2 31 13 view .LVU275
  31:Lib/BufferedSerial/BufferedSerial.hpp ****             HAL_UART_Receive_DMA(_huart, _rxBuf, _rxBufSize);
 1032              		.loc 2 31 21 is_stmt 0 view .LVU276
 1033 002c 05F58054 		add	r4, r5, #4096
 1034 0030 0026     		movs	r6, #0
 1035 0032 84F81A61 		strb	r6, [r4, #282]
  32:Lib/BufferedSerial/BufferedSerial.hpp ****       }
 1036              		.loc 2 32 13 is_stmt 1 view .LVU277
ARM GAS  /var/folders/5c/srt4fy4j1pd641bjfx75k5000000gn/T//ccvAokLV.s 			page 25


  32:Lib/BufferedSerial/BufferedSerial.hpp ****       }
 1037              		.loc 2 32 33 is_stmt 0 view .LVU278
 1038 0036 B4F81821 		ldrh	r2, [r4, #280]
 1039              	.LVL76:
  32:Lib/BufferedSerial/BufferedSerial.hpp ****       }
 1040              		.loc 2 32 33 view .LVU279
 1041 003a D4F81011 		ldr	r1, [r4, #272]
 1042 003e D4F80C01 		ldr	r0, [r4, #268]
 1043 0042 FFF7FEFF 		bl	HAL_UART_Receive_DMA
 1044              	.LVL77:
  32:Lib/BufferedSerial/BufferedSerial.hpp ****       }
 1045              		.loc 2 32 33 view .LVU280
 1046              	.LBE224:
 1047              	.LBE223:
  21:src/unit/robot/robot.cpp ****       serial2.init();
 1048              		.loc 1 21 7 is_stmt 1 view .LVU281
 1049              	.LBB225:
 1050              	.LBI225:
  30:Lib/BufferedSerial/BufferedSerial.hpp ****             _useDMA = dma;
 1051              		.loc 2 30 12 view .LVU282
 1052              	.LBB226:
  31:Lib/BufferedSerial/BufferedSerial.hpp ****             HAL_UART_Receive_DMA(_huart, _rxBuf, _rxBufSize);
 1053              		.loc 2 31 13 view .LVU283
  31:Lib/BufferedSerial/BufferedSerial.hpp ****             HAL_UART_Receive_DMA(_huart, _rxBuf, _rxBufSize);
 1054              		.loc 2 31 21 is_stmt 0 view .LVU284
 1055 0046 84F82A61 		strb	r6, [r4, #298]
  32:Lib/BufferedSerial/BufferedSerial.hpp ****       }
 1056              		.loc 2 32 13 is_stmt 1 view .LVU285
  32:Lib/BufferedSerial/BufferedSerial.hpp ****       }
 1057              		.loc 2 32 33 is_stmt 0 view .LVU286
 1058 004a B4F82821 		ldrh	r2, [r4, #296]
 1059 004e D4F82011 		ldr	r1, [r4, #288]
 1060 0052 D4F81C01 		ldr	r0, [r4, #284]
 1061 0056 FFF7FEFF 		bl	HAL_UART_Receive_DMA
 1062              	.LVL78:
  32:Lib/BufferedSerial/BufferedSerial.hpp ****       }
 1063              		.loc 2 32 33 view .LVU287
 1064              	.LBE226:
 1065              	.LBE225:
  22:src/unit/robot/robot.cpp ****       serial3.init();
 1066              		.loc 1 22 7 is_stmt 1 view .LVU288
 1067              	.LBB227:
 1068              	.LBI227:
  30:Lib/BufferedSerial/BufferedSerial.hpp ****             _useDMA = dma;
 1069              		.loc 2 30 12 view .LVU289
 1070              	.LBB228:
  31:Lib/BufferedSerial/BufferedSerial.hpp ****             HAL_UART_Receive_DMA(_huart, _rxBuf, _rxBufSize);
 1071              		.loc 2 31 13 view .LVU290
  31:Lib/BufferedSerial/BufferedSerial.hpp ****             HAL_UART_Receive_DMA(_huart, _rxBuf, _rxBufSize);
 1072              		.loc 2 31 21 is_stmt 0 view .LVU291
 1073 005a 84F83A61 		strb	r6, [r4, #314]
  32:Lib/BufferedSerial/BufferedSerial.hpp ****       }
 1074              		.loc 2 32 13 is_stmt 1 view .LVU292
  32:Lib/BufferedSerial/BufferedSerial.hpp ****       }
 1075              		.loc 2 32 33 is_stmt 0 view .LVU293
 1076 005e B4F83821 		ldrh	r2, [r4, #312]
 1077 0062 D4F83011 		ldr	r1, [r4, #304]
ARM GAS  /var/folders/5c/srt4fy4j1pd641bjfx75k5000000gn/T//ccvAokLV.s 			page 26


 1078 0066 D4F82C01 		ldr	r0, [r4, #300]
 1079 006a FFF7FEFF 		bl	HAL_UART_Receive_DMA
 1080              	.LVL79:
  32:Lib/BufferedSerial/BufferedSerial.hpp ****       }
 1081              		.loc 2 32 33 view .LVU294
 1082              	.LBE228:
 1083              	.LBE227:
  23:src/unit/robot/robot.cpp ****       serial4.init();
 1084              		.loc 1 23 7 is_stmt 1 view .LVU295
 1085              	.LBB229:
 1086              	.LBI229:
  30:Lib/BufferedSerial/BufferedSerial.hpp ****             _useDMA = dma;
 1087              		.loc 2 30 12 view .LVU296
 1088              	.LBB230:
  31:Lib/BufferedSerial/BufferedSerial.hpp ****             HAL_UART_Receive_DMA(_huart, _rxBuf, _rxBufSize);
 1089              		.loc 2 31 13 view .LVU297
  31:Lib/BufferedSerial/BufferedSerial.hpp ****             HAL_UART_Receive_DMA(_huart, _rxBuf, _rxBufSize);
 1090              		.loc 2 31 21 is_stmt 0 view .LVU298
 1091 006e 84F84A61 		strb	r6, [r4, #330]
  32:Lib/BufferedSerial/BufferedSerial.hpp ****       }
 1092              		.loc 2 32 13 is_stmt 1 view .LVU299
  32:Lib/BufferedSerial/BufferedSerial.hpp ****       }
 1093              		.loc 2 32 33 is_stmt 0 view .LVU300
 1094 0072 B4F84821 		ldrh	r2, [r4, #328]
 1095 0076 D4F84011 		ldr	r1, [r4, #320]
 1096 007a D4F83C01 		ldr	r0, [r4, #316]
 1097 007e FFF7FEFF 		bl	HAL_UART_Receive_DMA
 1098              	.LVL80:
  32:Lib/BufferedSerial/BufferedSerial.hpp ****       }
 1099              		.loc 2 32 33 view .LVU301
 1100              	.LBE230:
 1101              	.LBE229:
  24:src/unit/robot/robot.cpp ****       serial5.init();
 1102              		.loc 1 24 7 is_stmt 1 view .LVU302
 1103              	.LBB231:
 1104              	.LBI231:
  30:Lib/BufferedSerial/BufferedSerial.hpp ****             _useDMA = dma;
 1105              		.loc 2 30 12 view .LVU303
 1106              	.LBB232:
  31:Lib/BufferedSerial/BufferedSerial.hpp ****             HAL_UART_Receive_DMA(_huart, _rxBuf, _rxBufSize);
 1107              		.loc 2 31 13 view .LVU304
  31:Lib/BufferedSerial/BufferedSerial.hpp ****             HAL_UART_Receive_DMA(_huart, _rxBuf, _rxBufSize);
 1108              		.loc 2 31 21 is_stmt 0 view .LVU305
 1109 0082 84F85A61 		strb	r6, [r4, #346]
  32:Lib/BufferedSerial/BufferedSerial.hpp ****       }
 1110              		.loc 2 32 13 is_stmt 1 view .LVU306
  32:Lib/BufferedSerial/BufferedSerial.hpp ****       }
 1111              		.loc 2 32 33 is_stmt 0 view .LVU307
 1112 0086 B4F85821 		ldrh	r2, [r4, #344]
 1113 008a D4F85011 		ldr	r1, [r4, #336]
 1114 008e D4F84C01 		ldr	r0, [r4, #332]
 1115 0092 FFF7FEFF 		bl	HAL_UART_Receive_DMA
 1116              	.LVL81:
  32:Lib/BufferedSerial/BufferedSerial.hpp ****       }
 1117              		.loc 2 32 33 view .LVU308
 1118              	.LBE232:
 1119              	.LBE231:
ARM GAS  /var/folders/5c/srt4fy4j1pd641bjfx75k5000000gn/T//ccvAokLV.s 			page 27


  25:src/unit/robot/robot.cpp ****       ledh.init();
 1120              		.loc 1 25 7 is_stmt 1 view .LVU309
 1121              		.loc 1 25 16 is_stmt 0 view .LVU310
 1122 0096 05F1A400 		add	r0, r5, #164
 1123 009a FFF7FEFF 		bl	_ZN12PwmSingleOut4initEv
 1124              	.LVL82:
  26:src/unit/robot/robot.cpp ****       motor1a.init();
 1125              		.loc 1 26 7 is_stmt 1 view .LVU311
 1126              		.loc 1 26 19 is_stmt 0 view .LVU312
 1127 009e 05F1B400 		add	r0, r5, #180
 1128 00a2 FFF7FEFF 		bl	_ZN12PwmSingleOut4initEv
 1129              	.LVL83:
  27:src/unit/robot/robot.cpp ****       motor1b.init();
 1130              		.loc 1 27 7 is_stmt 1 view .LVU313
 1131              		.loc 1 27 19 is_stmt 0 view .LVU314
 1132 00a6 05F1C400 		add	r0, r5, #196
 1133 00aa FFF7FEFF 		bl	_ZN12PwmSingleOut4initEv
 1134              	.LVL84:
  28:src/unit/robot/robot.cpp ****       motor2a.init();
 1135              		.loc 1 28 7 is_stmt 1 view .LVU315
 1136              		.loc 1 28 19 is_stmt 0 view .LVU316
 1137 00ae 05F1D400 		add	r0, r5, #212
 1138 00b2 FFF7FEFF 		bl	_ZN12PwmSingleOut4initEv
 1139              	.LVL85:
  29:src/unit/robot/robot.cpp ****       motor2b.init();
 1140              		.loc 1 29 7 is_stmt 1 view .LVU317
 1141              		.loc 1 29 19 is_stmt 0 view .LVU318
 1142 00b6 05F1E400 		add	r0, r5, #228
 1143 00ba FFF7FEFF 		bl	_ZN12PwmSingleOut4initEv
 1144              	.LVL86:
  30:src/unit/robot/robot.cpp ****       motor3a.init();
 1145              		.loc 1 30 7 is_stmt 1 view .LVU319
 1146              		.loc 1 30 19 is_stmt 0 view .LVU320
 1147 00be 05F1F400 		add	r0, r5, #244
 1148 00c2 FFF7FEFF 		bl	_ZN12PwmSingleOut4initEv
 1149              	.LVL87:
  31:src/unit/robot/robot.cpp ****       motor3b.init();
 1150              		.loc 1 31 7 is_stmt 1 view .LVU321
 1151              		.loc 1 31 19 is_stmt 0 view .LVU322
 1152 00c6 05F58270 		add	r0, r5, #260
 1153 00ca FFF7FEFF 		bl	_ZN12PwmSingleOut4initEv
 1154              	.LVL88:
  32:src/unit/robot/robot.cpp ****       motor4a.init();
 1155              		.loc 1 32 7 is_stmt 1 view .LVU323
 1156              		.loc 1 32 19 is_stmt 0 view .LVU324
 1157 00ce 05F58A70 		add	r0, r5, #276
 1158 00d2 FFF7FEFF 		bl	_ZN12PwmSingleOut4initEv
 1159              	.LVL89:
  33:src/unit/robot/robot.cpp ****       motor4b.init();
 1160              		.loc 1 33 7 is_stmt 1 view .LVU325
 1161              		.loc 1 33 19 is_stmt 0 view .LVU326
 1162 00d6 05F59270 		add	r0, r5, #292
 1163 00da FFF7FEFF 		bl	_ZN12PwmSingleOut4initEv
 1164              	.LVL90:
  34:src/unit/robot/robot.cpp ****       dribbler_front_a.init();
 1165              		.loc 1 34 7 is_stmt 1 view .LVU327
 1166              		.loc 1 34 28 is_stmt 0 view .LVU328
ARM GAS  /var/folders/5c/srt4fy4j1pd641bjfx75k5000000gn/T//ccvAokLV.s 			page 28


 1167 00de 05F59A70 		add	r0, r5, #308
 1168 00e2 FFF7FEFF 		bl	_ZN12PwmSingleOut4initEv
 1169              	.LVL91:
  35:src/unit/robot/robot.cpp ****       dribbler_front_b.init();
 1170              		.loc 1 35 7 is_stmt 1 view .LVU329
 1171              		.loc 1 35 28 is_stmt 0 view .LVU330
 1172 00e6 05F5A270 		add	r0, r5, #324
 1173 00ea FFF7FEFF 		bl	_ZN12PwmSingleOut4initEv
 1174              	.LVL92:
  36:src/unit/robot/robot.cpp ****       dribbler_back_a.init();
 1175              		.loc 1 36 7 is_stmt 1 view .LVU331
 1176              		.loc 1 36 27 is_stmt 0 view .LVU332
 1177 00ee 05F5AA70 		add	r0, r5, #340
 1178 00f2 FFF7FEFF 		bl	_ZN12PwmSingleOut4initEv
 1179              	.LVL93:
  37:src/unit/robot/robot.cpp ****       dribbler_back_b.init();
 1180              		.loc 1 37 7 is_stmt 1 view .LVU333
 1181              		.loc 1 37 27 is_stmt 0 view .LVU334
 1182 00f6 05F5B270 		add	r0, r5, #356
 1183 00fa FFF7FEFF 		bl	_ZN12PwmSingleOut4initEv
 1184              	.LVL94:
  38:src/unit/robot/robot.cpp **** 
  39:src/unit/robot/robot.cpp ****       // 接続確認
  40:src/unit/robot/robot.cpp ****       motor.CheckConnection();
 1185              		.loc 1 40 7 is_stmt 1 view .LVU335
 1186              		.loc 1 40 28 is_stmt 0 view .LVU336
 1187 00fe 05F5C470 		add	r0, r5, #392
 1188 0102 FFF7FEFF 		bl	_ZN10MotorDrive15CheckConnectionEv
 1189              	.LVL95:
  41:src/unit/robot/robot.cpp ****       HAL_Delay(200);
 1190              		.loc 1 41 7 is_stmt 1 view .LVU337
 1191              		.loc 1 41 16 is_stmt 0 view .LVU338
 1192 0106 C820     		movs	r0, #200
 1193 0108 FFF7FEFF 		bl	HAL_Delay
 1194              	.LVL96:
  42:src/unit/robot/robot.cpp ****       dribbler_front.CheckConnection();
 1195              		.loc 1 42 7 is_stmt 1 view .LVU339
 1196              		.loc 1 42 37 is_stmt 0 view .LVU340
 1197 010c 05F58650 		add	r0, r5, #4288
 1198 0110 0830     		adds	r0, r0, #8
 1199 0112 FFF7FEFF 		bl	_ZN13DribblerDrive15CheckConnectionEv
 1200              	.LVL97:
  43:src/unit/robot/robot.cpp ****       dribbler_back.CheckConnection();
 1201              		.loc 1 43 7 is_stmt 1 view .LVU341
 1202              		.loc 1 43 36 is_stmt 0 view .LVU342
 1203 0116 05F58750 		add	r0, r5, #4320
 1204 011a FFF7FEFF 		bl	_ZN13DribblerDrive15CheckConnectionEv
 1205              	.LVL98:
  44:src/unit/robot/robot.cpp **** }
 1206              		.loc 1 44 1 view .LVU343
 1207 011e 70BD     		pop	{r4, r5, r6, pc}
 1208              	.LVL99:
 1209              	.L36:
 1210              		.loc 1 44 1 view .LVU344
 1211              		.align	2
 1212              	.L35:
 1213 0120 00000000 		.word	hadc1
ARM GAS  /var/folders/5c/srt4fy4j1pd641bjfx75k5000000gn/T//ccvAokLV.s 			page 29


 1214 0124 00000000 		.word	adc_get_val
 1215              		.cfi_endproc
 1216              	.LFE287:
 1217              		.fnend
 1219              		.global	__aeabi_i2d
 1220              		.global	__aeabi_dmul
 1221              		.global	__aeabi_d2f
 1222              		.global	__aeabi_f2d
 1223              		.global	__aeabi_dadd
 1224              		.global	__aeabi_ui2d
 1225              		.global	__aeabi_d2uiz
 1226              		.section	.text._ZN5Robot10GetSensorsEv,"ax",%progbits
 1227              		.align	1
 1228              		.global	_ZN5Robot10GetSensorsEv
 1229              		.syntax unified
 1230              		.thumb
 1231              		.thumb_func
 1233              	_ZN5Robot10GetSensorsEv:
 1234              		.fnstart
 1235              	.LVL100:
 1236              	.LFB288:
  45:src/unit/robot/robot.cpp **** 
  46:src/unit/robot/robot.cpp **** void Robot::GetSensors() {
 1237              		.loc 1 46 26 is_stmt 1 view -0
 1238              		.cfi_startproc
 1239              		@ args = 0, pretend = 0, frame = 0
 1240              		@ frame_needed = 0, uses_anonymous_args = 0
 1241              		.loc 1 46 26 is_stmt 0 view .LVU346
 1242 0000 F8B5     		push	{r3, r4, r5, r6, r7, lr}
 1243              		.save {r3, r4, r5, r6, r7, lr}
 1244              	.LCFI6:
 1245              		.cfi_def_cfa_offset 24
 1246              		.cfi_offset 3, -24
 1247              		.cfi_offset 4, -20
 1248              		.cfi_offset 5, -16
 1249              		.cfi_offset 6, -12
 1250              		.cfi_offset 7, -8
 1251              		.cfi_offset 14, -4
 1252 0002 0446     		mov	r4, r0
  47:src/unit/robot/robot.cpp ****       static float pre_voltage = 9.6;
 1253              		.loc 1 47 7 is_stmt 1 view .LVU347
  48:src/unit/robot/robot.cpp ****       info.voltage = adc_get_val[0] * VOLTAGE_CONVERTION;
 1254              		.loc 1 48 7 view .LVU348
 1255              		.loc 1 48 37 is_stmt 0 view .LVU349
 1256 0004 3C4B     		ldr	r3, .L42+24
 1257 0006 1888     		ldrh	r0, [r3]
 1258              	.LVL101:
 1259              		.loc 1 48 37 view .LVU350
 1260 0008 FFF7FEFF 		bl	__aeabi_i2d
 1261              	.LVL102:
 1262 000c 34A3     		adr	r3, .L42
 1263 000e D3E90023 		ldrd	r2, [r3]
 1264 0012 FFF7FEFF 		bl	__aeabi_dmul
 1265              	.LVL103:
 1266 0016 FFF7FEFF 		bl	__aeabi_d2f
 1267              	.LVL104:
 1268              		.loc 1 48 20 view .LVU351
ARM GAS  /var/folders/5c/srt4fy4j1pd641bjfx75k5000000gn/T//ccvAokLV.s 			page 30


 1269 001a 2060     		str	r0, [r4]	@ float
  49:src/unit/robot/robot.cpp ****       info.voltage = info.voltage * (1 - VOLTAGE_RC) + pre_voltage * VOLTAGE_RC;
 1270              		.loc 1 49 7 is_stmt 1 view .LVU352
 1271              		.loc 1 49 27 is_stmt 0 view .LVU353
 1272 001c FFF7FEFF 		bl	__aeabi_f2d
 1273              	.LVL105:
 1274              		.loc 1 49 35 view .LVU354
 1275 0020 31A3     		adr	r3, .L42+8
 1276 0022 D3E90023 		ldrd	r2, [r3]
 1277 0026 FFF7FEFF 		bl	__aeabi_dmul
 1278              	.LVL106:
 1279 002a 0646     		mov	r6, r0
 1280 002c 0F46     		mov	r7, r1
 1281              		.loc 1 49 56 view .LVU355
 1282 002e 334B     		ldr	r3, .L42+28
 1283 0030 1868     		ldr	r0, [r3]	@ float
 1284 0032 FFF7FEFF 		bl	__aeabi_f2d
 1285              	.LVL107:
 1286              		.loc 1 49 68 view .LVU356
 1287 0036 2EA3     		adr	r3, .L42+16
 1288 0038 D3E90023 		ldrd	r2, [r3]
 1289 003c FFF7FEFF 		bl	__aeabi_dmul
 1290              	.LVL108:
 1291 0040 0246     		mov	r2, r0
 1292 0042 0B46     		mov	r3, r1
 1293              		.loc 1 49 54 view .LVU357
 1294 0044 3046     		mov	r0, r6
 1295 0046 3946     		mov	r1, r7
 1296 0048 FFF7FEFF 		bl	__aeabi_dadd
 1297              	.LVL109:
 1298 004c FFF7FEFF 		bl	__aeabi_d2f
 1299              	.LVL110:
 1300 0050 07EE900A 		vmov	s15, r0
 1301              		.loc 1 49 20 view .LVU358
 1302 0054 2060     		str	r0, [r4]	@ float
  50:src/unit/robot/robot.cpp ****       if (info.voltage > 12.5) info.voltage = 12.5;
 1303              		.loc 1 50 7 is_stmt 1 view .LVU359
 1304 0056 B2EE097A 		vmov.f32	s14, #1.25e+1
 1305 005a F4EEC77A 		vcmpe.f32	s15, s14
 1306 005e F1EE10FA 		vmrs	APSR_nzcv, FPSCR
 1307 0062 01DD     		ble	.L38
 1308              		.loc 1 50 32 discriminator 1 view .LVU360
 1309              		.loc 1 50 45 is_stmt 0 discriminator 1 view .LVU361
 1310 0064 84ED007A 		vstr.32	s14, [r4]
 1311              	.L38:
  51:src/unit/robot/robot.cpp ****       pre_voltage = info.voltage;
 1312              		.loc 1 51 7 is_stmt 1 view .LVU362
 1313              		.loc 1 51 26 is_stmt 0 view .LVU363
 1314 0068 2268     		ldr	r2, [r4]	@ float
 1315              		.loc 1 51 19 view .LVU364
 1316 006a 244B     		ldr	r3, .L42+28
 1317 006c 1A60     		str	r2, [r3]	@ float
  52:src/unit/robot/robot.cpp **** 
  53:src/unit/robot/robot.cpp ****       catch_front.Compute(adc_get_val[1]);
 1318              		.loc 1 53 7 is_stmt 1 view .LVU365
 1319              		.loc 1 53 26 is_stmt 0 view .LVU366
 1320 006e 04F58B56 		add	r6, r4, #4448
ARM GAS  /var/folders/5c/srt4fy4j1pd641bjfx75k5000000gn/T//ccvAokLV.s 			page 31


 1321 0072 1036     		adds	r6, r6, #16
 1322              		.loc 1 53 40 view .LVU367
 1323 0074 204F     		ldr	r7, .L42+24
 1324              		.loc 1 53 26 view .LVU368
 1325 0076 7888     		ldrh	r0, [r7, #2]
 1326 0078 FFF7FEFF 		bl	__aeabi_ui2d
 1327              	.LVL111:
 1328 007c 41EC100B 		vmov	d0, r0, r1
 1329 0080 3046     		mov	r0, r6
 1330 0082 FFF7FEFF 		bl	_ZN9MovingAve7ComputeEd
 1331              	.LVL112:
  54:src/unit/robot/robot.cpp ****       catch_back.Compute(adc_get_val[2]);
 1332              		.loc 1 54 7 is_stmt 1 view .LVU369
 1333              		.loc 1 54 25 is_stmt 0 view .LVU370
 1334 0086 04F5A555 		add	r5, r4, #5280
 1335 008a 0835     		adds	r5, r5, #8
 1336 008c B888     		ldrh	r0, [r7, #4]
 1337 008e FFF7FEFF 		bl	__aeabi_ui2d
 1338              	.LVL113:
 1339 0092 41EC100B 		vmov	d0, r0, r1
 1340 0096 2846     		mov	r0, r5
 1341 0098 FFF7FEFF 		bl	_ZN9MovingAve7ComputeEd
 1342              	.LVL114:
  55:src/unit/robot/robot.cpp ****       info.Catch.front_val = catch_front.Get();
 1343              		.loc 1 55 7 is_stmt 1 view .LVU371
 1344              		.loc 1 55 45 is_stmt 0 view .LVU372
 1345 009c 3046     		mov	r0, r6
 1346 009e FFF7FEFF 		bl	_ZN9MovingAve3GetEv
 1347              	.LVL115:
 1348 00a2 51EC100B 		vmov	r0, r1, d0
 1349              		.loc 1 55 28 view .LVU373
 1350 00a6 FFF7FEFF 		bl	__aeabi_d2uiz
 1351              	.LVL116:
 1352 00aa A085     		strh	r0, [r4, #44]	@ movhi
  56:src/unit/robot/robot.cpp ****       info.Catch.back_val = catch_back.Get();
 1353              		.loc 1 56 7 is_stmt 1 view .LVU374
 1354              		.loc 1 56 43 is_stmt 0 view .LVU375
 1355 00ac 2846     		mov	r0, r5
 1356 00ae FFF7FEFF 		bl	_ZN9MovingAve3GetEv
 1357              	.LVL117:
 1358 00b2 51EC100B 		vmov	r0, r1, d0
 1359              		.loc 1 56 27 view .LVU376
 1360 00b6 FFF7FEFF 		bl	__aeabi_d2uiz
 1361              	.LVL118:
 1362 00ba 80B2     		uxth	r0, r0
 1363 00bc 2086     		strh	r0, [r4, #48]	@ movhi
  57:src/unit/robot/robot.cpp **** 
  58:src/unit/robot/robot.cpp ****       info.Catch.is_front = info.Catch.front_val < CATCH_FRONT_TH ? 1 : 0;
 1364              		.loc 1 58 7 is_stmt 1 view .LVU377
 1365              		.loc 1 58 40 is_stmt 0 view .LVU378
 1366 00be A38D     		ldrh	r3, [r4, #44]
 1367              		.loc 1 58 67 view .LVU379
 1368 00c0 40F2F312 		movw	r2, #499
 1369 00c4 9342     		cmp	r3, r2
 1370 00c6 8CBF     		ite	hi
 1371 00c8 0023     		movhi	r3, #0
 1372 00ca 0123     		movls	r3, #1
ARM GAS  /var/folders/5c/srt4fy4j1pd641bjfx75k5000000gn/T//ccvAokLV.s 			page 32


 1373              		.loc 1 58 27 view .LVU380
 1374 00cc 84F82E30 		strb	r3, [r4, #46]
  59:src/unit/robot/robot.cpp ****       info.Catch.is_back = info.Catch.back_val < CATCH_BACK_TH ? 1 : 0;
 1375              		.loc 1 59 7 is_stmt 1 view .LVU381
 1376              		.loc 1 59 64 is_stmt 0 view .LVU382
 1377 00d0 9042     		cmp	r0, r2
 1378 00d2 8CBF     		ite	hi
 1379 00d4 0020     		movhi	r0, #0
 1380 00d6 0120     		movls	r0, #1
 1381              		.loc 1 59 26 view .LVU383
 1382 00d8 84F83200 		strb	r0, [r4, #50]
  60:src/unit/robot/robot.cpp **** }
 1383              		.loc 1 60 1 view .LVU384
 1384 00dc F8BD     		pop	{r3, r4, r5, r6, r7, pc}
 1385              	.LVL119:
 1386              	.L43:
 1387              		.loc 1 60 1 view .LVU385
 1388 00de 00BF     		.align	3
 1389              	.L42:
 1390 00e0 9A999999 		.word	-1717986918
 1391 00e4 99998A3F 		.word	1066047897
 1392 00e8 00AAF1D2 		.word	-755914240
 1393 00ec 4D62503F 		.word	1062232653
 1394 00f0 2B8716D9 		.word	-652835029
 1395 00f4 CEF7EF3F 		.word	1072691150
 1396 00f8 00000000 		.word	adc_get_val
 1397 00fc 00000000 		.word	_ZZN5Robot10GetSensorsEvE11pre_voltage
 1398              		.cfi_endproc
 1399              	.LFE288:
 1400              		.fnend
 1402              		.global	__aeabi_dsub
 1403              		.global	__aeabi_d2iz
 1404              		.section	.text._ZN5Robot7ImuUartEv,"ax",%progbits
 1405              		.align	1
 1406              		.global	_ZN5Robot7ImuUartEv
 1407              		.syntax unified
 1408              		.thumb
 1409              		.thumb_func
 1411              	_ZN5Robot7ImuUartEv:
 1412              		.fnstart
 1413              	.LVL120:
 1414              	.LFB289:
  61:src/unit/robot/robot.cpp **** 
  62:src/unit/robot/robot.cpp **** void Robot::ImuUart() {
 1415              		.loc 1 62 23 is_stmt 1 view -0
 1416              		.cfi_startproc
 1417              		@ args = 0, pretend = 0, frame = 0
 1418              		@ frame_needed = 0, uses_anonymous_args = 0
 1419              		.loc 1 62 23 is_stmt 0 view .LVU387
 1420 0000 F8B5     		push	{r3, r4, r5, r6, r7, lr}
 1421              		.save {r3, r4, r5, r6, r7, lr}
 1422              	.LCFI7:
 1423              		.cfi_def_cfa_offset 24
 1424              		.cfi_offset 3, -24
 1425              		.cfi_offset 4, -20
 1426              		.cfi_offset 5, -16
 1427              		.cfi_offset 6, -12
ARM GAS  /var/folders/5c/srt4fy4j1pd641bjfx75k5000000gn/T//ccvAokLV.s 			page 33


 1428              		.cfi_offset 7, -8
 1429              		.cfi_offset 14, -4
 1430 0002 0546     		mov	r5, r0
  63:src/unit/robot/robot.cpp ****       while (serial1.available()) {
 1431              		.loc 1 63 7 is_stmt 1 view .LVU388
 1432 0004 0BE0     		b	.L45
 1433              	.LVL121:
 1434              	.L56:
 1435              	.LBB233:
  64:src/unit/robot/robot.cpp ****             static const uint8_t HEADER = 0xFF;  // ヘッダ
  65:src/unit/robot/robot.cpp ****             static const uint8_t FOOTER = 0xAA;  // ヘッダ
  66:src/unit/robot/robot.cpp ****             static const uint8_t dataSize = 6;   // データのサイズ
  67:src/unit/robot/robot.cpp ****             static uint8_t index = 0;            // 受信したデータのインデックスカ
  68:src/unit/robot/robot.cpp ****             static uint8_t recv_data[dataSize];  // 受信したデータ
  69:src/unit/robot/robot.cpp ****             static uint8_t recv_byte;
  70:src/unit/robot/robot.cpp **** 
  71:src/unit/robot/robot.cpp ****             recv_byte = serial1.read();
  72:src/unit/robot/robot.cpp ****             if (index == 0) {
  73:src/unit/robot/robot.cpp ****                   if (recv_byte == HEADER) {
  74:src/unit/robot/robot.cpp ****                         index++;
 1436              		.loc 1 74 25 view .LVU389
 1437              		.loc 1 74 30 is_stmt 0 view .LVU390
 1438 0006 0133     		adds	r3, r3, #1
 1439 0008 3D4A     		ldr	r2, .L58+8
 1440 000a 1370     		strb	r3, [r2]
 1441 000c 07E0     		b	.L45
 1442              	.L46:
  75:src/unit/robot/robot.cpp ****                   } else {
  76:src/unit/robot/robot.cpp ****                         index = 0;
  77:src/unit/robot/robot.cpp ****                   }
  78:src/unit/robot/robot.cpp ****             } else if (index == (dataSize + 1)) {
 1443              		.loc 1 78 20 is_stmt 1 view .LVU391
 1444 000e 072B     		cmp	r3, #7
 1445 0010 1CD0     		beq	.L54
  79:src/unit/robot/robot.cpp ****                   if (recv_byte == FOOTER) {
  80:src/unit/robot/robot.cpp ****                         if (info.Imu.is_initialized == 0) info.Imu.is_initialized = 1;
  81:src/unit/robot/robot.cpp ****                         info.Imu.yaw = MyMath::NormalizeDeg180(((((uint16_t)recv_data[0] << 8) & 0x
  82:src/unit/robot/robot.cpp ****                         info.Imu.pitch = ((((uint16_t)recv_data[2] << 8) & 0xFF00) | ((int16_t)recv
  83:src/unit/robot/robot.cpp ****                         info.Imu.roll = ((((uint16_t)recv_data[4] << 8) & 0xFF00) | ((int16_t)recv_
  84:src/unit/robot/robot.cpp ****                   }
  85:src/unit/robot/robot.cpp ****                   index = 0;
  86:src/unit/robot/robot.cpp ****             } else {
  87:src/unit/robot/robot.cpp ****                   recv_data[index - 1] = recv_byte;
 1446              		.loc 1 87 19 view .LVU392
 1447              		.loc 1 87 35 is_stmt 0 view .LVU393
 1448 0012 5A1E     		subs	r2, r3, #1
 1449              		.loc 1 87 40 view .LVU394
 1450 0014 3B49     		ldr	r1, .L58+12
 1451 0016 8854     		strb	r0, [r1, r2]
  88:src/unit/robot/robot.cpp ****                   index++;
 1452              		.loc 1 88 19 is_stmt 1 view .LVU395
 1453              		.loc 1 88 24 is_stmt 0 view .LVU396
 1454 0018 0133     		adds	r3, r3, #1
 1455 001a 394A     		ldr	r2, .L58+8
 1456 001c 1370     		strb	r3, [r2]
 1457              	.L45:
 1458              		.loc 1 88 24 view .LVU397
ARM GAS  /var/folders/5c/srt4fy4j1pd641bjfx75k5000000gn/T//ccvAokLV.s 			page 34


 1459              	.LBE233:
  63:src/unit/robot/robot.cpp ****             static const uint8_t HEADER = 0xFF;  // ヘッダ
 1460              		.loc 1 63 31 is_stmt 1 view .LVU398
 1461 001e 05F58854 		add	r4, r5, #4352
 1462 0022 0C34     		adds	r4, r4, #12
 1463 0024 2046     		mov	r0, r4
 1464 0026 FFF7FEFF 		bl	_ZN14BufferedSerial9availableEv
 1465              	.LVL122:
 1466 002a 0028     		cmp	r0, #0
 1467 002c 60D0     		beq	.L55
 1468              	.LBB234:
  64:src/unit/robot/robot.cpp ****             static const uint8_t FOOTER = 0xAA;  // ヘッダ
 1469              		.loc 1 64 13 view .LVU399
  65:src/unit/robot/robot.cpp ****             static const uint8_t dataSize = 6;   // データのサイズ
 1470              		.loc 1 65 13 view .LVU400
  66:src/unit/robot/robot.cpp ****             static uint8_t index = 0;            // 受信したデータのインデックスカ
 1471              		.loc 1 66 13 view .LVU401
  67:src/unit/robot/robot.cpp ****             static uint8_t recv_data[dataSize];  // 受信したデータ
 1472              		.loc 1 67 13 view .LVU402
  68:src/unit/robot/robot.cpp ****             static uint8_t recv_byte;
 1473              		.loc 1 68 13 view .LVU403
  69:src/unit/robot/robot.cpp **** 
 1474              		.loc 1 69 13 view .LVU404
  71:src/unit/robot/robot.cpp ****             if (index == 0) {
 1475              		.loc 1 71 13 view .LVU405
  71:src/unit/robot/robot.cpp ****             if (index == 0) {
 1476              		.loc 1 71 37 is_stmt 0 view .LVU406
 1477 002e 2046     		mov	r0, r4
 1478 0030 FFF7FEFF 		bl	_ZN14BufferedSerial4readEv
 1479              	.LVL123:
  71:src/unit/robot/robot.cpp ****             if (index == 0) {
 1480              		.loc 1 71 23 view .LVU407
 1481 0034 344B     		ldr	r3, .L58+16
 1482 0036 1870     		strb	r0, [r3]
  72:src/unit/robot/robot.cpp ****                   if (recv_byte == HEADER) {
 1483              		.loc 1 72 13 is_stmt 1 view .LVU408
  72:src/unit/robot/robot.cpp ****                   if (recv_byte == HEADER) {
 1484              		.loc 1 72 23 is_stmt 0 view .LVU409
 1485 0038 314B     		ldr	r3, .L58+8
 1486 003a 1B78     		ldrb	r3, [r3]	@ zero_extendqisi2
  72:src/unit/robot/robot.cpp ****                   if (recv_byte == HEADER) {
 1487              		.loc 1 72 13 view .LVU410
 1488 003c 002B     		cmp	r3, #0
 1489 003e E6D1     		bne	.L46
  73:src/unit/robot/robot.cpp ****                         index++;
 1490              		.loc 1 73 19 is_stmt 1 view .LVU411
 1491 0040 FF28     		cmp	r0, #255
 1492 0042 E0D0     		beq	.L56
  76:src/unit/robot/robot.cpp ****                   }
 1493              		.loc 1 76 25 view .LVU412
  76:src/unit/robot/robot.cpp ****                   }
 1494              		.loc 1 76 31 is_stmt 0 view .LVU413
 1495 0044 2E4B     		ldr	r3, .L58+8
 1496 0046 0022     		movs	r2, #0
 1497 0048 1A70     		strb	r2, [r3]
 1498 004a E8E7     		b	.L45
 1499              	.L54:
ARM GAS  /var/folders/5c/srt4fy4j1pd641bjfx75k5000000gn/T//ccvAokLV.s 			page 35


  79:src/unit/robot/robot.cpp ****                         if (info.Imu.is_initialized == 0) info.Imu.is_initialized = 1;
 1500              		.loc 1 79 19 is_stmt 1 view .LVU414
 1501 004c AA28     		cmp	r0, #170
 1502 004e 03D0     		beq	.L57
 1503              	.L50:
  85:src/unit/robot/robot.cpp ****             } else {
 1504              		.loc 1 85 19 view .LVU415
  85:src/unit/robot/robot.cpp ****             } else {
 1505              		.loc 1 85 25 is_stmt 0 view .LVU416
 1506 0050 2B4B     		ldr	r3, .L58+8
 1507 0052 0022     		movs	r2, #0
 1508 0054 1A70     		strb	r2, [r3]
 1509 0056 E2E7     		b	.L45
 1510              	.L57:
  80:src/unit/robot/robot.cpp ****                         info.Imu.yaw = MyMath::NormalizeDeg180(((((uint16_t)recv_data[0] << 8) & 0x
 1511              		.loc 1 80 25 is_stmt 1 view .LVU417
  80:src/unit/robot/robot.cpp ****                         info.Imu.yaw = MyMath::NormalizeDeg180(((((uint16_t)recv_data[0] << 8) & 0x
 1512              		.loc 1 80 38 is_stmt 0 view .LVU418
 1513 0058 95F83430 		ldrb	r3, [r5, #52]	@ zero_extendqisi2
  80:src/unit/robot/robot.cpp ****                         info.Imu.yaw = MyMath::NormalizeDeg180(((((uint16_t)recv_data[0] << 8) & 0x
 1514              		.loc 1 80 25 view .LVU419
 1515 005c 13B9     		cbnz	r3, .L51
  80:src/unit/robot/robot.cpp ****                         info.Imu.yaw = MyMath::NormalizeDeg180(((((uint16_t)recv_data[0] << 8) & 0x
 1516              		.loc 1 80 59 is_stmt 1 discriminator 1 view .LVU420
  80:src/unit/robot/robot.cpp ****                         info.Imu.yaw = MyMath::NormalizeDeg180(((((uint16_t)recv_data[0] << 8) & 0x
 1517              		.loc 1 80 83 is_stmt 0 discriminator 1 view .LVU421
 1518 005e 0123     		movs	r3, #1
 1519 0060 85F83430 		strb	r3, [r5, #52]
 1520              	.L51:
  81:src/unit/robot/robot.cpp ****                         info.Imu.pitch = ((((uint16_t)recv_data[2] << 8) & 0xFF00) | ((int16_t)recv
 1521              		.loc 1 81 25 is_stmt 1 view .LVU422
  81:src/unit/robot/robot.cpp ****                         info.Imu.pitch = ((((uint16_t)recv_data[2] << 8) & 0xFF00) | ((int16_t)recv
 1522              		.loc 1 81 88 is_stmt 0 view .LVU423
 1523 0064 274C     		ldr	r4, .L58+12
 1524 0066 2078     		ldrb	r0, [r4]	@ zero_extendqisi2
  81:src/unit/robot/robot.cpp ****                         info.Imu.pitch = ((((uint16_t)recv_data[2] << 8) & 0xFF00) | ((int16_t)recv
 1525              		.loc 1 81 129 view .LVU424
 1526 0068 6378     		ldrb	r3, [r4, #1]	@ zero_extendqisi2
  81:src/unit/robot/robot.cpp ****                         info.Imu.pitch = ((((uint16_t)recv_data[2] << 8) & 0xFF00) | ((int16_t)recv
 1527              		.loc 1 81 142 view .LVU425
 1528 006a 43EA0020 		orr	r0, r3, r0, lsl #8
 1529 006e FFF7FEFF 		bl	__aeabi_i2d
 1530              	.LVL124:
 1531 0072 21A3     		adr	r3, .L58
 1532 0074 D3E90023 		ldrd	r2, [r3]
 1533 0078 FFF7FEFF 		bl	__aeabi_dmul
 1534              	.LVL125:
  81:src/unit/robot/robot.cpp ****                         info.Imu.pitch = ((((uint16_t)recv_data[2] << 8) & 0xFF00) | ((int16_t)recv
 1535              		.loc 1 81 148 view .LVU426
 1536 007c 0022     		movs	r2, #0
 1537 007e 234B     		ldr	r3, .L58+20
 1538 0080 FFF7FEFF 		bl	__aeabi_dsub
 1539              	.LVL126:
 1540 0084 0646     		mov	r6, r0
 1541 0086 0F46     		mov	r7, r1
  81:src/unit/robot/robot.cpp ****                         info.Imu.pitch = ((((uint16_t)recv_data[2] << 8) & 0xFF00) | ((int16_t)recv
 1542              		.loc 1 81 154 view .LVU427
ARM GAS  /var/folders/5c/srt4fy4j1pd641bjfx75k5000000gn/T//ccvAokLV.s 			page 36


 1543 0088 B5F93C00 		ldrsh	r0, [r5, #60]
 1544 008c FFF7FEFF 		bl	__aeabi_i2d
 1545              	.LVL127:
 1546 0090 0246     		mov	r2, r0
 1547 0092 0B46     		mov	r3, r1
 1548 0094 3046     		mov	r0, r6
 1549 0096 3946     		mov	r1, r7
 1550 0098 FFF7FEFF 		bl	__aeabi_dsub
 1551              	.LVL128:
  81:src/unit/robot/robot.cpp ****                         info.Imu.pitch = ((((uint16_t)recv_data[2] << 8) & 0xFF00) | ((int16_t)recv
 1552              		.loc 1 81 63 view .LVU428
 1553 009c FFF7FEFF 		bl	__aeabi_d2iz
 1554              	.LVL129:
 1555 00a0 FFF7FEFF 		bl	NormalizeDeg180
 1556              	.LVL130:
  81:src/unit/robot/robot.cpp ****                         info.Imu.pitch = ((((uint16_t)recv_data[2] << 8) & 0xFF00) | ((int16_t)recv
 1557              		.loc 1 81 38 view .LVU429
 1558 00a4 E886     		strh	r0, [r5, #54]	@ movhi
  82:src/unit/robot/robot.cpp ****                         info.Imu.roll = ((((uint16_t)recv_data[4] << 8) & 0xFF00) | ((int16_t)recv_
 1559              		.loc 1 82 25 is_stmt 1 view .LVU430
  82:src/unit/robot/robot.cpp ****                         info.Imu.roll = ((((uint16_t)recv_data[4] << 8) & 0xFF00) | ((int16_t)recv_
 1560              		.loc 1 82 66 is_stmt 0 view .LVU431
 1561 00a6 A078     		ldrb	r0, [r4, #2]	@ zero_extendqisi2
  82:src/unit/robot/robot.cpp ****                         info.Imu.roll = ((((uint16_t)recv_data[4] << 8) & 0xFF00) | ((int16_t)recv_
 1562              		.loc 1 82 107 view .LVU432
 1563 00a8 E378     		ldrb	r3, [r4, #3]	@ zero_extendqisi2
  82:src/unit/robot/robot.cpp ****                         info.Imu.roll = ((((uint16_t)recv_data[4] << 8) & 0xFF00) | ((int16_t)recv_
 1564              		.loc 1 82 120 view .LVU433
 1565 00aa 43EA0020 		orr	r0, r3, r0, lsl #8
 1566 00ae FFF7FEFF 		bl	__aeabi_i2d
 1567              	.LVL131:
 1568 00b2 11A3     		adr	r3, .L58
 1569 00b4 D3E90023 		ldrd	r2, [r3]
 1570 00b8 FFF7FEFF 		bl	__aeabi_dmul
 1571              	.LVL132:
  82:src/unit/robot/robot.cpp ****                         info.Imu.roll = ((((uint16_t)recv_data[4] << 8) & 0xFF00) | ((int16_t)recv_
 1572              		.loc 1 82 126 view .LVU434
 1573 00bc 0022     		movs	r2, #0
 1574 00be 134B     		ldr	r3, .L58+20
 1575 00c0 FFF7FEFF 		bl	__aeabi_dsub
 1576              	.LVL133:
  82:src/unit/robot/robot.cpp ****                         info.Imu.roll = ((((uint16_t)recv_data[4] << 8) & 0xFF00) | ((int16_t)recv_
 1577              		.loc 1 82 40 view .LVU435
 1578 00c4 FFF7FEFF 		bl	__aeabi_d2iz
 1579              	.LVL134:
 1580 00c8 2887     		strh	r0, [r5, #56]	@ movhi
  83:src/unit/robot/robot.cpp ****                   }
 1581              		.loc 1 83 25 is_stmt 1 view .LVU436
  83:src/unit/robot/robot.cpp ****                   }
 1582              		.loc 1 83 65 is_stmt 0 view .LVU437
 1583 00ca 2079     		ldrb	r0, [r4, #4]	@ zero_extendqisi2
  83:src/unit/robot/robot.cpp ****                   }
 1584              		.loc 1 83 106 view .LVU438
 1585 00cc 6379     		ldrb	r3, [r4, #5]	@ zero_extendqisi2
  83:src/unit/robot/robot.cpp ****                   }
 1586              		.loc 1 83 119 view .LVU439
 1587 00ce 43EA0020 		orr	r0, r3, r0, lsl #8
ARM GAS  /var/folders/5c/srt4fy4j1pd641bjfx75k5000000gn/T//ccvAokLV.s 			page 37


 1588 00d2 FFF7FEFF 		bl	__aeabi_i2d
 1589              	.LVL135:
 1590 00d6 08A3     		adr	r3, .L58
 1591 00d8 D3E90023 		ldrd	r2, [r3]
 1592 00dc FFF7FEFF 		bl	__aeabi_dmul
 1593              	.LVL136:
  83:src/unit/robot/robot.cpp ****                   }
 1594              		.loc 1 83 125 view .LVU440
 1595 00e0 0022     		movs	r2, #0
 1596 00e2 0A4B     		ldr	r3, .L58+20
 1597 00e4 FFF7FEFF 		bl	__aeabi_dsub
 1598              	.LVL137:
  83:src/unit/robot/robot.cpp ****                   }
 1599              		.loc 1 83 39 view .LVU441
 1600 00e8 FFF7FEFF 		bl	__aeabi_d2iz
 1601              	.LVL138:
 1602 00ec 6887     		strh	r0, [r5, #58]	@ movhi
 1603 00ee AFE7     		b	.L50
 1604              	.L55:
  83:src/unit/robot/robot.cpp ****                   }
 1605              		.loc 1 83 39 view .LVU442
 1606              	.LBE234:
  89:src/unit/robot/robot.cpp ****             }
  90:src/unit/robot/robot.cpp ****       }
  91:src/unit/robot/robot.cpp **** }
 1607              		.loc 1 91 1 view .LVU443
 1608 00f0 F8BD     		pop	{r3, r4, r5, r6, r7, pc}
 1609              	.LVL139:
 1610              	.L59:
 1611              		.loc 1 91 1 view .LVU444
 1612 00f2 00BFAFF3 		.align	3
 1612      0080
 1613              	.L58:
 1614 00f8 9A999999 		.word	-1717986918
 1615 00fc 9999B93F 		.word	1069128089
 1616 0100 00000000 		.word	_ZZN5Robot7ImuUartEvE5index
 1617 0104 00000000 		.word	_ZZN5Robot7ImuUartEvE9recv_data
 1618 0108 00000000 		.word	_ZZN5Robot7ImuUartEvE9recv_byte
 1619 010c 00806640 		.word	1080459264
 1620              		.cfi_endproc
 1621              	.LFE289:
 1622              		.fnend
 1624              		.global	__aeabi_ddiv
 1625              		.section	.text._ZN5Robot8LineUartEv,"ax",%progbits
 1626              		.align	1
 1627              		.global	_ZN5Robot8LineUartEv
 1628              		.syntax unified
 1629              		.thumb
 1630              		.thumb_func
 1632              	_ZN5Robot8LineUartEv:
 1633              		.fnstart
 1634              	.LVL140:
 1635              	.LFB290:
  92:src/unit/robot/robot.cpp **** 
  93:src/unit/robot/robot.cpp **** void Robot::LineUart() {
 1636              		.loc 1 93 24 is_stmt 1 view -0
 1637              		.cfi_startproc
ARM GAS  /var/folders/5c/srt4fy4j1pd641bjfx75k5000000gn/T//ccvAokLV.s 			page 38


 1638              		@ args = 0, pretend = 0, frame = 8
 1639              		@ frame_needed = 0, uses_anonymous_args = 0
 1640              		.loc 1 93 24 is_stmt 0 view .LVU446
 1641 0000 30B5     		push	{r4, r5, lr}
 1642              		.save {r4, r5, lr}
 1643              	.LCFI8:
 1644              		.cfi_def_cfa_offset 12
 1645              		.cfi_offset 4, -12
 1646              		.cfi_offset 5, -8
 1647              		.cfi_offset 14, -4
 1648              		.pad #12
 1649 0002 83B0     		sub	sp, sp, #12
 1650              	.LCFI9:
 1651              		.cfi_def_cfa_offset 24
 1652 0004 0546     		mov	r5, r0
  94:src/unit/robot/robot.cpp ****       while (serial2.available()) {
 1653              		.loc 1 94 7 is_stmt 1 view .LVU447
 1654 0006 0BE0     		b	.L61
 1655              	.LVL141:
 1656              	.L74:
 1657              	.LBB235:
 1658              	.LBB236:
  95:src/unit/robot/robot.cpp ****             static const uint8_t HEADER = 0xFF;   // ヘッダ
  96:src/unit/robot/robot.cpp ****             static const uint8_t FOOTER = 0xAA;   // フッタ
  97:src/unit/robot/robot.cpp ****             static const uint8_t data_size = 7;   // データのサイズ
  98:src/unit/robot/robot.cpp ****             static uint8_t index = 0;             // 受信したデータのインデックスカ
  99:src/unit/robot/robot.cpp ****             static uint8_t recv_data[data_size];  // 受信したデータ
 100:src/unit/robot/robot.cpp ****             static uint8_t recv_byte;
 101:src/unit/robot/robot.cpp **** 
 102:src/unit/robot/robot.cpp ****             recv_byte = serial2.read();
 103:src/unit/robot/robot.cpp ****             if (index == 0) {
 104:src/unit/robot/robot.cpp ****                   if (recv_byte == HEADER) {
 105:src/unit/robot/robot.cpp ****                         index++;
 1659              		.loc 1 105 25 view .LVU448
 1660              		.loc 1 105 30 is_stmt 0 view .LVU449
 1661 0008 0133     		adds	r3, r3, #1
 1662 000a 594A     		ldr	r2, .L77+8
 1663 000c 1370     		strb	r3, [r2]
 1664 000e 07E0     		b	.L61
 1665              	.L62:
 1666              	.LBE236:
 1667              	.LBE235:
 106:src/unit/robot/robot.cpp ****                   } else {
 107:src/unit/robot/robot.cpp ****                         index = 0;
 108:src/unit/robot/robot.cpp ****                   }
 109:src/unit/robot/robot.cpp ****             } else if (index == (data_size + 1)) {
 1668              		.loc 1 109 20 is_stmt 1 view .LVU450
 1669              	.LBB246:
 1670              	.LBB244:
 1671              	.LBB237:
 1672 0010 082B     		cmp	r3, #8
 1673 0012 1CD0     		beq	.L72
 110:src/unit/robot/robot.cpp ****                   if (recv_byte == FOOTER) {
 111:src/unit/robot/robot.cpp ****                         if (info.Line.is_initialized == 0) info.Line.is_initialized = 1;
 112:src/unit/robot/robot.cpp **** 
 113:src/unit/robot/robot.cpp ****                         bool is_half_out;
 114:src/unit/robot/robot.cpp ****                         info.motor_rad_s[0] = recv_data[0] / TWO_PI;
ARM GAS  /var/folders/5c/srt4fy4j1pd641bjfx75k5000000gn/T//ccvAokLV.s 			page 39


 115:src/unit/robot/robot.cpp ****                         info.motor_rad_s[1] = recv_data[1] / TWO_PI;
 116:src/unit/robot/robot.cpp ****                         info.motor_rad_s[2] = recv_data[2] / TWO_PI;
 117:src/unit/robot/robot.cpp ****                         info.motor_rad_s[3] = recv_data[3] / TWO_PI;
 118:src/unit/robot/robot.cpp ****                         info.Line.interval = recv_data[4] >> 4;
 119:src/unit/robot/robot.cpp ****                         info.Line.is_on_line = (recv_data[4] >> 3) & 1;
 120:src/unit/robot/robot.cpp ****                         is_half_out = (recv_data[4] >> 2) & 1;
 121:src/unit/robot/robot.cpp ****                         info.Line.is_leftside = (recv_data[4] >> 1) & 1;
 122:src/unit/robot/robot.cpp ****                         info.Line.is_rightside = recv_data[4] & 1;
 123:src/unit/robot/robot.cpp ****                         info.Ui.success_reset_line = recv_data[5] & 1;
 124:src/unit/robot/robot.cpp ****                         info.Line.dir = recv_data[6] * 2 - 180;
 125:src/unit/robot/robot.cpp **** 
 126:src/unit/robot/robot.cpp ****                         if (is_half_out == 1) {
 127:src/unit/robot/robot.cpp ****                               info.Line.inside_dir = info.Line.dir;
 128:src/unit/robot/robot.cpp ****                               info.Line.depth = 24 - info.Line.interval;
 129:src/unit/robot/robot.cpp ****                         } else {
 130:src/unit/robot/robot.cpp ****                               info.Line.inside_dir = MyMath::NormalizeDeg180(info.Line.dir + 180);
 131:src/unit/robot/robot.cpp ****                               info.Line.depth = info.Line.interval;
 132:src/unit/robot/robot.cpp ****                         }
 133:src/unit/robot/robot.cpp ****                   }
 134:src/unit/robot/robot.cpp ****                   index = 0;
 135:src/unit/robot/robot.cpp ****             } else {
 136:src/unit/robot/robot.cpp ****                   recv_data[index - 1] = recv_byte;
 1674              		.loc 1 136 19 view .LVU451
 1675              		.loc 1 136 35 is_stmt 0 view .LVU452
 1676 0014 5A1E     		subs	r2, r3, #1
 1677              		.loc 1 136 40 view .LVU453
 1678 0016 5749     		ldr	r1, .L77+12
 1679 0018 8854     		strb	r0, [r1, r2]
 137:src/unit/robot/robot.cpp ****                   index++;
 1680              		.loc 1 137 19 is_stmt 1 view .LVU454
 1681              		.loc 1 137 24 is_stmt 0 view .LVU455
 1682 001a 0133     		adds	r3, r3, #1
 1683 001c 544A     		ldr	r2, .L77+8
 1684 001e 1370     		strb	r3, [r2]
 1685              	.L61:
 1686              		.loc 1 137 24 view .LVU456
 1687              	.LBE237:
 1688              	.LBE244:
 1689              	.LBE246:
  94:src/unit/robot/robot.cpp ****             static const uint8_t HEADER = 0xFF;   // ヘッダ
 1690              		.loc 1 94 31 is_stmt 1 view .LVU457
 1691 0020 05F58854 		add	r4, r5, #4352
 1692 0024 1C34     		adds	r4, r4, #28
 1693 0026 2046     		mov	r0, r4
 1694 0028 FFF7FEFF 		bl	_ZN14BufferedSerial9availableEv
 1695              	.LVL142:
 1696 002c 0028     		cmp	r0, #0
 1697 002e 72D0     		beq	.L73
 1698              	.LBB247:
  95:src/unit/robot/robot.cpp ****             static const uint8_t FOOTER = 0xAA;   // フッタ
 1699              		.loc 1 95 13 view .LVU458
  96:src/unit/robot/robot.cpp ****             static const uint8_t data_size = 7;   // データのサイズ
 1700              		.loc 1 96 13 view .LVU459
  97:src/unit/robot/robot.cpp ****             static uint8_t index = 0;             // 受信したデータのインデックスカ
 1701              		.loc 1 97 13 view .LVU460
  98:src/unit/robot/robot.cpp ****             static uint8_t recv_data[data_size];  // 受信したデータ
 1702              		.loc 1 98 13 view .LVU461
ARM GAS  /var/folders/5c/srt4fy4j1pd641bjfx75k5000000gn/T//ccvAokLV.s 			page 40


  99:src/unit/robot/robot.cpp ****             static uint8_t recv_byte;
 1703              		.loc 1 99 13 view .LVU462
 100:src/unit/robot/robot.cpp **** 
 1704              		.loc 1 100 13 view .LVU463
 102:src/unit/robot/robot.cpp ****             if (index == 0) {
 1705              		.loc 1 102 13 view .LVU464
 102:src/unit/robot/robot.cpp ****             if (index == 0) {
 1706              		.loc 1 102 37 is_stmt 0 view .LVU465
 1707 0030 2046     		mov	r0, r4
 1708 0032 FFF7FEFF 		bl	_ZN14BufferedSerial4readEv
 1709              	.LVL143:
 102:src/unit/robot/robot.cpp ****             if (index == 0) {
 1710              		.loc 1 102 23 view .LVU466
 1711 0036 504B     		ldr	r3, .L77+16
 1712 0038 1870     		strb	r0, [r3]
 103:src/unit/robot/robot.cpp ****                   if (recv_byte == HEADER) {
 1713              		.loc 1 103 13 is_stmt 1 view .LVU467
 1714              	.LBB245:
 103:src/unit/robot/robot.cpp ****                   if (recv_byte == HEADER) {
 1715              		.loc 1 103 23 is_stmt 0 view .LVU468
 1716 003a 4D4B     		ldr	r3, .L77+8
 1717 003c 1B78     		ldrb	r3, [r3]	@ zero_extendqisi2
 103:src/unit/robot/robot.cpp ****                   if (recv_byte == HEADER) {
 1718              		.loc 1 103 13 view .LVU469
 1719 003e 002B     		cmp	r3, #0
 1720 0040 E6D1     		bne	.L62
 104:src/unit/robot/robot.cpp ****                         index++;
 1721              		.loc 1 104 19 is_stmt 1 view .LVU470
 1722 0042 FF28     		cmp	r0, #255
 1723 0044 E0D0     		beq	.L74
 107:src/unit/robot/robot.cpp ****                   }
 1724              		.loc 1 107 25 view .LVU471
 107:src/unit/robot/robot.cpp ****                   }
 1725              		.loc 1 107 31 is_stmt 0 view .LVU472
 1726 0046 4A4B     		ldr	r3, .L77+8
 1727 0048 0022     		movs	r2, #0
 1728 004a 1A70     		strb	r2, [r3]
 1729 004c E8E7     		b	.L61
 1730              	.L72:
 1731              	.LBB243:
 1732              	.LBB238:
 110:src/unit/robot/robot.cpp ****                         if (info.Line.is_initialized == 0) info.Line.is_initialized = 1;
 1733              		.loc 1 110 19 is_stmt 1 view .LVU473
 1734              	.LBB239:
 1735 004e AA28     		cmp	r0, #170
 1736 0050 03D0     		beq	.L75
 1737              	.L66:
 1738              	.LBE239:
 134:src/unit/robot/robot.cpp ****             } else {
 1739              		.loc 1 134 19 view .LVU474
 134:src/unit/robot/robot.cpp ****             } else {
 1740              		.loc 1 134 25 is_stmt 0 view .LVU475
 1741 0052 474B     		ldr	r3, .L77+8
 1742 0054 0022     		movs	r2, #0
 1743 0056 1A70     		strb	r2, [r3]
 1744              	.LBE238:
 1745 0058 E2E7     		b	.L61
ARM GAS  /var/folders/5c/srt4fy4j1pd641bjfx75k5000000gn/T//ccvAokLV.s 			page 41


 1746              	.L75:
 1747              	.LBB242:
 1748              	.LBB241:
 1749              	.LBB240:
 111:src/unit/robot/robot.cpp **** 
 1750              		.loc 1 111 25 is_stmt 1 view .LVU476
 111:src/unit/robot/robot.cpp **** 
 1751              		.loc 1 111 39 is_stmt 0 view .LVU477
 1752 005a 95F82030 		ldrb	r3, [r5, #32]	@ zero_extendqisi2
 111:src/unit/robot/robot.cpp **** 
 1753              		.loc 1 111 25 view .LVU478
 1754 005e 13B9     		cbnz	r3, .L67
 111:src/unit/robot/robot.cpp **** 
 1755              		.loc 1 111 60 is_stmt 1 discriminator 1 view .LVU479
 111:src/unit/robot/robot.cpp **** 
 1756              		.loc 1 111 85 is_stmt 0 discriminator 1 view .LVU480
 1757 0060 0123     		movs	r3, #1
 1758 0062 85F82030 		strb	r3, [r5, #32]
 1759              	.L67:
 113:src/unit/robot/robot.cpp ****                         info.motor_rad_s[0] = recv_data[0] / TWO_PI;
 1760              		.loc 1 113 25 is_stmt 1 view .LVU481
 114:src/unit/robot/robot.cpp ****                         info.motor_rad_s[1] = recv_data[1] / TWO_PI;
 1761              		.loc 1 114 25 view .LVU482
 114:src/unit/robot/robot.cpp ****                         info.motor_rad_s[1] = recv_data[1] / TWO_PI;
 1762              		.loc 1 114 58 is_stmt 0 view .LVU483
 1763 0066 434C     		ldr	r4, .L77+12
 114:src/unit/robot/robot.cpp ****                         info.motor_rad_s[1] = recv_data[1] / TWO_PI;
 1764              		.loc 1 114 60 view .LVU484
 1765 0068 2078     		ldrb	r0, [r4]	@ zero_extendqisi2
 1766 006a FFF7FEFF 		bl	__aeabi_i2d
 1767              	.LVL144:
 1768 006e 3EA3     		adr	r3, .L77
 1769 0070 D3E90023 		ldrd	r2, [r3]
 1770 0074 FFF7FEFF 		bl	__aeabi_ddiv
 1771              	.LVL145:
 1772 0078 FFF7FEFF 		bl	__aeabi_d2f
 1773              	.LVL146:
 114:src/unit/robot/robot.cpp ****                         info.motor_rad_s[1] = recv_data[1] / TWO_PI;
 1774              		.loc 1 114 45 view .LVU485
 1775 007c 6860     		str	r0, [r5, #4]	@ float
 115:src/unit/robot/robot.cpp ****                         info.motor_rad_s[2] = recv_data[2] / TWO_PI;
 1776              		.loc 1 115 25 is_stmt 1 view .LVU486
 115:src/unit/robot/robot.cpp ****                         info.motor_rad_s[2] = recv_data[2] / TWO_PI;
 1777              		.loc 1 115 60 is_stmt 0 view .LVU487
 1778 007e 6078     		ldrb	r0, [r4, #1]	@ zero_extendqisi2
 1779 0080 FFF7FEFF 		bl	__aeabi_i2d
 1780              	.LVL147:
 1781 0084 38A3     		adr	r3, .L77
 1782 0086 D3E90023 		ldrd	r2, [r3]
 1783 008a FFF7FEFF 		bl	__aeabi_ddiv
 1784              	.LVL148:
 1785 008e FFF7FEFF 		bl	__aeabi_d2f
 1786              	.LVL149:
 115:src/unit/robot/robot.cpp ****                         info.motor_rad_s[2] = recv_data[2] / TWO_PI;
 1787              		.loc 1 115 45 view .LVU488
 1788 0092 A860     		str	r0, [r5, #8]	@ float
 116:src/unit/robot/robot.cpp ****                         info.motor_rad_s[3] = recv_data[3] / TWO_PI;
ARM GAS  /var/folders/5c/srt4fy4j1pd641bjfx75k5000000gn/T//ccvAokLV.s 			page 42


 1789              		.loc 1 116 25 is_stmt 1 view .LVU489
 116:src/unit/robot/robot.cpp ****                         info.motor_rad_s[3] = recv_data[3] / TWO_PI;
 1790              		.loc 1 116 60 is_stmt 0 view .LVU490
 1791 0094 A078     		ldrb	r0, [r4, #2]	@ zero_extendqisi2
 1792 0096 FFF7FEFF 		bl	__aeabi_i2d
 1793              	.LVL150:
 1794 009a 33A3     		adr	r3, .L77
 1795 009c D3E90023 		ldrd	r2, [r3]
 1796 00a0 FFF7FEFF 		bl	__aeabi_ddiv
 1797              	.LVL151:
 1798 00a4 FFF7FEFF 		bl	__aeabi_d2f
 1799              	.LVL152:
 116:src/unit/robot/robot.cpp ****                         info.motor_rad_s[3] = recv_data[3] / TWO_PI;
 1800              		.loc 1 116 45 view .LVU491
 1801 00a8 E860     		str	r0, [r5, #12]	@ float
 117:src/unit/robot/robot.cpp ****                         info.Line.interval = recv_data[4] >> 4;
 1802              		.loc 1 117 25 is_stmt 1 view .LVU492
 117:src/unit/robot/robot.cpp ****                         info.Line.interval = recv_data[4] >> 4;
 1803              		.loc 1 117 60 is_stmt 0 view .LVU493
 1804 00aa E078     		ldrb	r0, [r4, #3]	@ zero_extendqisi2
 1805 00ac FFF7FEFF 		bl	__aeabi_i2d
 1806              	.LVL153:
 1807 00b0 2DA3     		adr	r3, .L77
 1808 00b2 D3E90023 		ldrd	r2, [r3]
 1809 00b6 FFF7FEFF 		bl	__aeabi_ddiv
 1810              	.LVL154:
 1811 00ba FFF7FEFF 		bl	__aeabi_d2f
 1812              	.LVL155:
 117:src/unit/robot/robot.cpp ****                         info.Line.interval = recv_data[4] >> 4;
 1813              		.loc 1 117 45 view .LVU494
 1814 00be 2861     		str	r0, [r5, #16]	@ float
 118:src/unit/robot/robot.cpp ****                         info.Line.is_on_line = (recv_data[4] >> 3) & 1;
 1815              		.loc 1 118 25 is_stmt 1 view .LVU495
 118:src/unit/robot/robot.cpp ****                         info.Line.is_on_line = (recv_data[4] >> 3) & 1;
 1816              		.loc 1 118 57 is_stmt 0 view .LVU496
 1817 00c0 2379     		ldrb	r3, [r4, #4]	@ zero_extendqisi2
 118:src/unit/robot/robot.cpp ****                         info.Line.is_on_line = (recv_data[4] >> 3) & 1;
 1818              		.loc 1 118 59 view .LVU497
 1819 00c2 1A09     		lsrs	r2, r3, #4
 118:src/unit/robot/robot.cpp ****                         info.Line.is_on_line = (recv_data[4] >> 3) & 1;
 1820              		.loc 1 118 44 view .LVU498
 1821 00c4 85F82120 		strb	r2, [r5, #33]
 119:src/unit/robot/robot.cpp ****                         is_half_out = (recv_data[4] >> 2) & 1;
 1822              		.loc 1 119 25 is_stmt 1 view .LVU499
 119:src/unit/robot/robot.cpp ****                         is_half_out = (recv_data[4] >> 2) & 1;
 1823              		.loc 1 119 68 is_stmt 0 view .LVU500
 1824 00c8 C3F3C001 		ubfx	r1, r3, #3, #1
 119:src/unit/robot/robot.cpp ****                         is_half_out = (recv_data[4] >> 2) & 1;
 1825              		.loc 1 119 46 view .LVU501
 1826 00cc 85F82310 		strb	r1, [r5, #35]
 120:src/unit/robot/robot.cpp ****                         info.Line.is_leftside = (recv_data[4] >> 1) & 1;
 1827              		.loc 1 120 25 is_stmt 1 view .LVU502
 1828              	.LVL156:
 121:src/unit/robot/robot.cpp ****                         info.Line.is_rightside = recv_data[4] & 1;
 1829              		.loc 1 121 25 view .LVU503
 121:src/unit/robot/robot.cpp ****                         info.Line.is_rightside = recv_data[4] & 1;
 1830              		.loc 1 121 69 is_stmt 0 view .LVU504
ARM GAS  /var/folders/5c/srt4fy4j1pd641bjfx75k5000000gn/T//ccvAokLV.s 			page 43


 1831 00d0 C3F34001 		ubfx	r1, r3, #1, #1
 121:src/unit/robot/robot.cpp ****                         info.Line.is_rightside = recv_data[4] & 1;
 1832              		.loc 1 121 47 view .LVU505
 1833 00d4 85F82410 		strb	r1, [r5, #36]
 122:src/unit/robot/robot.cpp ****                         info.Ui.success_reset_line = recv_data[5] & 1;
 1834              		.loc 1 122 25 is_stmt 1 view .LVU506
 122:src/unit/robot/robot.cpp ****                         info.Ui.success_reset_line = recv_data[5] & 1;
 1835              		.loc 1 122 63 is_stmt 0 view .LVU507
 1836 00d8 03F00101 		and	r1, r3, #1
 122:src/unit/robot/robot.cpp ****                         info.Ui.success_reset_line = recv_data[5] & 1;
 1837              		.loc 1 122 48 view .LVU508
 1838 00dc 85F82510 		strb	r1, [r5, #37]
 123:src/unit/robot/robot.cpp ****                         info.Line.dir = recv_data[6] * 2 - 180;
 1839              		.loc 1 123 25 is_stmt 1 view .LVU509
 123:src/unit/robot/robot.cpp ****                         info.Line.dir = recv_data[6] * 2 - 180;
 1840              		.loc 1 123 65 is_stmt 0 view .LVU510
 1841 00e0 6179     		ldrb	r1, [r4, #5]	@ zero_extendqisi2
 123:src/unit/robot/robot.cpp ****                         info.Line.dir = recv_data[6] * 2 - 180;
 1842              		.loc 1 123 67 view .LVU511
 1843 00e2 01F00101 		and	r1, r1, #1
 123:src/unit/robot/robot.cpp ****                         info.Line.dir = recv_data[6] * 2 - 180;
 1844              		.loc 1 123 52 view .LVU512
 1845 00e6 85F84010 		strb	r1, [r5, #64]
 124:src/unit/robot/robot.cpp **** 
 1846              		.loc 1 124 25 is_stmt 1 view .LVU513
 124:src/unit/robot/robot.cpp **** 
 1847              		.loc 1 124 52 is_stmt 0 view .LVU514
 1848 00ea A079     		ldrb	r0, [r4, #6]	@ zero_extendqisi2
 124:src/unit/robot/robot.cpp **** 
 1849              		.loc 1 124 58 view .LVU515
 1850 00ec 5A38     		subs	r0, r0, #90
 124:src/unit/robot/robot.cpp **** 
 1851              		.loc 1 124 39 view .LVU516
 1852 00ee 4000     		lsls	r0, r0, #1
 1853 00f0 E884     		strh	r0, [r5, #38]	@ movhi
 126:src/unit/robot/robot.cpp ****                               info.Line.inside_dir = info.Line.dir;
 1854              		.loc 1 126 25 is_stmt 1 view .LVU517
 1855 00f2 13F0040F 		tst	r3, #4
 1856 00f6 05D0     		beq	.L68
 127:src/unit/robot/robot.cpp ****                               info.Line.depth = 24 - info.Line.interval;
 1857              		.loc 1 127 31 view .LVU518
 127:src/unit/robot/robot.cpp ****                               info.Line.depth = 24 - info.Line.interval;
 1858              		.loc 1 127 52 is_stmt 0 view .LVU519
 1859 00f8 2885     		strh	r0, [r5, #40]	@ movhi
 128:src/unit/robot/robot.cpp ****                         } else {
 1860              		.loc 1 128 31 is_stmt 1 view .LVU520
 128:src/unit/robot/robot.cpp ****                         } else {
 1861              		.loc 1 128 52 is_stmt 0 view .LVU521
 1862 00fa C2F11802 		rsb	r2, r2, #24
 128:src/unit/robot/robot.cpp ****                         } else {
 1863              		.loc 1 128 47 view .LVU522
 1864 00fe 85F82220 		strb	r2, [r5, #34]
 1865 0102 A6E7     		b	.L66
 1866              	.L68:
 130:src/unit/robot/robot.cpp ****                               info.Line.depth = info.Line.interval;
 1867              		.loc 1 130 31 is_stmt 1 view .LVU523
 130:src/unit/robot/robot.cpp ****                               info.Line.depth = info.Line.interval;
ARM GAS  /var/folders/5c/srt4fy4j1pd641bjfx75k5000000gn/T//ccvAokLV.s 			page 44


 1868              		.loc 1 130 77 is_stmt 0 view .LVU524
 1869 0104 B430     		adds	r0, r0, #180
 1870 0106 FFF7FEFF 		bl	NormalizeDeg180
 1871              	.LVL157:
 130:src/unit/robot/robot.cpp ****                               info.Line.depth = info.Line.interval;
 1872              		.loc 1 130 52 view .LVU525
 1873 010a 2885     		strh	r0, [r5, #40]	@ movhi
 131:src/unit/robot/robot.cpp ****                         }
 1874              		.loc 1 131 31 is_stmt 1 view .LVU526
 131:src/unit/robot/robot.cpp ****                         }
 1875              		.loc 1 131 59 is_stmt 0 view .LVU527
 1876 010c 95F82130 		ldrb	r3, [r5, #33]	@ zero_extendqisi2
 131:src/unit/robot/robot.cpp ****                         }
 1877              		.loc 1 131 47 view .LVU528
 1878 0110 85F82230 		strb	r3, [r5, #34]
 1879 0114 9DE7     		b	.L66
 1880              	.LVL158:
 1881              	.L73:
 131:src/unit/robot/robot.cpp ****                         }
 1882              		.loc 1 131 47 view .LVU529
 1883              	.LBE240:
 1884              	.LBE241:
 1885              	.LBE242:
 1886              	.LBE243:
 1887              	.LBE245:
 1888              	.LBE247:
 138:src/unit/robot/robot.cpp ****             }
 139:src/unit/robot/robot.cpp ****       }
 140:src/unit/robot/robot.cpp **** 
 141:src/unit/robot/robot.cpp ****       if (line_send_interval_timer.read_us() >= LINE_SEND_PERIOD_US) {
 1889              		.loc 1 141 7 is_stmt 1 view .LVU530
 1890              	.LBB248:
 1891              		.loc 1 141 43 is_stmt 0 view .LVU531
 1892 0116 05F58A54 		add	r4, r5, #4416
 1893 011a 1C34     		adds	r4, r4, #28
 1894 011c 2046     		mov	r0, r4
 1895 011e FFF7FEFF 		bl	_ZN5Timer7read_usEv
 1896              	.LVL159:
 1897              		.loc 1 141 7 view .LVU532
 1898 0122 42F20F73 		movw	r3, #9999
 1899 0126 9842     		cmp	r0, r3
 1900 0128 01D8     		bhi	.L76
 1901              	.LVL160:
 1902              	.L60:
 1903              		.loc 1 141 7 view .LVU533
 1904              	.LBE248:
 142:src/unit/robot/robot.cpp ****             static const uint8_t HEADER = 0xFF;  // ヘッダ
 143:src/unit/robot/robot.cpp ****             static const uint8_t FOOTER = 0xAA;  // ヘッダ
 144:src/unit/robot/robot.cpp ****             static const uint8_t data_size = 4;
 145:src/unit/robot/robot.cpp ****             uint8_t send_data[data_size];
 146:src/unit/robot/robot.cpp ****             send_data[0] = HEADER;
 147:src/unit/robot/robot.cpp ****             send_data[1] = info.Line.on_led;
 148:src/unit/robot/robot.cpp ****             send_data[2] = info.Ui.reset_line;
 149:src/unit/robot/robot.cpp ****             send_data[3] = FOOTER;
 150:src/unit/robot/robot.cpp ****             serial2.write(send_data, data_size);
 151:src/unit/robot/robot.cpp ****             line_send_interval_timer.reset();
 152:src/unit/robot/robot.cpp ****       }
ARM GAS  /var/folders/5c/srt4fy4j1pd641bjfx75k5000000gn/T//ccvAokLV.s 			page 45


 153:src/unit/robot/robot.cpp **** }
 1905              		.loc 1 153 1 view .LVU534
 1906 012a 03B0     		add	sp, sp, #12
 1907              	.LCFI10:
 1908              		.cfi_remember_state
 1909              		.cfi_def_cfa_offset 12
 1910              		@ sp needed
 1911 012c 30BD     		pop	{r4, r5, pc}
 1912              	.LVL161:
 1913              	.L76:
 1914              	.LCFI11:
 1915              		.cfi_restore_state
 1916              	.LBB252:
 1917              	.LBB249:
 142:src/unit/robot/robot.cpp ****             static const uint8_t HEADER = 0xFF;  // ヘッダ
 1918              		.loc 1 142 13 is_stmt 1 view .LVU535
 143:src/unit/robot/robot.cpp ****             static const uint8_t data_size = 4;
 1919              		.loc 1 143 13 view .LVU536
 144:src/unit/robot/robot.cpp ****             uint8_t send_data[data_size];
 1920              		.loc 1 144 13 view .LVU537
 145:src/unit/robot/robot.cpp ****             send_data[0] = HEADER;
 1921              		.loc 1 145 13 view .LVU538
 146:src/unit/robot/robot.cpp ****             send_data[1] = info.Line.on_led;
 1922              		.loc 1 146 13 view .LVU539
 146:src/unit/robot/robot.cpp ****             send_data[1] = info.Line.on_led;
 1923              		.loc 1 146 26 is_stmt 0 view .LVU540
 1924 012e FF23     		movs	r3, #255
 1925 0130 8DF80430 		strb	r3, [sp, #4]
 147:src/unit/robot/robot.cpp ****             send_data[2] = info.Ui.reset_line;
 1926              		.loc 1 147 13 is_stmt 1 view .LVU541
 147:src/unit/robot/robot.cpp ****             send_data[2] = info.Ui.reset_line;
 1927              		.loc 1 147 38 is_stmt 0 view .LVU542
 1928 0134 95F82A30 		ldrb	r3, [r5, #42]	@ zero_extendqisi2
 147:src/unit/robot/robot.cpp ****             send_data[2] = info.Ui.reset_line;
 1929              		.loc 1 147 26 view .LVU543
 1930 0138 8DF80530 		strb	r3, [sp, #5]
 148:src/unit/robot/robot.cpp ****             send_data[3] = FOOTER;
 1931              		.loc 1 148 13 is_stmt 1 view .LVU544
 148:src/unit/robot/robot.cpp ****             send_data[3] = FOOTER;
 1932              		.loc 1 148 36 is_stmt 0 view .LVU545
 1933 013c 95F84130 		ldrb	r3, [r5, #65]	@ zero_extendqisi2
 148:src/unit/robot/robot.cpp ****             send_data[3] = FOOTER;
 1934              		.loc 1 148 26 view .LVU546
 1935 0140 8DF80630 		strb	r3, [sp, #6]
 149:src/unit/robot/robot.cpp ****             serial2.write(send_data, data_size);
 1936              		.loc 1 149 13 is_stmt 1 view .LVU547
 149:src/unit/robot/robot.cpp ****             serial2.write(send_data, data_size);
 1937              		.loc 1 149 26 is_stmt 0 view .LVU548
 1938 0144 AA23     		movs	r3, #170
 1939 0146 8DF80730 		strb	r3, [sp, #7]
 150:src/unit/robot/robot.cpp ****             line_send_interval_timer.reset();
 1940              		.loc 1 150 13 is_stmt 1 view .LVU549
 1941              	.LVL162:
 1942              	.LBB250:
 1943              	.LBI250:
  56:Lib/BufferedSerial/BufferedSerial.hpp **** 
  57:Lib/BufferedSerial/BufferedSerial.hpp ****       void write(uint8_t data) {
ARM GAS  /var/folders/5c/srt4fy4j1pd641bjfx75k5000000gn/T//ccvAokLV.s 			page 46


  58:Lib/BufferedSerial/BufferedSerial.hpp ****             HAL_UART_Transmit(_huart, &data, 1, 100);
  59:Lib/BufferedSerial/BufferedSerial.hpp ****       }
  60:Lib/BufferedSerial/BufferedSerial.hpp **** 
  61:Lib/BufferedSerial/BufferedSerial.hpp ****       void write(const uint8_t *data, uint16_t len) {
 1944              		.loc 2 61 12 view .LVU550
 1945              	.LBB251:
  62:Lib/BufferedSerial/BufferedSerial.hpp ****             HAL_UART_Transmit(_huart, (uint8_t *)data, len, 100);
 1946              		.loc 2 62 13 view .LVU551
 1947              		.loc 2 62 30 is_stmt 0 view .LVU552
 1948 014a 05F58055 		add	r5, r5, #4096
 1949              	.LVL163:
 1950              		.loc 2 62 30 view .LVU553
 1951 014e 6423     		movs	r3, #100
 1952 0150 0422     		movs	r2, #4
 1953 0152 0DEB0201 		add	r1, sp, r2
 1954 0156 D5F81C01 		ldr	r0, [r5, #284]
 1955 015a FFF7FEFF 		bl	HAL_UART_Transmit
 1956              	.LVL164:
 1957              		.loc 2 62 30 view .LVU554
 1958              	.LBE251:
 1959              	.LBE250:
 151:src/unit/robot/robot.cpp ****       }
 1960              		.loc 1 151 13 is_stmt 1 view .LVU555
 151:src/unit/robot/robot.cpp ****       }
 1961              		.loc 1 151 43 is_stmt 0 view .LVU556
 1962 015e 2046     		mov	r0, r4
 1963 0160 FFF7FEFF 		bl	_ZN5Timer5resetEv
 1964              	.LVL165:
 1965              	.LBE249:
 1966              	.LBE252:
 1967              		.loc 1 153 1 view .LVU557
 1968 0164 E1E7     		b	.L60
 1969              	.L78:
 1970 0166 00BF     		.align	3
 1971              	.L77:
 1972 0168 182D4454 		.word	1413754136
 1973 016c FB211940 		.word	1075388923
 1974 0170 00000000 		.word	_ZZN5Robot8LineUartEvE5index
 1975 0174 00000000 		.word	_ZZN5Robot8LineUartEvE9recv_data
 1976 0178 00000000 		.word	_ZZN5Robot8LineUartEvE9recv_byte
 1977              		.cfi_endproc
 1978              	.LFE290:
 1979              		.fnend
 1981              		.section	.text._ZN5Robot6UiUartEv,"ax",%progbits
 1982              		.align	1
 1983              		.global	_ZN5Robot6UiUartEv
 1984              		.syntax unified
 1985              		.thumb
 1986              		.thumb_func
 1988              	_ZN5Robot6UiUartEv:
 1989              		.fnstart
 1990              	.LVL166:
 1991              	.LFB291:
 154:src/unit/robot/robot.cpp **** 
 155:src/unit/robot/robot.cpp **** void Robot::UiUart() {
 1992              		.loc 1 155 22 is_stmt 1 view -0
 1993              		.cfi_startproc
ARM GAS  /var/folders/5c/srt4fy4j1pd641bjfx75k5000000gn/T//ccvAokLV.s 			page 47


 1994              		@ args = 0, pretend = 0, frame = 16
 1995              		@ frame_needed = 0, uses_anonymous_args = 0
 1996              		.loc 1 155 22 is_stmt 0 view .LVU559
 1997 0000 30B5     		push	{r4, r5, lr}
 1998              		.save {r4, r5, lr}
 1999              	.LCFI12:
 2000              		.cfi_def_cfa_offset 12
 2001              		.cfi_offset 4, -12
 2002              		.cfi_offset 5, -8
 2003              		.cfi_offset 14, -4
 2004              		.pad #20
 2005 0002 85B0     		sub	sp, sp, #20
 2006              	.LCFI13:
 2007              		.cfi_def_cfa_offset 32
 2008 0004 0546     		mov	r5, r0
 156:src/unit/robot/robot.cpp ****       while (serial3.available()) {
 2009              		.loc 1 156 7 is_stmt 1 view .LVU560
 2010 0006 0BE0     		b	.L80
 2011              	.LVL167:
 2012              	.L98:
 2013              	.LBB253:
 157:src/unit/robot/robot.cpp ****             static const uint8_t HEADER = 0xFF;   // ヘッダ
 158:src/unit/robot/robot.cpp ****             static const uint8_t FOOTER = 0xAA;   // ヘッダ
 159:src/unit/robot/robot.cpp ****             static const uint8_t data_size = 4;   // データのサイズ
 160:src/unit/robot/robot.cpp ****             static uint8_t index = 0;             // 受信したデータのインデックスカ
 161:src/unit/robot/robot.cpp ****             static uint8_t recv_data[data_size];  // 受信したデータ
 162:src/unit/robot/robot.cpp ****             static uint8_t recv_byte;
 163:src/unit/robot/robot.cpp **** 
 164:src/unit/robot/robot.cpp ****             recv_byte = serial3.read();
 165:src/unit/robot/robot.cpp ****             if (index == 0) {
 166:src/unit/robot/robot.cpp ****                   if (recv_byte == HEADER) {
 167:src/unit/robot/robot.cpp ****                         index++;
 2014              		.loc 1 167 25 view .LVU561
 2015              		.loc 1 167 30 is_stmt 0 view .LVU562
 2016 0008 0133     		adds	r3, r3, #1
 2017 000a CB4A     		ldr	r2, .L106+8
 2018 000c 1370     		strb	r3, [r2]
 2019 000e 07E0     		b	.L80
 2020              	.L81:
 168:src/unit/robot/robot.cpp ****                   } else {
 169:src/unit/robot/robot.cpp ****                         index = 0;
 170:src/unit/robot/robot.cpp ****                   }
 171:src/unit/robot/robot.cpp ****             } else if (index == (data_size + 1)) {
 2021              		.loc 1 171 20 is_stmt 1 view .LVU563
 2022 0010 052B     		cmp	r3, #5
 2023 0012 1CD0     		beq	.L96
 172:src/unit/robot/robot.cpp ****                   if (recv_byte == FOOTER) {
 173:src/unit/robot/robot.cpp ****                         info.Ui.item = ((recv_data[0] >> 4) & 0b00001111) - 8;
 174:src/unit/robot/robot.cpp ****                         info.mode = recv_data[0] & 0b00001111;
 175:src/unit/robot/robot.cpp ****                         info.Ui.sub_item = (recv_data[1] >> 5) & 0b00000111;
 176:src/unit/robot/robot.cpp ****                         info.Ui.dribbler_sig = (recv_data[1] >> 2) & 0b0000111;
 177:src/unit/robot/robot.cpp ****                         info.Ui.reset_yaw = (recv_data[1] >> 1) & 0b0000001;
 178:src/unit/robot/robot.cpp ****                         info.Ui.reset_line = recv_data[1] & 0b0000001;
 179:src/unit/robot/robot.cpp ****                         info.target_move_speed = recv_data[2] * 0.01;
 180:src/unit/robot/robot.cpp ****                         info.target_line_move_speed = recv_data[3] * 0.01;
 181:src/unit/robot/robot.cpp ****                   }
 182:src/unit/robot/robot.cpp ****                   index = 0;
ARM GAS  /var/folders/5c/srt4fy4j1pd641bjfx75k5000000gn/T//ccvAokLV.s 			page 48


 183:src/unit/robot/robot.cpp ****             } else {
 184:src/unit/robot/robot.cpp ****                   recv_data[index - 1] = recv_byte;
 2024              		.loc 1 184 19 view .LVU564
 2025              		.loc 1 184 35 is_stmt 0 view .LVU565
 2026 0014 5A1E     		subs	r2, r3, #1
 2027              		.loc 1 184 40 view .LVU566
 2028 0016 C949     		ldr	r1, .L106+12
 2029 0018 8854     		strb	r0, [r1, r2]
 185:src/unit/robot/robot.cpp ****                   index++;
 2030              		.loc 1 185 19 is_stmt 1 view .LVU567
 2031              		.loc 1 185 24 is_stmt 0 view .LVU568
 2032 001a 0133     		adds	r3, r3, #1
 2033 001c C64A     		ldr	r2, .L106+8
 2034 001e 1370     		strb	r3, [r2]
 2035              	.L80:
 2036              		.loc 1 185 24 view .LVU569
 2037              	.LBE253:
 156:src/unit/robot/robot.cpp ****             static const uint8_t HEADER = 0xFF;   // ヘッダ
 2038              		.loc 1 156 31 is_stmt 1 view .LVU570
 2039 0020 05F58954 		add	r4, r5, #4384
 2040 0024 0C34     		adds	r4, r4, #12
 2041 0026 2046     		mov	r0, r4
 2042 0028 FFF7FEFF 		bl	_ZN14BufferedSerial9availableEv
 2043              	.LVL168:
 2044 002c 0028     		cmp	r0, #0
 2045 002e 44D0     		beq	.L97
 2046              	.LBB254:
 157:src/unit/robot/robot.cpp ****             static const uint8_t FOOTER = 0xAA;   // ヘッダ
 2047              		.loc 1 157 13 view .LVU571
 158:src/unit/robot/robot.cpp ****             static const uint8_t data_size = 4;   // データのサイズ
 2048              		.loc 1 158 13 view .LVU572
 159:src/unit/robot/robot.cpp ****             static uint8_t index = 0;             // 受信したデータのインデックスカ
 2049              		.loc 1 159 13 view .LVU573
 160:src/unit/robot/robot.cpp ****             static uint8_t recv_data[data_size];  // 受信したデータ
 2050              		.loc 1 160 13 view .LVU574
 161:src/unit/robot/robot.cpp ****             static uint8_t recv_byte;
 2051              		.loc 1 161 13 view .LVU575
 162:src/unit/robot/robot.cpp **** 
 2052              		.loc 1 162 13 view .LVU576
 164:src/unit/robot/robot.cpp ****             if (index == 0) {
 2053              		.loc 1 164 13 view .LVU577
 164:src/unit/robot/robot.cpp ****             if (index == 0) {
 2054              		.loc 1 164 37 is_stmt 0 view .LVU578
 2055 0030 2046     		mov	r0, r4
 2056 0032 FFF7FEFF 		bl	_ZN14BufferedSerial4readEv
 2057              	.LVL169:
 164:src/unit/robot/robot.cpp ****             if (index == 0) {
 2058              		.loc 1 164 23 view .LVU579
 2059 0036 C24B     		ldr	r3, .L106+16
 2060 0038 1870     		strb	r0, [r3]
 165:src/unit/robot/robot.cpp ****                   if (recv_byte == HEADER) {
 2061              		.loc 1 165 13 is_stmt 1 view .LVU580
 165:src/unit/robot/robot.cpp ****                   if (recv_byte == HEADER) {
 2062              		.loc 1 165 23 is_stmt 0 view .LVU581
 2063 003a BF4B     		ldr	r3, .L106+8
 2064 003c 1B78     		ldrb	r3, [r3]	@ zero_extendqisi2
 165:src/unit/robot/robot.cpp ****                   if (recv_byte == HEADER) {
ARM GAS  /var/folders/5c/srt4fy4j1pd641bjfx75k5000000gn/T//ccvAokLV.s 			page 49


 2065              		.loc 1 165 13 view .LVU582
 2066 003e 002B     		cmp	r3, #0
 2067 0040 E6D1     		bne	.L81
 166:src/unit/robot/robot.cpp ****                         index++;
 2068              		.loc 1 166 19 is_stmt 1 view .LVU583
 2069 0042 FF28     		cmp	r0, #255
 2070 0044 E0D0     		beq	.L98
 169:src/unit/robot/robot.cpp ****                   }
 2071              		.loc 1 169 25 view .LVU584
 169:src/unit/robot/robot.cpp ****                   }
 2072              		.loc 1 169 31 is_stmt 0 view .LVU585
 2073 0046 BC4B     		ldr	r3, .L106+8
 2074 0048 0022     		movs	r2, #0
 2075 004a 1A70     		strb	r2, [r3]
 2076 004c E8E7     		b	.L80
 2077              	.L96:
 172:src/unit/robot/robot.cpp ****                         info.Ui.item = ((recv_data[0] >> 4) & 0b00001111) - 8;
 2078              		.loc 1 172 19 is_stmt 1 view .LVU586
 2079 004e AA28     		cmp	r0, #170
 2080 0050 03D0     		beq	.L99
 2081              	.L85:
 182:src/unit/robot/robot.cpp ****             } else {
 2082              		.loc 1 182 19 view .LVU587
 182:src/unit/robot/robot.cpp ****             } else {
 2083              		.loc 1 182 25 is_stmt 0 view .LVU588
 2084 0052 B94B     		ldr	r3, .L106+8
 2085 0054 0022     		movs	r2, #0
 2086 0056 1A70     		strb	r2, [r3]
 2087 0058 E2E7     		b	.L80
 2088              	.L99:
 173:src/unit/robot/robot.cpp ****                         info.mode = recv_data[0] & 0b00001111;
 2089              		.loc 1 173 25 is_stmt 1 view .LVU589
 173:src/unit/robot/robot.cpp ****                         info.mode = recv_data[0] & 0b00001111;
 2090              		.loc 1 173 53 is_stmt 0 view .LVU590
 2091 005a B84C     		ldr	r4, .L106+12
 2092 005c 2378     		ldrb	r3, [r4]	@ zero_extendqisi2
 173:src/unit/robot/robot.cpp ****                         info.mode = recv_data[0] & 0b00001111;
 2093              		.loc 1 173 55 view .LVU591
 2094 005e 1A09     		lsrs	r2, r3, #4
 173:src/unit/robot/robot.cpp ****                         info.mode = recv_data[0] & 0b00001111;
 2095              		.loc 1 173 75 view .LVU592
 2096 0060 083A     		subs	r2, r2, #8
 173:src/unit/robot/robot.cpp ****                         info.mode = recv_data[0] & 0b00001111;
 2097              		.loc 1 173 38 view .LVU593
 2098 0062 85F84320 		strb	r2, [r5, #67]
 174:src/unit/robot/robot.cpp ****                         info.Ui.sub_item = (recv_data[1] >> 5) & 0b00000111;
 2099              		.loc 1 174 25 is_stmt 1 view .LVU594
 174:src/unit/robot/robot.cpp ****                         info.Ui.sub_item = (recv_data[1] >> 5) & 0b00000111;
 2100              		.loc 1 174 50 is_stmt 0 view .LVU595
 2101 0066 03F00F03 		and	r3, r3, #15
 174:src/unit/robot/robot.cpp ****                         info.Ui.sub_item = (recv_data[1] >> 5) & 0b00000111;
 2102              		.loc 1 174 35 view .LVU596
 2103 006a 2B75     		strb	r3, [r5, #20]
 175:src/unit/robot/robot.cpp ****                         info.Ui.dribbler_sig = (recv_data[1] >> 2) & 0b0000111;
 2104              		.loc 1 175 25 is_stmt 1 view .LVU597
 175:src/unit/robot/robot.cpp ****                         info.Ui.dribbler_sig = (recv_data[1] >> 2) & 0b0000111;
 2105              		.loc 1 175 56 is_stmt 0 view .LVU598
ARM GAS  /var/folders/5c/srt4fy4j1pd641bjfx75k5000000gn/T//ccvAokLV.s 			page 50


 2106 006c 6378     		ldrb	r3, [r4, #1]	@ zero_extendqisi2
 175:src/unit/robot/robot.cpp ****                         info.Ui.dribbler_sig = (recv_data[1] >> 2) & 0b0000111;
 2107              		.loc 1 175 58 view .LVU599
 2108 006e 5A09     		lsrs	r2, r3, #5
 175:src/unit/robot/robot.cpp ****                         info.Ui.dribbler_sig = (recv_data[1] >> 2) & 0b0000111;
 2109              		.loc 1 175 42 view .LVU600
 2110 0070 85F84420 		strb	r2, [r5, #68]
 176:src/unit/robot/robot.cpp ****                         info.Ui.reset_yaw = (recv_data[1] >> 1) & 0b0000001;
 2111              		.loc 1 176 25 is_stmt 1 view .LVU601
 176:src/unit/robot/robot.cpp ****                         info.Ui.reset_yaw = (recv_data[1] >> 1) & 0b0000001;
 2112              		.loc 1 176 68 is_stmt 0 view .LVU602
 2113 0074 C3F38202 		ubfx	r2, r3, #2, #3
 176:src/unit/robot/robot.cpp ****                         info.Ui.reset_yaw = (recv_data[1] >> 1) & 0b0000001;
 2114              		.loc 1 176 46 view .LVU603
 2115 0078 85F84220 		strb	r2, [r5, #66]
 177:src/unit/robot/robot.cpp ****                         info.Ui.reset_line = recv_data[1] & 0b0000001;
 2116              		.loc 1 177 25 is_stmt 1 view .LVU604
 177:src/unit/robot/robot.cpp ****                         info.Ui.reset_line = recv_data[1] & 0b0000001;
 2117              		.loc 1 177 65 is_stmt 0 view .LVU605
 2118 007c C3F34002 		ubfx	r2, r3, #1, #1
 177:src/unit/robot/robot.cpp ****                         info.Ui.reset_line = recv_data[1] & 0b0000001;
 2119              		.loc 1 177 43 view .LVU606
 2120 0080 85F83E20 		strb	r2, [r5, #62]
 178:src/unit/robot/robot.cpp ****                         info.target_move_speed = recv_data[2] * 0.01;
 2121              		.loc 1 178 25 is_stmt 1 view .LVU607
 178:src/unit/robot/robot.cpp ****                         info.target_move_speed = recv_data[2] * 0.01;
 2122              		.loc 1 178 59 is_stmt 0 view .LVU608
 2123 0084 03F00103 		and	r3, r3, #1
 178:src/unit/robot/robot.cpp ****                         info.target_move_speed = recv_data[2] * 0.01;
 2124              		.loc 1 178 44 view .LVU609
 2125 0088 85F84130 		strb	r3, [r5, #65]
 179:src/unit/robot/robot.cpp ****                         info.target_line_move_speed = recv_data[3] * 0.01;
 2126              		.loc 1 179 25 is_stmt 1 view .LVU610
 179:src/unit/robot/robot.cpp ****                         info.target_line_move_speed = recv_data[3] * 0.01;
 2127              		.loc 1 179 63 is_stmt 0 view .LVU611
 2128 008c A078     		ldrb	r0, [r4, #2]	@ zero_extendqisi2
 2129 008e FFF7FEFF 		bl	__aeabi_i2d
 2130              	.LVL170:
 2131 0092 A7A3     		adr	r3, .L106
 2132 0094 D3E90023 		ldrd	r2, [r3]
 2133 0098 FFF7FEFF 		bl	__aeabi_dmul
 2134              	.LVL171:
 2135 009c FFF7FEFF 		bl	__aeabi_d2f
 2136              	.LVL172:
 179:src/unit/robot/robot.cpp ****                         info.target_line_move_speed = recv_data[3] * 0.01;
 2137              		.loc 1 179 48 view .LVU612
 2138 00a0 A861     		str	r0, [r5, #24]	@ float
 180:src/unit/robot/robot.cpp ****                   }
 2139              		.loc 1 180 25 is_stmt 1 view .LVU613
 180:src/unit/robot/robot.cpp ****                   }
 2140              		.loc 1 180 68 is_stmt 0 view .LVU614
 2141 00a2 E078     		ldrb	r0, [r4, #3]	@ zero_extendqisi2
 2142 00a4 FFF7FEFF 		bl	__aeabi_i2d
 2143              	.LVL173:
 2144 00a8 A1A3     		adr	r3, .L106
 2145 00aa D3E90023 		ldrd	r2, [r3]
 2146 00ae FFF7FEFF 		bl	__aeabi_dmul
ARM GAS  /var/folders/5c/srt4fy4j1pd641bjfx75k5000000gn/T//ccvAokLV.s 			page 51


 2147              	.LVL174:
 2148 00b2 FFF7FEFF 		bl	__aeabi_d2f
 2149              	.LVL175:
 180:src/unit/robot/robot.cpp ****                   }
 2150              		.loc 1 180 53 view .LVU615
 2151 00b6 E861     		str	r0, [r5, #28]	@ float
 2152 00b8 CBE7     		b	.L85
 2153              	.L97:
 180:src/unit/robot/robot.cpp ****                   }
 2154              		.loc 1 180 53 view .LVU616
 2155              	.LBE254:
 186:src/unit/robot/robot.cpp ****             }
 187:src/unit/robot/robot.cpp ****       }
 188:src/unit/robot/robot.cpp **** 
 189:src/unit/robot/robot.cpp ****       if (info.mode == 0 || info.mode == 3 || info.mode == 4) {
 2156              		.loc 1 189 7 is_stmt 1 view .LVU617
 2157              	.LBB255:
 2158              		.loc 1 189 16 is_stmt 0 view .LVU618
 2159 00ba 2B7D     		ldrb	r3, [r5, #20]	@ zero_extendqisi2
 2160              		.loc 1 189 7 view .LVU619
 2161 00bc 1BB1     		cbz	r3, .L87
 2162              		.loc 1 189 26 discriminator 1 view .LVU620
 2163 00be 032B     		cmp	r3, #3
 2164 00c0 01D0     		beq	.L87
 2165              		.loc 1 189 44 discriminator 2 view .LVU621
 2166 00c2 042B     		cmp	r3, #4
 2167 00c4 15D1     		bne	.L79
 2168              	.L87:
 2169              	.LBE255:
 190:src/unit/robot/robot.cpp ****             if (ui_send_interval_timer.read_us() >= UI_SEND_PERIOD_US) {
 2170              		.loc 1 190 13 is_stmt 1 view .LVU622
 2171              	.LBB322:
 2172              	.LBB256:
 2173              		.loc 1 190 47 is_stmt 0 view .LVU623
 2174 00c6 05F58B54 		add	r4, r5, #4448
 2175 00ca 2046     		mov	r0, r4
 2176 00cc FFF7FEFF 		bl	_ZN5Timer7read_usEv
 2177              	.LVL176:
 2178              		.loc 1 190 13 view .LVU624
 2179 00d0 9C4B     		ldr	r3, .L106+20
 2180 00d2 9842     		cmp	r0, r3
 2181 00d4 0DD9     		bls	.L79
 2182              	.LBB257:
 191:src/unit/robot/robot.cpp ****                   static const uint8_t HEADER = 0xFF;  // ヘッダ
 2183              		.loc 1 191 19 is_stmt 1 view .LVU625
 192:src/unit/robot/robot.cpp ****                   static const uint8_t FOOTER = 0xAA;  // ヘッダ
 2184              		.loc 1 192 19 view .LVU626
 193:src/unit/robot/robot.cpp ****                   if (info.Ui.item == -2) {
 2185              		.loc 1 193 19 view .LVU627
 2186              	.LBB258:
 2187              		.loc 1 193 31 is_stmt 0 view .LVU628
 2188 00d6 95F94330 		ldrsb	r3, [r5, #67]
 2189              		.loc 1 193 19 view .LVU629
 2190 00da 13F1020F 		cmn	r3, #2
 2191 00de 0AD0     		beq	.L100
 2192              	.LBE258:
 2193              	.LBE257:
ARM GAS  /var/folders/5c/srt4fy4j1pd641bjfx75k5000000gn/T//ccvAokLV.s 			page 52


 2194              	.LBE256:
 2195              	.LBE322:
 194:src/unit/robot/robot.cpp ****                         static const uint8_t data_size = 1;
 195:src/unit/robot/robot.cpp ****                         uint8_t send_data[data_size];
 196:src/unit/robot/robot.cpp ****                         send_data[0] = info.Catch.is_front << 1 | info.Catch.is_back;
 197:src/unit/robot/robot.cpp ****                         serial3.write(send_data, data_size);
 198:src/unit/robot/robot.cpp ****                   } else if (info.Ui.item == 0) {
 2196              		.loc 1 198 26 is_stmt 1 view .LVU630
 2197              	.LBB323:
 2198              	.LBB315:
 2199              	.LBB308:
 2200              	.LBB301:
 2201              	.LBB259:
 2202 00e0 DBB1     		cbz	r3, .L101
 2203              	.LBE259:
 2204              	.LBE301:
 2205              	.LBE308:
 2206              	.LBE315:
 2207              	.LBE323:
 199:src/unit/robot/robot.cpp ****                         static const uint8_t data_size = 10;
 200:src/unit/robot/robot.cpp ****                         uint8_t send_data[data_size];
 201:src/unit/robot/robot.cpp ****                         send_data[0] = HEADER;
 202:src/unit/robot/robot.cpp ****                         send_data[1] = info.voltage * 20;
 203:src/unit/robot/robot.cpp ****                         send_data[2] = (info.Ui.success_reset_yaw << 1) | (info.Imu.is_initialized 
 204:src/unit/robot/robot.cpp ****                         send_data[3] = (uint8_t)(((uint16_t)(info.Imu.yaw + 32768) & 0xFF00) >> 8);
 205:src/unit/robot/robot.cpp ****                         send_data[4] = (uint8_t)((uint16_t)(info.Imu.yaw + 32768) & 0x00FF);
 206:src/unit/robot/robot.cpp ****                         send_data[5] = (uint8_t)(((uint16_t)(info.Ui.debug[0] + 32768) & 0xFF00) >>
 207:src/unit/robot/robot.cpp ****                         send_data[6] = (uint8_t)((uint16_t)(info.Ui.debug[0] + 32768) & 0x00FF);
 208:src/unit/robot/robot.cpp ****                         send_data[7] = (uint8_t)(((uint16_t)(info.Ui.debug[1] + 32768) & 0xFF00) >>
 209:src/unit/robot/robot.cpp ****                         send_data[8] = (uint8_t)((uint16_t)(info.Ui.debug[1] + 32768) & 0x00FF);
 210:src/unit/robot/robot.cpp ****                         send_data[9] = FOOTER;
 211:src/unit/robot/robot.cpp ****                         serial3.write(send_data, data_size);
 212:src/unit/robot/robot.cpp ****                   } else if (info.Ui.item == 1) {
 2208              		.loc 1 212 26 view .LVU631
 2209              	.LBB324:
 2210              	.LBB316:
 2211              	.LBB309:
 2212              	.LBB302:
 2213              	.LBB292:
 2214              	.LBB260:
 2215 00e2 012B     		cmp	r3, #1
 2216 00e4 62D0     		beq	.L102
 2217              	.LBE260:
 2218              	.LBE292:
 2219              	.LBE302:
 2220              	.LBE309:
 2221              	.LBE316:
 2222              	.LBE324:
 213:src/unit/robot/robot.cpp ****                         static const uint8_t data_size = 6;
 214:src/unit/robot/robot.cpp ****                         uint8_t send_data[data_size];
 215:src/unit/robot/robot.cpp ****                         send_data[0] = HEADER;
 216:src/unit/robot/robot.cpp ****                         send_data[1] = info.Line.dir * 0.5 + 90;
 217:src/unit/robot/robot.cpp ****                         send_data[2] = info.Line.inside_dir * 0.5 + 90;
 218:src/unit/robot/robot.cpp ****                         send_data[3] = info.Line.interval;
 219:src/unit/robot/robot.cpp ****                         send_data[4] = (info.Ui.success_reset_line << 3) | (info.Line.is_on_line <<
 220:src/unit/robot/robot.cpp ****                         send_data[5] = FOOTER;
 221:src/unit/robot/robot.cpp ****                         serial3.write(send_data, data_size);
ARM GAS  /var/folders/5c/srt4fy4j1pd641bjfx75k5000000gn/T//ccvAokLV.s 			page 53


 222:src/unit/robot/robot.cpp ****                   } else if (info.Ui.item == 2) {
 2223              		.loc 1 222 26 view .LVU632
 2224              	.LBB325:
 2225              	.LBB317:
 2226              	.LBB310:
 2227              	.LBB303:
 2228              	.LBB293:
 2229              	.LBB284:
 2230              	.LBB261:
 2231 00e6 022B     		cmp	r3, #2
 2232 00e8 00F0A680 		beq	.L103
 2233              	.LVL177:
 2234              	.L90:
 2235              		.loc 1 222 26 is_stmt 0 view .LVU633
 2236              	.LBE261:
 2237              	.LBE284:
 2238              	.LBE293:
 2239              	.LBE303:
 223:src/unit/robot/robot.cpp ****                         if (info.Ui.sub_item == 1) {
 224:src/unit/robot/robot.cpp ****                               static const uint8_t data_size = 6;
 225:src/unit/robot/robot.cpp ****                               uint8_t send_data[data_size];
 226:src/unit/robot/robot.cpp ****                               send_data[0] = HEADER;
 227:src/unit/robot/robot.cpp ****                               send_data[1] = info.Cam.ball_dir * 0.5 + 90;
 228:src/unit/robot/robot.cpp ****                               send_data[2] = info.Cam.ball_dis;
 229:src/unit/robot/robot.cpp ****                               send_data[3] = info.Cam.ball_vel_x * 100 + 127;
 230:src/unit/robot/robot.cpp ****                               send_data[4] = info.Cam.ball_vel_y * 100 + 127;
 231:src/unit/robot/robot.cpp ****                               send_data[5] = FOOTER;
 232:src/unit/robot/robot.cpp ****                               serial3.write(send_data, data_size);
 233:src/unit/robot/robot.cpp ****                         } else if (info.Ui.sub_item == 2) {
 234:src/unit/robot/robot.cpp ****                               static const uint8_t data_size = 6;
 235:src/unit/robot/robot.cpp ****                               uint8_t send_data[data_size];
 236:src/unit/robot/robot.cpp ****                               send_data[0] = HEADER;
 237:src/unit/robot/robot.cpp ****                               send_data[1] = info.Cam.yellow_goal_dir * 0.5 + 90;
 238:src/unit/robot/robot.cpp ****                               send_data[2] = info.Cam.yellow_goal_dis;
 239:src/unit/robot/robot.cpp ****                               send_data[3] = info.Cam.blue_goal_dir * 0.5 + 90;
 240:src/unit/robot/robot.cpp ****                               send_data[4] = info.Cam.blue_goal_dis;
 241:src/unit/robot/robot.cpp ****                               send_data[5] = FOOTER;
 242:src/unit/robot/robot.cpp ****                               serial3.write(send_data, data_size);
 243:src/unit/robot/robot.cpp ****                         } else if (info.Ui.sub_item == 3) {
 244:src/unit/robot/robot.cpp ****                               static const uint8_t data_size = 7;
 245:src/unit/robot/robot.cpp ****                               uint8_t send_data[data_size];
 246:src/unit/robot/robot.cpp ****                               send_data[0] = HEADER;
 247:src/unit/robot/robot.cpp ****                               send_data[1] = info.Cam.center_dir * 0.5 + 90;
 248:src/unit/robot/robot.cpp ****                               send_data[2] = info.Cam.center_dis;
 249:src/unit/robot/robot.cpp ****                               send_data[3] = info.Cam.own_x + 127;
 250:src/unit/robot/robot.cpp ****                               send_data[4] = info.Cam.own_y + 127;
 251:src/unit/robot/robot.cpp ****                               send_data[5] = info.Cam.proximity[0];
 252:src/unit/robot/robot.cpp ****                               send_data[6] = FOOTER;
 253:src/unit/robot/robot.cpp ****                               serial3.write(send_data, data_size);
 254:src/unit/robot/robot.cpp ****                         }
 255:src/unit/robot/robot.cpp ****                   }
 256:src/unit/robot/robot.cpp **** 
 257:src/unit/robot/robot.cpp ****                   ui_send_interval_timer.reset();
 2240              		.loc 1 257 19 is_stmt 1 view .LVU634
 2241              		.loc 1 257 47 is_stmt 0 view .LVU635
 2242 00ec 2046     		mov	r0, r4
 2243 00ee FFF7FEFF 		bl	_ZN5Timer5resetEv
ARM GAS  /var/folders/5c/srt4fy4j1pd641bjfx75k5000000gn/T//ccvAokLV.s 			page 54


 2244              	.LVL178:
 2245              	.L79:
 2246              		.loc 1 257 47 view .LVU636
 2247              	.LBE310:
 2248              	.LBE317:
 2249              	.LBE325:
 258:src/unit/robot/robot.cpp ****             }
 259:src/unit/robot/robot.cpp ****       }
 260:src/unit/robot/robot.cpp **** }
 2250              		.loc 1 260 1 view .LVU637
 2251 00f2 05B0     		add	sp, sp, #20
 2252              	.LCFI14:
 2253              		.cfi_remember_state
 2254              		.cfi_def_cfa_offset 12
 2255              		@ sp needed
 2256 00f4 30BD     		pop	{r4, r5, pc}
 2257              	.LVL179:
 2258              	.L100:
 2259              	.LCFI15:
 2260              		.cfi_restore_state
 2261              	.LBB326:
 2262              	.LBB318:
 2263              	.LBB311:
 2264              	.LBB304:
 2265              	.LBB294:
 194:src/unit/robot/robot.cpp ****                         uint8_t send_data[data_size];
 2266              		.loc 1 194 25 is_stmt 1 view .LVU638
 195:src/unit/robot/robot.cpp ****                         send_data[0] = info.Catch.is_front << 1 | info.Catch.is_back;
 2267              		.loc 1 195 25 view .LVU639
 196:src/unit/robot/robot.cpp ****                         serial3.write(send_data, data_size);
 2268              		.loc 1 196 25 view .LVU640
 196:src/unit/robot/robot.cpp ****                         serial3.write(send_data, data_size);
 2269              		.loc 1 196 51 is_stmt 0 view .LVU641
 2270 00f6 95F82E20 		ldrb	r2, [r5, #46]	@ zero_extendqisi2
 196:src/unit/robot/robot.cpp ****                         serial3.write(send_data, data_size);
 2271              		.loc 1 196 78 view .LVU642
 2272 00fa 95F93230 		ldrsb	r3, [r5, #50]
 196:src/unit/robot/robot.cpp ****                         serial3.write(send_data, data_size);
 2273              		.loc 1 196 65 view .LVU643
 2274 00fe 43EA4203 		orr	r3, r3, r2, lsl #1
 196:src/unit/robot/robot.cpp ****                         serial3.write(send_data, data_size);
 2275              		.loc 1 196 38 view .LVU644
 2276 0102 8DF80430 		strb	r3, [sp, #4]
 197:src/unit/robot/robot.cpp ****                   } else if (info.Ui.item == 0) {
 2277              		.loc 1 197 25 is_stmt 1 view .LVU645
 2278              	.LVL180:
 2279              	.LBB295:
 2280              	.LBI295:
  61:Lib/BufferedSerial/BufferedSerial.hpp ****             HAL_UART_Transmit(_huart, (uint8_t *)data, len, 100);
 2281              		.loc 2 61 12 view .LVU646
 2282              	.LBB296:
 2283              		.loc 2 62 13 view .LVU647
 2284              		.loc 2 62 30 is_stmt 0 view .LVU648
 2285 0106 05F58055 		add	r5, r5, #4096
 2286              	.LVL181:
 2287              		.loc 2 62 30 view .LVU649
 2288 010a 6423     		movs	r3, #100
ARM GAS  /var/folders/5c/srt4fy4j1pd641bjfx75k5000000gn/T//ccvAokLV.s 			page 55


 2289 010c 0122     		movs	r2, #1
 2290 010e 01A9     		add	r1, sp, #4
 2291              	.LVL182:
 2292              		.loc 2 62 30 view .LVU650
 2293 0110 D5F82C01 		ldr	r0, [r5, #300]
 2294 0114 FFF7FEFF 		bl	HAL_UART_Transmit
 2295              	.LVL183:
 2296              		.loc 2 62 30 view .LVU651
 2297              	.LBE296:
 2298              	.LBE295:
 2299              	.LBE294:
 2300 0118 E8E7     		b	.L90
 2301              	.LVL184:
 2302              	.L101:
 2303              	.LBB297:
 2304              	.LBB285:
 199:src/unit/robot/robot.cpp ****                         uint8_t send_data[data_size];
 2305              		.loc 1 199 25 is_stmt 1 view .LVU652
 200:src/unit/robot/robot.cpp ****                         send_data[0] = HEADER;
 2306              		.loc 1 200 25 view .LVU653
 201:src/unit/robot/robot.cpp ****                         send_data[1] = info.voltage * 20;
 2307              		.loc 1 201 25 view .LVU654
 201:src/unit/robot/robot.cpp ****                         send_data[1] = info.voltage * 20;
 2308              		.loc 1 201 38 is_stmt 0 view .LVU655
 2309 011a FF23     		movs	r3, #255
 2310 011c 8DF80430 		strb	r3, [sp, #4]
 202:src/unit/robot/robot.cpp ****                         send_data[2] = (info.Ui.success_reset_yaw << 1) | (info.Imu.is_initialized 
 2311              		.loc 1 202 25 is_stmt 1 view .LVU656
 202:src/unit/robot/robot.cpp ****                         send_data[2] = (info.Ui.success_reset_yaw << 1) | (info.Imu.is_initialized 
 2312              		.loc 1 202 45 is_stmt 0 view .LVU657
 2313 0120 D5ED007A 		vldr.32	s15, [r5]
 202:src/unit/robot/robot.cpp ****                         send_data[2] = (info.Ui.success_reset_yaw << 1) | (info.Imu.is_initialized 
 2314              		.loc 1 202 53 view .LVU658
 2315 0124 B3EE047A 		vmov.f32	s14, #2.0e+1
 2316 0128 67EE877A 		vmul.f32	s15, s15, s14
 202:src/unit/robot/robot.cpp ****                         send_data[2] = (info.Ui.success_reset_yaw << 1) | (info.Imu.is_initialized 
 2317              		.loc 1 202 38 view .LVU659
 2318 012c FCEEE77A 		vcvt.u32.f32	s15, s15
 2319 0130 17EE903A 		vmov	r3, s15	@ int
 2320 0134 8DF80530 		strb	r3, [sp, #5]
 203:src/unit/robot/robot.cpp ****                         send_data[3] = (uint8_t)(((uint16_t)(info.Imu.yaw + 32768) & 0xFF00) >> 8);
 2321              		.loc 1 203 25 is_stmt 1 view .LVU660
 203:src/unit/robot/robot.cpp ****                         send_data[3] = (uint8_t)(((uint16_t)(info.Imu.yaw + 32768) & 0xFF00) >> 8);
 2322              		.loc 1 203 49 is_stmt 0 view .LVU661
 2323 0138 95F83F10 		ldrb	r1, [r5, #63]	@ zero_extendqisi2
 203:src/unit/robot/robot.cpp ****                         send_data[3] = (uint8_t)(((uint16_t)(info.Imu.yaw + 32768) & 0xFF00) >> 8);
 2324              		.loc 1 203 85 view .LVU662
 2325 013c 95F83420 		ldrb	r2, [r5, #52]	@ zero_extendqisi2
 203:src/unit/robot/robot.cpp ****                         send_data[3] = (uint8_t)(((uint16_t)(info.Imu.yaw + 32768) & 0xFF00) >> 8);
 2326              		.loc 1 203 112 view .LVU663
 2327 0140 95F82000 		ldrb	r0, [r5, #32]	@ zero_extendqisi2
 203:src/unit/robot/robot.cpp ****                         send_data[3] = (uint8_t)(((uint16_t)(info.Imu.yaw + 32768) & 0xFF00) >> 8);
 2328              		.loc 1 203 138 view .LVU664
 2329 0144 95F84C30 		ldrb	r3, [r5, #76]	@ zero_extendqisi2
 203:src/unit/robot/robot.cpp ****                         send_data[3] = (uint8_t)(((uint16_t)(info.Imu.yaw + 32768) & 0xFF00) >> 8);
 2330              		.loc 1 203 127 view .LVU665
 2331 0148 0240     		ands	r2, r2, r0
ARM GAS  /var/folders/5c/srt4fy4j1pd641bjfx75k5000000gn/T//ccvAokLV.s 			page 56


 2332 014a 1340     		ands	r3, r3, r2
 2333 014c 5BB2     		sxtb	r3, r3
 203:src/unit/robot/robot.cpp ****                         send_data[3] = (uint8_t)(((uint16_t)(info.Imu.yaw + 32768) & 0xFF00) >> 8);
 2334              		.loc 1 203 73 view .LVU666
 2335 014e 43EA4103 		orr	r3, r3, r1, lsl #1
 203:src/unit/robot/robot.cpp ****                         send_data[3] = (uint8_t)(((uint16_t)(info.Imu.yaw + 32768) & 0xFF00) >> 8);
 2336              		.loc 1 203 38 view .LVU667
 2337 0152 8DF80630 		strb	r3, [sp, #6]
 204:src/unit/robot/robot.cpp ****                         send_data[4] = (uint8_t)((uint16_t)(info.Imu.yaw + 32768) & 0x00FF);
 2338              		.loc 1 204 25 is_stmt 1 view .LVU668
 204:src/unit/robot/robot.cpp ****                         send_data[4] = (uint8_t)((uint16_t)(info.Imu.yaw + 32768) & 0x00FF);
 2339              		.loc 1 204 71 is_stmt 0 view .LVU669
 2340 0156 B5F93620 		ldrsh	r2, [r5, #54]
 2341 015a 93B2     		uxth	r3, r2
 204:src/unit/robot/robot.cpp ****                         send_data[4] = (uint8_t)((uint16_t)(info.Imu.yaw + 32768) & 0x00FF);
 2342              		.loc 1 204 75 view .LVU670
 2343 015c 83F40043 		eor	r3, r3, #32768
 204:src/unit/robot/robot.cpp ****                         send_data[4] = (uint8_t)((uint16_t)(info.Imu.yaw + 32768) & 0x00FF);
 2344              		.loc 1 204 94 view .LVU671
 2345 0160 1B0A     		lsrs	r3, r3, #8
 204:src/unit/robot/robot.cpp ****                         send_data[4] = (uint8_t)((uint16_t)(info.Imu.yaw + 32768) & 0x00FF);
 2346              		.loc 1 204 38 view .LVU672
 2347 0162 8DF80730 		strb	r3, [sp, #7]
 205:src/unit/robot/robot.cpp ****                         send_data[5] = (uint8_t)(((uint16_t)(info.Ui.debug[0] + 32768) & 0xFF00) >>
 2348              		.loc 1 205 25 is_stmt 1 view .LVU673
 205:src/unit/robot/robot.cpp ****                         send_data[5] = (uint8_t)(((uint16_t)(info.Ui.debug[0] + 32768) & 0xFF00) >>
 2349              		.loc 1 205 38 is_stmt 0 view .LVU674
 2350 0166 8DF80820 		strb	r2, [sp, #8]
 206:src/unit/robot/robot.cpp ****                         send_data[6] = (uint8_t)((uint16_t)(info.Ui.debug[0] + 32768) & 0x00FF);
 2351              		.loc 1 206 25 is_stmt 1 view .LVU675
 206:src/unit/robot/robot.cpp ****                         send_data[6] = (uint8_t)((uint16_t)(info.Ui.debug[0] + 32768) & 0x00FF);
 2352              		.loc 1 206 77 is_stmt 0 view .LVU676
 2353 016a B5F94620 		ldrsh	r2, [r5, #70]
 2354 016e 93B2     		uxth	r3, r2
 206:src/unit/robot/robot.cpp ****                         send_data[6] = (uint8_t)((uint16_t)(info.Ui.debug[0] + 32768) & 0x00FF);
 2355              		.loc 1 206 79 view .LVU677
 2356 0170 83F40043 		eor	r3, r3, #32768
 206:src/unit/robot/robot.cpp ****                         send_data[6] = (uint8_t)((uint16_t)(info.Ui.debug[0] + 32768) & 0x00FF);
 2357              		.loc 1 206 98 view .LVU678
 2358 0174 1B0A     		lsrs	r3, r3, #8
 206:src/unit/robot/robot.cpp ****                         send_data[6] = (uint8_t)((uint16_t)(info.Ui.debug[0] + 32768) & 0x00FF);
 2359              		.loc 1 206 38 view .LVU679
 2360 0176 8DF80930 		strb	r3, [sp, #9]
 207:src/unit/robot/robot.cpp ****                         send_data[7] = (uint8_t)(((uint16_t)(info.Ui.debug[1] + 32768) & 0xFF00) >>
 2361              		.loc 1 207 25 is_stmt 1 view .LVU680
 207:src/unit/robot/robot.cpp ****                         send_data[7] = (uint8_t)(((uint16_t)(info.Ui.debug[1] + 32768) & 0xFF00) >>
 2362              		.loc 1 207 38 is_stmt 0 view .LVU681
 2363 017a 8DF80A20 		strb	r2, [sp, #10]
 208:src/unit/robot/robot.cpp ****                         send_data[8] = (uint8_t)((uint16_t)(info.Ui.debug[1] + 32768) & 0x00FF);
 2364              		.loc 1 208 25 is_stmt 1 view .LVU682
 208:src/unit/robot/robot.cpp ****                         send_data[8] = (uint8_t)((uint16_t)(info.Ui.debug[1] + 32768) & 0x00FF);
 2365              		.loc 1 208 77 is_stmt 0 view .LVU683
 2366 017e B5F94820 		ldrsh	r2, [r5, #72]
 2367 0182 93B2     		uxth	r3, r2
 208:src/unit/robot/robot.cpp ****                         send_data[8] = (uint8_t)((uint16_t)(info.Ui.debug[1] + 32768) & 0x00FF);
 2368              		.loc 1 208 79 view .LVU684
 2369 0184 83F40043 		eor	r3, r3, #32768
ARM GAS  /var/folders/5c/srt4fy4j1pd641bjfx75k5000000gn/T//ccvAokLV.s 			page 57


 208:src/unit/robot/robot.cpp ****                         send_data[8] = (uint8_t)((uint16_t)(info.Ui.debug[1] + 32768) & 0x00FF);
 2370              		.loc 1 208 98 view .LVU685
 2371 0188 1B0A     		lsrs	r3, r3, #8
 208:src/unit/robot/robot.cpp ****                         send_data[8] = (uint8_t)((uint16_t)(info.Ui.debug[1] + 32768) & 0x00FF);
 2372              		.loc 1 208 38 view .LVU686
 2373 018a 8DF80B30 		strb	r3, [sp, #11]
 209:src/unit/robot/robot.cpp ****                         send_data[9] = FOOTER;
 2374              		.loc 1 209 25 is_stmt 1 view .LVU687
 209:src/unit/robot/robot.cpp ****                         send_data[9] = FOOTER;
 2375              		.loc 1 209 38 is_stmt 0 view .LVU688
 2376 018e 8DF80C20 		strb	r2, [sp, #12]
 210:src/unit/robot/robot.cpp ****                         serial3.write(send_data, data_size);
 2377              		.loc 1 210 25 is_stmt 1 view .LVU689
 210:src/unit/robot/robot.cpp ****                         serial3.write(send_data, data_size);
 2378              		.loc 1 210 38 is_stmt 0 view .LVU690
 2379 0192 AA23     		movs	r3, #170
 2380 0194 8DF80D30 		strb	r3, [sp, #13]
 211:src/unit/robot/robot.cpp ****                   } else if (info.Ui.item == 1) {
 2381              		.loc 1 211 25 is_stmt 1 view .LVU691
 2382              	.LVL185:
 2383              	.LBB286:
 2384              	.LBI286:
  61:Lib/BufferedSerial/BufferedSerial.hpp ****             HAL_UART_Transmit(_huart, (uint8_t *)data, len, 100);
 2385              		.loc 2 61 12 view .LVU692
 2386              	.LBB287:
 2387              		.loc 2 62 13 view .LVU693
 2388              		.loc 2 62 30 is_stmt 0 view .LVU694
 2389 0198 05F58055 		add	r5, r5, #4096
 2390              	.LVL186:
 2391              		.loc 2 62 30 view .LVU695
 2392 019c 6423     		movs	r3, #100
 2393 019e 0A22     		movs	r2, #10
 2394 01a0 01A9     		add	r1, sp, #4
 2395              	.LVL187:
 2396              		.loc 2 62 30 view .LVU696
 2397 01a2 D5F82C01 		ldr	r0, [r5, #300]
 2398 01a6 FFF7FEFF 		bl	HAL_UART_Transmit
 2399              	.LVL188:
 2400              		.loc 2 62 30 view .LVU697
 2401              	.LBE287:
 2402              	.LBE286:
 2403              	.LBE285:
 2404 01aa 9FE7     		b	.L90
 2405              	.LVL189:
 2406              	.L102:
 2407              	.LBB288:
 2408              	.LBB278:
 213:src/unit/robot/robot.cpp ****                         uint8_t send_data[data_size];
 2409              		.loc 1 213 25 is_stmt 1 view .LVU698
 214:src/unit/robot/robot.cpp ****                         send_data[0] = HEADER;
 2410              		.loc 1 214 25 view .LVU699
 215:src/unit/robot/robot.cpp ****                         send_data[1] = info.Line.dir * 0.5 + 90;
 2411              		.loc 1 215 25 view .LVU700
 215:src/unit/robot/robot.cpp ****                         send_data[1] = info.Line.dir * 0.5 + 90;
 2412              		.loc 1 215 38 is_stmt 0 view .LVU701
 2413 01ac FF23     		movs	r3, #255
 2414 01ae 8DF80430 		strb	r3, [sp, #4]
ARM GAS  /var/folders/5c/srt4fy4j1pd641bjfx75k5000000gn/T//ccvAokLV.s 			page 58


 216:src/unit/robot/robot.cpp ****                         send_data[2] = info.Line.inside_dir * 0.5 + 90;
 2415              		.loc 1 216 25 is_stmt 1 view .LVU702
 216:src/unit/robot/robot.cpp ****                         send_data[2] = info.Line.inside_dir * 0.5 + 90;
 2416              		.loc 1 216 54 is_stmt 0 view .LVU703
 2417 01b2 B5F92600 		ldrsh	r0, [r5, #38]
 2418 01b6 FFF7FEFF 		bl	__aeabi_i2d
 2419              	.LVL190:
 2420 01ba 0022     		movs	r2, #0
 2421 01bc 624B     		ldr	r3, .L106+24
 2422 01be FFF7FEFF 		bl	__aeabi_dmul
 2423              	.LVL191:
 216:src/unit/robot/robot.cpp ****                         send_data[2] = info.Line.inside_dir * 0.5 + 90;
 2424              		.loc 1 216 60 view .LVU704
 2425 01c2 0022     		movs	r2, #0
 2426 01c4 614B     		ldr	r3, .L106+28
 2427 01c6 FFF7FEFF 		bl	__aeabi_dadd
 2428              	.LVL192:
 216:src/unit/robot/robot.cpp ****                         send_data[2] = info.Line.inside_dir * 0.5 + 90;
 2429              		.loc 1 216 38 view .LVU705
 2430 01ca FFF7FEFF 		bl	__aeabi_d2uiz
 2431              	.LVL193:
 2432 01ce 8DF80500 		strb	r0, [sp, #5]
 217:src/unit/robot/robot.cpp ****                         send_data[3] = info.Line.interval;
 2433              		.loc 1 217 25 is_stmt 1 view .LVU706
 217:src/unit/robot/robot.cpp ****                         send_data[3] = info.Line.interval;
 2434              		.loc 1 217 61 is_stmt 0 view .LVU707
 2435 01d2 B5F92800 		ldrsh	r0, [r5, #40]
 2436 01d6 FFF7FEFF 		bl	__aeabi_i2d
 2437              	.LVL194:
 2438 01da 0022     		movs	r2, #0
 2439 01dc 5A4B     		ldr	r3, .L106+24
 2440 01de FFF7FEFF 		bl	__aeabi_dmul
 2441              	.LVL195:
 217:src/unit/robot/robot.cpp ****                         send_data[3] = info.Line.interval;
 2442              		.loc 1 217 67 view .LVU708
 2443 01e2 0022     		movs	r2, #0
 2444 01e4 594B     		ldr	r3, .L106+28
 2445 01e6 FFF7FEFF 		bl	__aeabi_dadd
 2446              	.LVL196:
 217:src/unit/robot/robot.cpp ****                         send_data[3] = info.Line.interval;
 2447              		.loc 1 217 38 view .LVU709
 2448 01ea FFF7FEFF 		bl	__aeabi_d2uiz
 2449              	.LVL197:
 2450 01ee 8DF80600 		strb	r0, [sp, #6]
 218:src/unit/robot/robot.cpp ****                         send_data[4] = (info.Ui.success_reset_line << 3) | (info.Line.is_on_line <<
 2451              		.loc 1 218 25 is_stmt 1 view .LVU710
 218:src/unit/robot/robot.cpp ****                         send_data[4] = (info.Ui.success_reset_line << 3) | (info.Line.is_on_line <<
 2452              		.loc 1 218 50 is_stmt 0 view .LVU711
 2453 01f2 95F82130 		ldrb	r3, [r5, #33]	@ zero_extendqisi2
 218:src/unit/robot/robot.cpp ****                         send_data[4] = (info.Ui.success_reset_line << 3) | (info.Line.is_on_line <<
 2454              		.loc 1 218 38 view .LVU712
 2455 01f6 8DF80730 		strb	r3, [sp, #7]
 219:src/unit/robot/robot.cpp ****                         send_data[5] = FOOTER;
 2456              		.loc 1 219 25 is_stmt 1 view .LVU713
 219:src/unit/robot/robot.cpp ****                         send_data[5] = FOOTER;
 2457              		.loc 1 219 49 is_stmt 0 view .LVU714
 2458 01fa 95F84020 		ldrb	r2, [r5, #64]	@ zero_extendqisi2
ARM GAS  /var/folders/5c/srt4fy4j1pd641bjfx75k5000000gn/T//ccvAokLV.s 			page 59


 219:src/unit/robot/robot.cpp ****                         send_data[5] = FOOTER;
 2459              		.loc 1 219 87 view .LVU715
 2460 01fe 95F82330 		ldrb	r3, [r5, #35]	@ zero_extendqisi2
 219:src/unit/robot/robot.cpp ****                         send_data[5] = FOOTER;
 2461              		.loc 1 219 98 view .LVU716
 2462 0202 9B00     		lsls	r3, r3, #2
 219:src/unit/robot/robot.cpp ****                         send_data[5] = FOOTER;
 2463              		.loc 1 219 74 view .LVU717
 2464 0204 43EAC203 		orr	r3, r3, r2, lsl #3
 2465 0208 5BB2     		sxtb	r3, r3
 219:src/unit/robot/robot.cpp ****                         send_data[5] = FOOTER;
 2466              		.loc 1 219 117 view .LVU718
 2467 020a 95F82420 		ldrb	r2, [r5, #36]	@ zero_extendqisi2
 219:src/unit/robot/robot.cpp ****                         send_data[5] = FOOTER;
 2468              		.loc 1 219 104 view .LVU719
 2469 020e 43EA4203 		orr	r3, r3, r2, lsl #1
 2470 0212 5BB2     		sxtb	r3, r3
 219:src/unit/robot/robot.cpp ****                         send_data[5] = FOOTER;
 2471              		.loc 1 219 147 view .LVU720
 2472 0214 95F92520 		ldrsb	r2, [r5, #37]
 219:src/unit/robot/robot.cpp ****                         send_data[5] = FOOTER;
 2473              		.loc 1 219 135 view .LVU721
 2474 0218 1343     		orrs	r3, r3, r2
 219:src/unit/robot/robot.cpp ****                         send_data[5] = FOOTER;
 2475              		.loc 1 219 38 view .LVU722
 2476 021a 8DF80830 		strb	r3, [sp, #8]
 220:src/unit/robot/robot.cpp ****                         serial3.write(send_data, data_size);
 2477              		.loc 1 220 25 is_stmt 1 view .LVU723
 220:src/unit/robot/robot.cpp ****                         serial3.write(send_data, data_size);
 2478              		.loc 1 220 38 is_stmt 0 view .LVU724
 2479 021e AA23     		movs	r3, #170
 2480 0220 8DF80930 		strb	r3, [sp, #9]
 221:src/unit/robot/robot.cpp ****                   } else if (info.Ui.item == 2) {
 2481              		.loc 1 221 25 is_stmt 1 view .LVU725
 2482              	.LVL198:
 2483              	.LBB279:
 2484              	.LBI279:
  61:Lib/BufferedSerial/BufferedSerial.hpp ****             HAL_UART_Transmit(_huart, (uint8_t *)data, len, 100);
 2485              		.loc 2 61 12 view .LVU726
 2486              	.LBB280:
 2487              		.loc 2 62 13 view .LVU727
 2488              		.loc 2 62 30 is_stmt 0 view .LVU728
 2489 0224 05F58055 		add	r5, r5, #4096
 2490              	.LVL199:
 2491              		.loc 2 62 30 view .LVU729
 2492 0228 6423     		movs	r3, #100
 2493 022a 0622     		movs	r2, #6
 2494 022c 01A9     		add	r1, sp, #4
 2495              	.LVL200:
 2496              		.loc 2 62 30 view .LVU730
 2497 022e D5F82C01 		ldr	r0, [r5, #300]
 2498 0232 FFF7FEFF 		bl	HAL_UART_Transmit
 2499              	.LVL201:
 2500              		.loc 2 62 30 view .LVU731
 2501              	.LBE280:
 2502              	.LBE279:
 2503              	.LBE278:
ARM GAS  /var/folders/5c/srt4fy4j1pd641bjfx75k5000000gn/T//ccvAokLV.s 			page 60


 2504 0236 59E7     		b	.L90
 2505              	.LVL202:
 2506              	.L103:
 2507              		.loc 2 62 30 view .LVU732
 2508              	.LBE288:
 2509              	.LBE297:
 2510              	.LBE304:
 2511              	.LBE311:
 2512              	.LBE318:
 2513              	.LBE326:
 223:src/unit/robot/robot.cpp ****                               static const uint8_t data_size = 6;
 2514              		.loc 1 223 25 is_stmt 1 view .LVU733
 2515              	.LBB327:
 2516              	.LBB319:
 2517              	.LBB312:
 2518              	.LBB305:
 2519              	.LBB298:
 2520              	.LBB289:
 2521              	.LBB281:
 2522              	.LBB262:
 223:src/unit/robot/robot.cpp ****                               static const uint8_t data_size = 6;
 2523              		.loc 1 223 37 is_stmt 0 view .LVU734
 2524 0238 95F84430 		ldrb	r3, [r5, #68]	@ zero_extendqisi2
 223:src/unit/robot/robot.cpp ****                               static const uint8_t data_size = 6;
 2525              		.loc 1 223 25 view .LVU735
 2526 023c 012B     		cmp	r3, #1
 2527 023e 37D0     		beq	.L104
 2528              	.LBE262:
 2529              	.LBE281:
 2530              	.LBE289:
 2531              	.LBE298:
 2532              	.LBE305:
 2533              	.LBE312:
 2534              	.LBE319:
 2535              	.LBE327:
 233:src/unit/robot/robot.cpp ****                               static const uint8_t data_size = 6;
 2536              		.loc 1 233 32 is_stmt 1 view .LVU736
 2537              	.LBB328:
 2538              	.LBB320:
 2539              	.LBB313:
 2540              	.LBB306:
 2541              	.LBB299:
 2542              	.LBB290:
 2543              	.LBB282:
 2544              	.LBB276:
 2545              	.LBB263:
 2546 0240 022B     		cmp	r3, #2
 2547 0242 00F08980 		beq	.L105
 2548              	.LBE263:
 2549              	.LBE276:
 2550              	.LBE282:
 2551              	.LBE290:
 2552              	.LBE299:
 2553              	.LBE306:
 2554              	.LBE313:
 2555              	.LBE320:
 2556              	.LBE328:
ARM GAS  /var/folders/5c/srt4fy4j1pd641bjfx75k5000000gn/T//ccvAokLV.s 			page 61


 243:src/unit/robot/robot.cpp ****                               static const uint8_t data_size = 7;
 2557              		.loc 1 243 32 view .LVU737
 2558              	.LBB329:
 2559              	.LBB321:
 2560              	.LBB314:
 2561              	.LBB307:
 2562              	.LBB300:
 2563              	.LBB291:
 2564              	.LBB283:
 2565              	.LBB277:
 2566              	.LBB271:
 2567              	.LBB264:
 2568 0246 032B     		cmp	r3, #3
 2569 0248 7FF450AF 		bne	.L90
 2570              	.LBB265:
 244:src/unit/robot/robot.cpp ****                               uint8_t send_data[data_size];
 2571              		.loc 1 244 31 view .LVU738
 245:src/unit/robot/robot.cpp ****                               send_data[0] = HEADER;
 2572              		.loc 1 245 31 view .LVU739
 246:src/unit/robot/robot.cpp ****                               send_data[1] = info.Cam.center_dir * 0.5 + 90;
 2573              		.loc 1 246 31 view .LVU740
 246:src/unit/robot/robot.cpp ****                               send_data[1] = info.Cam.center_dir * 0.5 + 90;
 2574              		.loc 1 246 44 is_stmt 0 view .LVU741
 2575 024c FF23     		movs	r3, #255
 2576 024e 8DF80430 		strb	r3, [sp, #4]
 247:src/unit/robot/robot.cpp ****                               send_data[2] = info.Cam.center_dis;
 2577              		.loc 1 247 31 is_stmt 1 view .LVU742
 247:src/unit/robot/robot.cpp ****                               send_data[2] = info.Cam.center_dis;
 2578              		.loc 1 247 66 is_stmt 0 view .LVU743
 2579 0252 B5F97C00 		ldrsh	r0, [r5, #124]
 2580 0256 FFF7FEFF 		bl	__aeabi_i2d
 2581              	.LVL203:
 2582 025a 0022     		movs	r2, #0
 2583 025c 3A4B     		ldr	r3, .L106+24
 2584 025e FFF7FEFF 		bl	__aeabi_dmul
 2585              	.LVL204:
 247:src/unit/robot/robot.cpp ****                               send_data[2] = info.Cam.center_dis;
 2586              		.loc 1 247 72 view .LVU744
 2587 0262 0022     		movs	r2, #0
 2588 0264 394B     		ldr	r3, .L106+28
 2589 0266 FFF7FEFF 		bl	__aeabi_dadd
 2590              	.LVL205:
 247:src/unit/robot/robot.cpp ****                               send_data[2] = info.Cam.center_dis;
 2591              		.loc 1 247 44 view .LVU745
 2592 026a FFF7FEFF 		bl	__aeabi_d2uiz
 2593              	.LVL206:
 2594 026e 8DF80500 		strb	r0, [sp, #5]
 248:src/unit/robot/robot.cpp ****                               send_data[3] = info.Cam.own_x + 127;
 2595              		.loc 1 248 31 is_stmt 1 view .LVU746
 248:src/unit/robot/robot.cpp ****                               send_data[3] = info.Cam.own_x + 127;
 2596              		.loc 1 248 55 is_stmt 0 view .LVU747
 2597 0272 B5F97E30 		ldrsh	r3, [r5, #126]
 248:src/unit/robot/robot.cpp ****                               send_data[3] = info.Cam.own_x + 127;
 2598              		.loc 1 248 44 view .LVU748
 2599 0276 8DF80630 		strb	r3, [sp, #6]
 249:src/unit/robot/robot.cpp ****                               send_data[4] = info.Cam.own_y + 127;
 2600              		.loc 1 249 31 is_stmt 1 view .LVU749
ARM GAS  /var/folders/5c/srt4fy4j1pd641bjfx75k5000000gn/T//ccvAokLV.s 			page 62


 249:src/unit/robot/robot.cpp ****                               send_data[4] = info.Cam.own_y + 127;
 2601              		.loc 1 249 55 is_stmt 0 view .LVU750
 2602 027a B5F97830 		ldrsh	r3, [r5, #120]
 249:src/unit/robot/robot.cpp ****                               send_data[4] = info.Cam.own_y + 127;
 2603              		.loc 1 249 61 view .LVU751
 2604 027e 7F33     		adds	r3, r3, #127
 249:src/unit/robot/robot.cpp ****                               send_data[4] = info.Cam.own_y + 127;
 2605              		.loc 1 249 44 view .LVU752
 2606 0280 8DF80730 		strb	r3, [sp, #7]
 250:src/unit/robot/robot.cpp ****                               send_data[5] = info.Cam.proximity[0];
 2607              		.loc 1 250 31 is_stmt 1 view .LVU753
 250:src/unit/robot/robot.cpp ****                               send_data[5] = info.Cam.proximity[0];
 2608              		.loc 1 250 55 is_stmt 0 view .LVU754
 2609 0284 B5F97A30 		ldrsh	r3, [r5, #122]
 250:src/unit/robot/robot.cpp ****                               send_data[5] = info.Cam.proximity[0];
 2610              		.loc 1 250 61 view .LVU755
 2611 0288 7F33     		adds	r3, r3, #127
 250:src/unit/robot/robot.cpp ****                               send_data[5] = info.Cam.proximity[0];
 2612              		.loc 1 250 44 view .LVU756
 2613 028a 8DF80830 		strb	r3, [sp, #8]
 251:src/unit/robot/robot.cpp ****                               send_data[6] = FOOTER;
 2614              		.loc 1 251 31 is_stmt 1 view .LVU757
 251:src/unit/robot/robot.cpp ****                               send_data[6] = FOOTER;
 2615              		.loc 1 251 66 is_stmt 0 view .LVU758
 2616 028e 95F88230 		ldrb	r3, [r5, #130]	@ zero_extendqisi2
 251:src/unit/robot/robot.cpp ****                               send_data[6] = FOOTER;
 2617              		.loc 1 251 44 view .LVU759
 2618 0292 8DF80930 		strb	r3, [sp, #9]
 252:src/unit/robot/robot.cpp ****                               serial3.write(send_data, data_size);
 2619              		.loc 1 252 31 is_stmt 1 view .LVU760
 252:src/unit/robot/robot.cpp ****                               serial3.write(send_data, data_size);
 2620              		.loc 1 252 44 is_stmt 0 view .LVU761
 2621 0296 AA23     		movs	r3, #170
 2622 0298 8DF80A30 		strb	r3, [sp, #10]
 253:src/unit/robot/robot.cpp ****                         }
 2623              		.loc 1 253 31 is_stmt 1 view .LVU762
 2624              	.LVL207:
 2625              	.LBB266:
 2626              	.LBI266:
  61:Lib/BufferedSerial/BufferedSerial.hpp ****             HAL_UART_Transmit(_huart, (uint8_t *)data, len, 100);
 2627              		.loc 2 61 12 view .LVU763
 2628              	.LBB267:
 2629              		.loc 2 62 13 view .LVU764
 2630              		.loc 2 62 30 is_stmt 0 view .LVU765
 2631 029c 05F58055 		add	r5, r5, #4096
 2632              	.LVL208:
 2633              		.loc 2 62 30 view .LVU766
 2634 02a0 6423     		movs	r3, #100
 2635 02a2 0722     		movs	r2, #7
 2636 02a4 01A9     		add	r1, sp, #4
 2637              	.LVL209:
 2638              		.loc 2 62 30 view .LVU767
 2639 02a6 D5F82C01 		ldr	r0, [r5, #300]
 2640 02aa FFF7FEFF 		bl	HAL_UART_Transmit
 2641              	.LVL210:
 2642              		.loc 2 62 30 view .LVU768
 2643              	.LBE267:
ARM GAS  /var/folders/5c/srt4fy4j1pd641bjfx75k5000000gn/T//ccvAokLV.s 			page 63


 2644              	.LBE266:
 2645              	.LBE265:
 2646 02ae 1DE7     		b	.L90
 2647              	.LVL211:
 2648              	.L104:
 2649              		.loc 2 62 30 view .LVU769
 2650              	.LBE264:
 2651              	.LBE271:
 2652              	.LBB272:
 224:src/unit/robot/robot.cpp ****                               uint8_t send_data[data_size];
 2653              		.loc 1 224 31 is_stmt 1 view .LVU770
 225:src/unit/robot/robot.cpp ****                               send_data[0] = HEADER;
 2654              		.loc 1 225 31 view .LVU771
 226:src/unit/robot/robot.cpp ****                               send_data[1] = info.Cam.ball_dir * 0.5 + 90;
 2655              		.loc 1 226 31 view .LVU772
 226:src/unit/robot/robot.cpp ****                               send_data[1] = info.Cam.ball_dir * 0.5 + 90;
 2656              		.loc 1 226 44 is_stmt 0 view .LVU773
 2657 02b0 FF23     		movs	r3, #255
 2658 02b2 8DF80430 		strb	r3, [sp, #4]
 227:src/unit/robot/robot.cpp ****                               send_data[2] = info.Cam.ball_dis;
 2659              		.loc 1 227 31 is_stmt 1 view .LVU774
 227:src/unit/robot/robot.cpp ****                               send_data[2] = info.Cam.ball_dis;
 2660              		.loc 1 227 64 is_stmt 0 view .LVU775
 2661 02b6 B5F94E00 		ldrsh	r0, [r5, #78]
 2662 02ba FFF7FEFF 		bl	__aeabi_i2d
 2663              	.LVL212:
 2664 02be 0022     		movs	r2, #0
 2665 02c0 214B     		ldr	r3, .L106+24
 2666 02c2 FFF7FEFF 		bl	__aeabi_dmul
 2667              	.LVL213:
 227:src/unit/robot/robot.cpp ****                               send_data[2] = info.Cam.ball_dis;
 2668              		.loc 1 227 70 view .LVU776
 2669 02c6 0022     		movs	r2, #0
 2670 02c8 204B     		ldr	r3, .L106+28
 2671 02ca FFF7FEFF 		bl	__aeabi_dadd
 2672              	.LVL214:
 227:src/unit/robot/robot.cpp ****                               send_data[2] = info.Cam.ball_dis;
 2673              		.loc 1 227 44 view .LVU777
 2674 02ce FFF7FEFF 		bl	__aeabi_d2uiz
 2675              	.LVL215:
 2676 02d2 8DF80500 		strb	r0, [sp, #5]
 228:src/unit/robot/robot.cpp ****                               send_data[3] = info.Cam.ball_vel_x * 100 + 127;
 2677              		.loc 1 228 31 is_stmt 1 view .LVU778
 228:src/unit/robot/robot.cpp ****                               send_data[3] = info.Cam.ball_vel_x * 100 + 127;
 2678              		.loc 1 228 55 is_stmt 0 view .LVU779
 2679 02d6 95F85030 		ldrb	r3, [r5, #80]	@ zero_extendqisi2
 228:src/unit/robot/robot.cpp ****                               send_data[3] = info.Cam.ball_vel_x * 100 + 127;
 2680              		.loc 1 228 44 view .LVU780
 2681 02da 8DF80630 		strb	r3, [sp, #6]
 229:src/unit/robot/robot.cpp ****                               send_data[4] = info.Cam.ball_vel_y * 100 + 127;
 2682              		.loc 1 229 31 is_stmt 1 view .LVU781
 229:src/unit/robot/robot.cpp ****                               send_data[4] = info.Cam.ball_vel_y * 100 + 127;
 2683              		.loc 1 229 55 is_stmt 0 view .LVU782
 2684 02de D5ED187A 		vldr.32	s15, [r5, #96]
 229:src/unit/robot/robot.cpp ****                               send_data[4] = info.Cam.ball_vel_y * 100 + 127;
 2685              		.loc 1 229 66 view .LVU783
 2686 02e2 DFED1B6A 		vldr.32	s13, .L106+32
ARM GAS  /var/folders/5c/srt4fy4j1pd641bjfx75k5000000gn/T//ccvAokLV.s 			page 64


 2687 02e6 67EEA67A 		vmul.f32	s15, s15, s13
 229:src/unit/robot/robot.cpp ****                               send_data[4] = info.Cam.ball_vel_y * 100 + 127;
 2688              		.loc 1 229 72 view .LVU784
 2689 02ea 9FED1A7A 		vldr.32	s14, .L106+36
 2690 02ee 77EE877A 		vadd.f32	s15, s15, s14
 229:src/unit/robot/robot.cpp ****                               send_data[4] = info.Cam.ball_vel_y * 100 + 127;
 2691              		.loc 1 229 44 view .LVU785
 2692 02f2 FCEEE77A 		vcvt.u32.f32	s15, s15
 2693 02f6 17EE903A 		vmov	r3, s15	@ int
 2694 02fa 8DF80730 		strb	r3, [sp, #7]
 230:src/unit/robot/robot.cpp ****                               send_data[5] = FOOTER;
 2695              		.loc 1 230 31 is_stmt 1 view .LVU786
 230:src/unit/robot/robot.cpp ****                               send_data[5] = FOOTER;
 2696              		.loc 1 230 55 is_stmt 0 view .LVU787
 2697 02fe D5ED197A 		vldr.32	s15, [r5, #100]
 230:src/unit/robot/robot.cpp ****                               send_data[5] = FOOTER;
 2698              		.loc 1 230 66 view .LVU788
 2699 0302 67EEA67A 		vmul.f32	s15, s15, s13
 230:src/unit/robot/robot.cpp ****                               send_data[5] = FOOTER;
 2700              		.loc 1 230 72 view .LVU789
 2701 0306 77EE877A 		vadd.f32	s15, s15, s14
 230:src/unit/robot/robot.cpp ****                               send_data[5] = FOOTER;
 2702              		.loc 1 230 44 view .LVU790
 2703 030a FCEEE77A 		vcvt.u32.f32	s15, s15
 2704 030e 17EE903A 		vmov	r3, s15	@ int
 2705 0312 8DF80830 		strb	r3, [sp, #8]
 231:src/unit/robot/robot.cpp ****                               serial3.write(send_data, data_size);
 2706              		.loc 1 231 31 is_stmt 1 view .LVU791
 231:src/unit/robot/robot.cpp ****                               serial3.write(send_data, data_size);
 2707              		.loc 1 231 44 is_stmt 0 view .LVU792
 2708 0316 AA23     		movs	r3, #170
 2709 0318 8DF80930 		strb	r3, [sp, #9]
 232:src/unit/robot/robot.cpp ****                         } else if (info.Ui.sub_item == 2) {
 2710              		.loc 1 232 31 is_stmt 1 view .LVU793
 2711              	.LVL216:
 2712              	.LBB273:
 2713              	.LBI273:
  61:Lib/BufferedSerial/BufferedSerial.hpp ****             HAL_UART_Transmit(_huart, (uint8_t *)data, len, 100);
 2714              		.loc 2 61 12 view .LVU794
 2715              	.LBB274:
 2716              		.loc 2 62 13 view .LVU795
 2717              		.loc 2 62 30 is_stmt 0 view .LVU796
 2718 031c 05F58055 		add	r5, r5, #4096
 2719              	.LVL217:
 2720              		.loc 2 62 30 view .LVU797
 2721 0320 6423     		movs	r3, #100
 2722 0322 0622     		movs	r2, #6
 2723 0324 01A9     		add	r1, sp, #4
 2724              	.LVL218:
 2725              		.loc 2 62 30 view .LVU798
 2726 0326 D5F82C01 		ldr	r0, [r5, #300]
 2727 032a FFF7FEFF 		bl	HAL_UART_Transmit
 2728              	.LVL219:
 2729              		.loc 2 62 30 view .LVU799
 2730              	.LBE274:
 2731              	.LBE273:
 2732              	.LBE272:
ARM GAS  /var/folders/5c/srt4fy4j1pd641bjfx75k5000000gn/T//ccvAokLV.s 			page 65


 2733 032e DDE6     		b	.L90
 2734              	.L107:
 2735              		.align	3
 2736              	.L106:
 2737 0330 7B14AE47 		.word	1202590843
 2738 0334 E17A843F 		.word	1065646817
 2739 0338 00000000 		.word	_ZZN5Robot6UiUartEvE5index
 2740 033c 00000000 		.word	_ZZN5Robot6UiUartEvE9recv_data
 2741 0340 00000000 		.word	_ZZN5Robot6UiUartEvE9recv_byte
 2742 0344 9F860100 		.word	99999
 2743 0348 0000E03F 		.word	1071644672
 2744 034c 00805640 		.word	1079410688
 2745 0350 0000C842 		.word	1120403456
 2746 0354 0000FE42 		.word	1123942400
 2747              	.LVL220:
 2748              	.L105:
 2749              	.LBB275:
 2750              	.LBB268:
 234:src/unit/robot/robot.cpp ****                               uint8_t send_data[data_size];
 2751              		.loc 1 234 31 is_stmt 1 view .LVU800
 235:src/unit/robot/robot.cpp ****                               send_data[0] = HEADER;
 2752              		.loc 1 235 31 view .LVU801
 236:src/unit/robot/robot.cpp ****                               send_data[1] = info.Cam.yellow_goal_dir * 0.5 + 90;
 2753              		.loc 1 236 31 view .LVU802
 236:src/unit/robot/robot.cpp ****                               send_data[1] = info.Cam.yellow_goal_dir * 0.5 + 90;
 2754              		.loc 1 236 44 is_stmt 0 view .LVU803
 2755 0358 FF23     		movs	r3, #255
 2756 035a 8DF80430 		strb	r3, [sp, #4]
 237:src/unit/robot/robot.cpp ****                               send_data[2] = info.Cam.yellow_goal_dis;
 2757              		.loc 1 237 31 is_stmt 1 view .LVU804
 237:src/unit/robot/robot.cpp ****                               send_data[2] = info.Cam.yellow_goal_dis;
 2758              		.loc 1 237 71 is_stmt 0 view .LVU805
 2759 035e B5F96800 		ldrsh	r0, [r5, #104]
 2760 0362 FFF7FEFF 		bl	__aeabi_i2d
 2761              	.LVL221:
 2762 0366 0022     		movs	r2, #0
 2763 0368 174B     		ldr	r3, .L108
 2764 036a FFF7FEFF 		bl	__aeabi_dmul
 2765              	.LVL222:
 237:src/unit/robot/robot.cpp ****                               send_data[2] = info.Cam.yellow_goal_dis;
 2766              		.loc 1 237 77 view .LVU806
 2767 036e 0022     		movs	r2, #0
 2768 0370 164B     		ldr	r3, .L108+4
 2769 0372 FFF7FEFF 		bl	__aeabi_dadd
 2770              	.LVL223:
 237:src/unit/robot/robot.cpp ****                               send_data[2] = info.Cam.yellow_goal_dis;
 2771              		.loc 1 237 44 view .LVU807
 2772 0376 FFF7FEFF 		bl	__aeabi_d2uiz
 2773              	.LVL224:
 2774 037a 8DF80500 		strb	r0, [sp, #5]
 238:src/unit/robot/robot.cpp ****                               send_data[3] = info.Cam.blue_goal_dir * 0.5 + 90;
 2775              		.loc 1 238 31 is_stmt 1 view .LVU808
 238:src/unit/robot/robot.cpp ****                               send_data[3] = info.Cam.blue_goal_dir * 0.5 + 90;
 2776              		.loc 1 238 55 is_stmt 0 view .LVU809
 2777 037e 95F86A30 		ldrb	r3, [r5, #106]	@ zero_extendqisi2
 238:src/unit/robot/robot.cpp ****                               send_data[3] = info.Cam.blue_goal_dir * 0.5 + 90;
 2778              		.loc 1 238 44 view .LVU810
ARM GAS  /var/folders/5c/srt4fy4j1pd641bjfx75k5000000gn/T//ccvAokLV.s 			page 66


 2779 0382 8DF80630 		strb	r3, [sp, #6]
 239:src/unit/robot/robot.cpp ****                               send_data[4] = info.Cam.blue_goal_dis;
 2780              		.loc 1 239 31 is_stmt 1 view .LVU811
 239:src/unit/robot/robot.cpp ****                               send_data[4] = info.Cam.blue_goal_dis;
 2781              		.loc 1 239 69 is_stmt 0 view .LVU812
 2782 0386 B5F96C00 		ldrsh	r0, [r5, #108]
 2783 038a FFF7FEFF 		bl	__aeabi_i2d
 2784              	.LVL225:
 2785 038e 0022     		movs	r2, #0
 2786 0390 0D4B     		ldr	r3, .L108
 2787 0392 FFF7FEFF 		bl	__aeabi_dmul
 2788              	.LVL226:
 239:src/unit/robot/robot.cpp ****                               send_data[4] = info.Cam.blue_goal_dis;
 2789              		.loc 1 239 75 view .LVU813
 2790 0396 0022     		movs	r2, #0
 2791 0398 0C4B     		ldr	r3, .L108+4
 2792 039a FFF7FEFF 		bl	__aeabi_dadd
 2793              	.LVL227:
 239:src/unit/robot/robot.cpp ****                               send_data[4] = info.Cam.blue_goal_dis;
 2794              		.loc 1 239 44 view .LVU814
 2795 039e FFF7FEFF 		bl	__aeabi_d2uiz
 2796              	.LVL228:
 2797 03a2 8DF80700 		strb	r0, [sp, #7]
 240:src/unit/robot/robot.cpp ****                               send_data[5] = FOOTER;
 2798              		.loc 1 240 31 is_stmt 1 view .LVU815
 240:src/unit/robot/robot.cpp ****                               send_data[5] = FOOTER;
 2799              		.loc 1 240 55 is_stmt 0 view .LVU816
 2800 03a6 95F86E30 		ldrb	r3, [r5, #110]	@ zero_extendqisi2
 240:src/unit/robot/robot.cpp ****                               send_data[5] = FOOTER;
 2801              		.loc 1 240 44 view .LVU817
 2802 03aa 8DF80830 		strb	r3, [sp, #8]
 241:src/unit/robot/robot.cpp ****                               serial3.write(send_data, data_size);
 2803              		.loc 1 241 31 is_stmt 1 view .LVU818
 241:src/unit/robot/robot.cpp ****                               serial3.write(send_data, data_size);
 2804              		.loc 1 241 44 is_stmt 0 view .LVU819
 2805 03ae AA23     		movs	r3, #170
 2806 03b0 8DF80930 		strb	r3, [sp, #9]
 242:src/unit/robot/robot.cpp ****                         } else if (info.Ui.sub_item == 3) {
 2807              		.loc 1 242 31 is_stmt 1 view .LVU820
 2808              	.LVL229:
 2809              	.LBB269:
 2810              	.LBI269:
  61:Lib/BufferedSerial/BufferedSerial.hpp ****             HAL_UART_Transmit(_huart, (uint8_t *)data, len, 100);
 2811              		.loc 2 61 12 view .LVU821
 2812              	.LBB270:
 2813              		.loc 2 62 13 view .LVU822
 2814              		.loc 2 62 30 is_stmt 0 view .LVU823
 2815 03b4 05F58055 		add	r5, r5, #4096
 2816              	.LVL230:
 2817              		.loc 2 62 30 view .LVU824
 2818 03b8 6423     		movs	r3, #100
 2819 03ba 0622     		movs	r2, #6
 2820 03bc 01A9     		add	r1, sp, #4
 2821              	.LVL231:
 2822              		.loc 2 62 30 view .LVU825
 2823 03be D5F82C01 		ldr	r0, [r5, #300]
 2824 03c2 FFF7FEFF 		bl	HAL_UART_Transmit
ARM GAS  /var/folders/5c/srt4fy4j1pd641bjfx75k5000000gn/T//ccvAokLV.s 			page 67


 2825              	.LVL232:
 2826              		.loc 2 62 30 view .LVU826
 2827              	.LBE270:
 2828              	.LBE269:
 2829              	.LBE268:
 2830 03c6 91E6     		b	.L90
 2831              	.L109:
 2832              		.align	2
 2833              	.L108:
 2834 03c8 0000E03F 		.word	1071644672
 2835 03cc 00805640 		.word	1079410688
 2836              	.LBE275:
 2837              	.LBE277:
 2838              	.LBE283:
 2839              	.LBE291:
 2840              	.LBE300:
 2841              	.LBE307:
 2842              	.LBE314:
 2843              	.LBE321:
 2844              	.LBE329:
 2845              		.cfi_endproc
 2846              	.LFE291:
 2847              		.fnend
 2849              		.global	__aeabi_dcmpgt
 2850              		.section	.text._ZN5Robot7CamUartEv,"ax",%progbits
 2851              		.align	1
 2852              		.global	_ZN5Robot7CamUartEv
 2853              		.syntax unified
 2854              		.thumb
 2855              		.thumb_func
 2857              	_ZN5Robot7CamUartEv:
 2858              		.fnstart
 2859              	.LVL233:
 2860              	.LFB292:
 261:src/unit/robot/robot.cpp **** 
 262:src/unit/robot/robot.cpp **** void Robot::CamUart() {
 2861              		.loc 1 262 23 is_stmt 1 view -0
 2862              		.cfi_startproc
 2863              		@ args = 0, pretend = 0, frame = 8
 2864              		@ frame_needed = 0, uses_anonymous_args = 0
 2865              		.loc 1 262 23 is_stmt 0 view .LVU828
 2866 0000 2DE9F04F 		push	{r4, r5, r6, r7, r8, r9, r10, fp, lr}
 2867              		.save {r4, r5, r6, r7, r8, r9, r10, fp, lr}
 2868              	.LCFI16:
 2869              		.cfi_def_cfa_offset 36
 2870              		.cfi_offset 4, -36
 2871              		.cfi_offset 5, -32
 2872              		.cfi_offset 6, -28
 2873              		.cfi_offset 7, -24
 2874              		.cfi_offset 8, -20
 2875              		.cfi_offset 9, -16
 2876              		.cfi_offset 10, -12
 2877              		.cfi_offset 11, -8
 2878              		.cfi_offset 14, -4
 2879 0004 2DED048B 		vpush.64	{d8, d9}
 2880              		.vsave {d8, d9}
 2881              	.LCFI17:
ARM GAS  /var/folders/5c/srt4fy4j1pd641bjfx75k5000000gn/T//ccvAokLV.s 			page 68


 2882              		.cfi_def_cfa_offset 52
 2883              		.cfi_offset 80, -52
 2884              		.cfi_offset 81, -48
 2885              		.cfi_offset 82, -44
 2886              		.cfi_offset 83, -40
 2887              		.pad #12
 2888 0008 83B0     		sub	sp, sp, #12
 2889              	.LCFI18:
 2890              		.cfi_def_cfa_offset 64
 2891 000a 0546     		mov	r5, r0
 263:src/unit/robot/robot.cpp ****       while (serial4.available()) {
 2892              		.loc 1 263 7 is_stmt 1 view .LVU829
 2893 000c 0BE0     		b	.L111
 2894              	.LVL234:
 2895              	.L142:
 2896              	.LBB330:
 2897              	.LBB331:
 264:src/unit/robot/robot.cpp ****             static const uint8_t HEADER = 0xFF;   // ヘッダ
 265:src/unit/robot/robot.cpp ****             static const uint8_t FOOTER = 0xAA;   // フッタ
 266:src/unit/robot/robot.cpp ****             static const uint8_t data_size = 11;  // データのサイズ
 267:src/unit/robot/robot.cpp ****             static uint8_t index = 0;             // 受信したデータのインデックスカ
 268:src/unit/robot/robot.cpp ****             static uint8_t recv_data[data_size];  // 受信したデータ
 269:src/unit/robot/robot.cpp ****             static uint8_t recv_byte;
 270:src/unit/robot/robot.cpp **** 
 271:src/unit/robot/robot.cpp ****             static int16_t pre_ball_x = 0;
 272:src/unit/robot/robot.cpp ****             static int16_t pre_ball_y = 0;
 273:src/unit/robot/robot.cpp **** 
 274:src/unit/robot/robot.cpp ****             recv_byte = serial4.read();
 275:src/unit/robot/robot.cpp ****             if (index == 0) {
 276:src/unit/robot/robot.cpp ****                   if (recv_byte == HEADER) {
 277:src/unit/robot/robot.cpp ****                         index++;
 2898              		.loc 1 277 25 view .LVU830
 2899              		.loc 1 277 30 is_stmt 0 view .LVU831
 2900 000e 0133     		adds	r3, r3, #1
 2901 0010 144A     		ldr	r2, .L146
 2902 0012 1370     		strb	r3, [r2]
 2903 0014 07E0     		b	.L111
 2904              	.L112:
 2905              	.LBE331:
 2906              	.LBE330:
 278:src/unit/robot/robot.cpp ****                   } else {
 279:src/unit/robot/robot.cpp ****                         index = 0;
 280:src/unit/robot/robot.cpp ****                   }
 281:src/unit/robot/robot.cpp ****             } else if (index == (data_size + 1)) {
 2907              		.loc 1 281 20 is_stmt 1 view .LVU832
 2908              	.LBB343:
 2909              	.LBB341:
 2910              	.LBB332:
 2911 0016 0C2B     		cmp	r3, #12
 2912 0018 1DD0     		beq	.L140
 282:src/unit/robot/robot.cpp ****                   if (recv_byte == FOOTER) {
 283:src/unit/robot/robot.cpp ****                         if (info.Cam.is_initialized == 0) info.Cam.is_initialized = 1;
 284:src/unit/robot/robot.cpp ****                         int16_t wall_own_x, wall_own_y;
 285:src/unit/robot/robot.cpp ****                         info.Cam.ball_dir = MyMath::NormalizeDeg180(((((uint16_t)recv_data[0] << 8)
 286:src/unit/robot/robot.cpp ****                         info.Cam.ball_dis = recv_data[2];
 287:src/unit/robot/robot.cpp ****                         info.Cam.yellow_goal_dir = MyMath::NormalizeDeg180(recv_data[3] * 2 - 180 +
 288:src/unit/robot/robot.cpp ****                         info.Cam.yellow_goal_dis = recv_data[4];
ARM GAS  /var/folders/5c/srt4fy4j1pd641bjfx75k5000000gn/T//ccvAokLV.s 			page 69


 289:src/unit/robot/robot.cpp ****                         info.Cam.blue_goal_dir = MyMath::NormalizeDeg180(recv_data[5] * 2 - 180 + i
 290:src/unit/robot/robot.cpp ****                         info.Cam.blue_goal_dis = recv_data[6];
 291:src/unit/robot/robot.cpp ****                         info.Cam.is_goal_front = recv_data[7] & 1;
 292:src/unit/robot/robot.cpp ****                         info.Cam.is_goal_back = (recv_data[7] >> 1) & 1;
 293:src/unit/robot/robot.cpp ****                         wall_own_x = (recv_data[8] - 127) * 2;
 294:src/unit/robot/robot.cpp ****                         wall_own_y = (recv_data[9] - 127) * 2;
 295:src/unit/robot/robot.cpp ****                         info.Cam.proximity[0] = recv_data[10];
 296:src/unit/robot/robot.cpp **** 
 297:src/unit/robot/robot.cpp ****                         // ボールをxy座標に変換
 298:src/unit/robot/robot.cpp ****                         info.Cam.ball_x = info.Cam.ball_dis * MyMath::sinDeg(info.Cam.ball_dir);
 299:src/unit/robot/robot.cpp ****                         info.Cam.ball_y = info.Cam.ball_dis * MyMath::cosDeg(info.Cam.ball_dir);
 300:src/unit/robot/robot.cpp **** 
 301:src/unit/robot/robot.cpp ****                         // ボール座標を微分して速度を出す
 302:src/unit/robot/robot.cpp ****                         double elapsed_time = ball_vel_timer.read();
 303:src/unit/robot/robot.cpp ****                         if (elapsed_time > 0.1) {
 304:src/unit/robot/robot.cpp ****                               info.Cam.ball_vel_x = ((info.Cam.ball_x - pre_ball_x) / elapsed_time)
 305:src/unit/robot/robot.cpp ****                               info.Cam.ball_vel_y = ((info.Cam.ball_y - pre_ball_y) / elapsed_time)
 306:src/unit/robot/robot.cpp ****                               pre_ball_x = info.Cam.ball_x;
 307:src/unit/robot/robot.cpp ****                               pre_ball_y = info.Cam.ball_y;
 308:src/unit/robot/robot.cpp ****                               info.Cam.ball_vel_x *= 0.5;
 309:src/unit/robot/robot.cpp ****                               info.Cam.ball_vel_y *= 0.5;
 310:src/unit/robot/robot.cpp ****                               if (abs(info.Cam.ball_vel_x) > 2) info.Cam.ball_vel_x = 2 * (info.Cam
 311:src/unit/robot/robot.cpp ****                               if (abs(info.Cam.ball_vel_y) > 2) info.Cam.ball_vel_y = 2 * (info.Cam
 312:src/unit/robot/robot.cpp ****                               ball_vel_x_ave.Compute(info.Cam.ball_vel_x);
 313:src/unit/robot/robot.cpp ****                               ball_vel_y_ave.Compute(info.Cam.ball_vel_y);
 314:src/unit/robot/robot.cpp ****                               info.Cam.ball_vel_x = ball_vel_x_ave.Get();
 315:src/unit/robot/robot.cpp ****                               info.Cam.ball_vel_y = ball_vel_y_ave.Get();
 316:src/unit/robot/robot.cpp ****                               info.Cam.ball_vel = MyMath::sqrt(info.Cam.ball_vel_x * info.Cam.ball_
 317:src/unit/robot/robot.cpp **** 
 318:src/unit/robot/robot.cpp ****                               ball_vel_timer.reset();
 319:src/unit/robot/robot.cpp ****                         }
 320:src/unit/robot/robot.cpp **** 
 321:src/unit/robot/robot.cpp ****                         if (info.Cam.yellow_goal_dis != 0 || info.Cam.blue_goal_dis != 0) {
 322:src/unit/robot/robot.cpp ****                               if (abs(info.Cam.yellow_goal_dir) <= 90 && (abs(info.Cam.blue_goal_di
 323:src/unit/robot/robot.cpp ****                                     info.Cam.ops_goal_dir = info.Cam.yellow_goal_dir;
 324:src/unit/robot/robot.cpp ****                                     info.Cam.ops_goal_dis = info.Cam.yellow_goal_dis;
 325:src/unit/robot/robot.cpp ****                                     info.Cam.own_goal_dir = info.Cam.blue_goal_dir;
 326:src/unit/robot/robot.cpp ****                                     info.Cam.own_goal_dis = info.Cam.blue_goal_dis;
 327:src/unit/robot/robot.cpp ****                               } else if (abs(info.Cam.blue_goal_dir) <= 90 && (abs(info.Cam.yellow_
 328:src/unit/robot/robot.cpp ****                                     info.Cam.ops_goal_dir = info.Cam.blue_goal_dir;
 329:src/unit/robot/robot.cpp ****                                     info.Cam.ops_goal_dis = info.Cam.blue_goal_dis;
 330:src/unit/robot/robot.cpp ****                                     info.Cam.own_goal_dir = info.Cam.yellow_goal_dir;
 331:src/unit/robot/robot.cpp ****                                     info.Cam.own_goal_dis = info.Cam.yellow_goal_dis;
 332:src/unit/robot/robot.cpp ****                               }
 333:src/unit/robot/robot.cpp ****                         }
 334:src/unit/robot/robot.cpp **** 
 335:src/unit/robot/robot.cpp ****                         // 自己位置
 336:src/unit/robot/robot.cpp ****                         int16_t goal_own_x, goal_own_y;
 337:src/unit/robot/robot.cpp ****                         goal_own_x = -info.Cam.ops_goal_dis * MyMath::sinDeg(info.Cam.ops_goal_dir)
 338:src/unit/robot/robot.cpp ****                         goal_own_y = -info.Cam.ops_goal_dis * MyMath::cosDeg(info.Cam.ops_goal_dir)
 339:src/unit/robot/robot.cpp ****                         if (info.Cam.yellow_goal_dis != 0 && info.Cam.blue_goal_dis != 0) {
 340:src/unit/robot/robot.cpp ****                               info.Cam.own_x = (goal_own_x + wall_own_x) / 2;
 341:src/unit/robot/robot.cpp ****                               info.Cam.own_y = (goal_own_y + wall_own_y) / 2;
 342:src/unit/robot/robot.cpp ****                         } else {
 343:src/unit/robot/robot.cpp ****                               info.Cam.own_x = wall_own_x;
 344:src/unit/robot/robot.cpp ****                               info.Cam.own_y = wall_own_y;
 345:src/unit/robot/robot.cpp ****                         }
ARM GAS  /var/folders/5c/srt4fy4j1pd641bjfx75k5000000gn/T//ccvAokLV.s 			page 70


 346:src/unit/robot/robot.cpp ****                         info.Cam.center_dir = MyMath::atan2(info.Cam.own_x, info.Cam.own_y);
 347:src/unit/robot/robot.cpp ****                         info.Cam.center_dis = MyMath::sqrt(info.Cam.own_x * info.Cam.own_x + info.C
 348:src/unit/robot/robot.cpp **** 
 349:src/unit/robot/robot.cpp ****                         serial4.write(info.Imu.yaw * 0.5 + 90);
 350:src/unit/robot/robot.cpp ****                   }
 351:src/unit/robot/robot.cpp ****                   index = 0;
 352:src/unit/robot/robot.cpp ****             } else {
 353:src/unit/robot/robot.cpp ****                   recv_data[index - 1] = recv_byte;
 2913              		.loc 1 353 19 view .LVU833
 2914              		.loc 1 353 35 is_stmt 0 view .LVU834
 2915 001a 5A1E     		subs	r2, r3, #1
 2916              		.loc 1 353 40 view .LVU835
 2917 001c 1249     		ldr	r1, .L146+4
 2918 001e 8854     		strb	r0, [r1, r2]
 354:src/unit/robot/robot.cpp ****                   index++;
 2919              		.loc 1 354 19 is_stmt 1 view .LVU836
 2920              		.loc 1 354 24 is_stmt 0 view .LVU837
 2921 0020 0133     		adds	r3, r3, #1
 2922 0022 104A     		ldr	r2, .L146
 2923 0024 1370     		strb	r3, [r2]
 2924              	.L111:
 2925              		.loc 1 354 24 view .LVU838
 2926              	.LBE332:
 2927              	.LBE341:
 2928              	.LBE343:
 263:src/unit/robot/robot.cpp ****             static const uint8_t HEADER = 0xFF;   // ヘッダ
 2929              		.loc 1 263 31 is_stmt 1 view .LVU839
 2930 0026 05F58954 		add	r4, r5, #4384
 2931 002a 1C34     		adds	r4, r4, #28
 2932 002c 2046     		mov	r0, r4
 2933 002e FFF7FEFF 		bl	_ZN14BufferedSerial9availableEv
 2934              	.LVL235:
 2935 0032 0028     		cmp	r0, #0
 2936 0034 00F02982 		beq	.L141
 2937              	.LBB344:
 264:src/unit/robot/robot.cpp ****             static const uint8_t FOOTER = 0xAA;   // フッタ
 2938              		.loc 1 264 13 view .LVU840
 265:src/unit/robot/robot.cpp ****             static const uint8_t data_size = 11;  // データのサイズ
 2939              		.loc 1 265 13 view .LVU841
 266:src/unit/robot/robot.cpp ****             static uint8_t index = 0;             // 受信したデータのインデックスカ
 2940              		.loc 1 266 13 view .LVU842
 267:src/unit/robot/robot.cpp ****             static uint8_t recv_data[data_size];  // 受信したデータ
 2941              		.loc 1 267 13 view .LVU843
 268:src/unit/robot/robot.cpp ****             static uint8_t recv_byte;
 2942              		.loc 1 268 13 view .LVU844
 269:src/unit/robot/robot.cpp **** 
 2943              		.loc 1 269 13 view .LVU845
 271:src/unit/robot/robot.cpp ****             static int16_t pre_ball_y = 0;
 2944              		.loc 1 271 13 view .LVU846
 272:src/unit/robot/robot.cpp **** 
 2945              		.loc 1 272 13 view .LVU847
 274:src/unit/robot/robot.cpp ****             if (index == 0) {
 2946              		.loc 1 274 13 view .LVU848
 274:src/unit/robot/robot.cpp ****             if (index == 0) {
 2947              		.loc 1 274 37 is_stmt 0 view .LVU849
 2948 0038 2046     		mov	r0, r4
 2949 003a FFF7FEFF 		bl	_ZN14BufferedSerial4readEv
ARM GAS  /var/folders/5c/srt4fy4j1pd641bjfx75k5000000gn/T//ccvAokLV.s 			page 71


 2950              	.LVL236:
 274:src/unit/robot/robot.cpp ****             if (index == 0) {
 2951              		.loc 1 274 23 view .LVU850
 2952 003e 0B4B     		ldr	r3, .L146+8
 2953 0040 1870     		strb	r0, [r3]
 275:src/unit/robot/robot.cpp ****                   if (recv_byte == HEADER) {
 2954              		.loc 1 275 13 is_stmt 1 view .LVU851
 2955              	.LBB342:
 275:src/unit/robot/robot.cpp ****                   if (recv_byte == HEADER) {
 2956              		.loc 1 275 23 is_stmt 0 view .LVU852
 2957 0042 084B     		ldr	r3, .L146
 2958 0044 1B78     		ldrb	r3, [r3]	@ zero_extendqisi2
 275:src/unit/robot/robot.cpp ****                   if (recv_byte == HEADER) {
 2959              		.loc 1 275 13 view .LVU853
 2960 0046 002B     		cmp	r3, #0
 2961 0048 E5D1     		bne	.L112
 276:src/unit/robot/robot.cpp ****                         index++;
 2962              		.loc 1 276 19 is_stmt 1 view .LVU854
 2963 004a FF28     		cmp	r0, #255
 2964 004c DFD0     		beq	.L142
 279:src/unit/robot/robot.cpp ****                   }
 2965              		.loc 1 279 25 view .LVU855
 279:src/unit/robot/robot.cpp ****                   }
 2966              		.loc 1 279 31 is_stmt 0 view .LVU856
 2967 004e 054B     		ldr	r3, .L146
 2968 0050 0022     		movs	r2, #0
 2969 0052 1A70     		strb	r2, [r3]
 2970 0054 E7E7     		b	.L111
 2971              	.L140:
 2972              	.LBB340:
 2973              	.LBB333:
 282:src/unit/robot/robot.cpp ****                         if (info.Cam.is_initialized == 0) info.Cam.is_initialized = 1;
 2974              		.loc 1 282 19 is_stmt 1 view .LVU857
 2975              	.LBB334:
 2976 0056 AA28     		cmp	r0, #170
 2977 0058 0AD0     		beq	.L143
 2978              	.L116:
 2979              	.LBE334:
 351:src/unit/robot/robot.cpp ****             } else {
 2980              		.loc 1 351 19 view .LVU858
 351:src/unit/robot/robot.cpp ****             } else {
 2981              		.loc 1 351 25 is_stmt 0 view .LVU859
 2982 005a 024B     		ldr	r3, .L146
 2983 005c 0022     		movs	r2, #0
 2984 005e 1A70     		strb	r2, [r3]
 2985              	.LBE333:
 2986 0060 E1E7     		b	.L111
 2987              	.L147:
 2988 0062 00BF     		.align	2
 2989              	.L146:
 2990 0064 00000000 		.word	_ZZN5Robot7CamUartEvE5index
 2991 0068 00000000 		.word	_ZZN5Robot7CamUartEvE9recv_data
 2992 006c 00000000 		.word	_ZZN5Robot7CamUartEvE9recv_byte
 2993              	.L143:
 2994              	.LBB339:
 2995              	.LBB338:
 2996              	.LBB335:
ARM GAS  /var/folders/5c/srt4fy4j1pd641bjfx75k5000000gn/T//ccvAokLV.s 			page 72


 283:src/unit/robot/robot.cpp ****                         int16_t wall_own_x, wall_own_y;
 2997              		.loc 1 283 25 is_stmt 1 view .LVU860
 283:src/unit/robot/robot.cpp ****                         int16_t wall_own_x, wall_own_y;
 2998              		.loc 1 283 38 is_stmt 0 view .LVU861
 2999 0070 95F84C30 		ldrb	r3, [r5, #76]	@ zero_extendqisi2
 283:src/unit/robot/robot.cpp ****                         int16_t wall_own_x, wall_own_y;
 3000              		.loc 1 283 25 view .LVU862
 3001 0074 13B9     		cbnz	r3, .L117
 283:src/unit/robot/robot.cpp ****                         int16_t wall_own_x, wall_own_y;
 3002              		.loc 1 283 59 is_stmt 1 discriminator 1 view .LVU863
 283:src/unit/robot/robot.cpp ****                         int16_t wall_own_x, wall_own_y;
 3003              		.loc 1 283 83 is_stmt 0 discriminator 1 view .LVU864
 3004 0076 0123     		movs	r3, #1
 3005 0078 85F84C30 		strb	r3, [r5, #76]
 3006              	.L117:
 284:src/unit/robot/robot.cpp ****                         info.Cam.ball_dir = MyMath::NormalizeDeg180(((((uint16_t)recv_data[0] << 8)
 3007              		.loc 1 284 25 is_stmt 1 view .LVU865
 285:src/unit/robot/robot.cpp ****                         info.Cam.ball_dis = recv_data[2];
 3008              		.loc 1 285 25 view .LVU866
 285:src/unit/robot/robot.cpp ****                         info.Cam.ball_dis = recv_data[2];
 3009              		.loc 1 285 93 is_stmt 0 view .LVU867
 3010 007c DE4F     		ldr	r7, .L148+16
 3011 007e 3A78     		ldrb	r2, [r7]	@ zero_extendqisi2
 285:src/unit/robot/robot.cpp ****                         info.Cam.ball_dis = recv_data[2];
 3012              		.loc 1 285 134 view .LVU868
 3013 0080 7B78     		ldrb	r3, [r7, #1]	@ zero_extendqisi2
 285:src/unit/robot/robot.cpp ****                         info.Cam.ball_dis = recv_data[2];
 3014              		.loc 1 285 111 view .LVU869
 3015 0082 43EA0223 		orr	r3, r3, r2, lsl #8
 285:src/unit/robot/robot.cpp ****                         info.Cam.ball_dis = recv_data[2];
 3016              		.loc 1 285 147 view .LVU870
 3017 0086 A3F50043 		sub	r3, r3, #32768
 285:src/unit/robot/robot.cpp ****                         info.Cam.ball_dis = recv_data[2];
 3018              		.loc 1 285 168 view .LVU871
 3019 008a B5F98800 		ldrsh	r0, [r5, #136]
 285:src/unit/robot/robot.cpp ****                         info.Cam.ball_dis = recv_data[2];
 3020              		.loc 1 285 68 view .LVU872
 3021 008e 1844     		add	r0, r0, r3
 3022 0090 FFF7FEFF 		bl	NormalizeDeg180
 3023              	.LVL237:
 285:src/unit/robot/robot.cpp ****                         info.Cam.ball_dis = recv_data[2];
 3024              		.loc 1 285 43 view .LVU873
 3025 0094 A5F84E00 		strh	r0, [r5, #78]	@ movhi
 286:src/unit/robot/robot.cpp ****                         info.Cam.yellow_goal_dir = MyMath::NormalizeDeg180(recv_data[3] * 2 - 180 +
 3026              		.loc 1 286 25 is_stmt 1 view .LVU874
 286:src/unit/robot/robot.cpp ****                         info.Cam.yellow_goal_dir = MyMath::NormalizeDeg180(recv_data[3] * 2 - 180 +
 3027              		.loc 1 286 56 is_stmt 0 view .LVU875
 3028 0098 BB78     		ldrb	r3, [r7, #2]	@ zero_extendqisi2
 286:src/unit/robot/robot.cpp ****                         info.Cam.yellow_goal_dir = MyMath::NormalizeDeg180(recv_data[3] * 2 - 180 +
 3029              		.loc 1 286 43 view .LVU876
 3030 009a 85F85030 		strb	r3, [r5, #80]
 287:src/unit/robot/robot.cpp ****                         info.Cam.yellow_goal_dis = recv_data[4];
 3031              		.loc 1 287 25 is_stmt 1 view .LVU877
 287:src/unit/robot/robot.cpp ****                         info.Cam.yellow_goal_dis = recv_data[4];
 3032              		.loc 1 287 87 is_stmt 0 view .LVU878
 3033 009e FB78     		ldrb	r3, [r7, #3]	@ zero_extendqisi2
 287:src/unit/robot/robot.cpp ****                         info.Cam.yellow_goal_dis = recv_data[4];
ARM GAS  /var/folders/5c/srt4fy4j1pd641bjfx75k5000000gn/T//ccvAokLV.s 			page 73


 3034              		.loc 1 287 93 view .LVU879
 3035 00a0 5A3B     		subs	r3, r3, #90
 287:src/unit/robot/robot.cpp ****                         info.Cam.yellow_goal_dis = recv_data[4];
 3036              		.loc 1 287 112 view .LVU880
 3037 00a2 B5F98800 		ldrsh	r0, [r5, #136]
 287:src/unit/robot/robot.cpp ****                         info.Cam.yellow_goal_dis = recv_data[4];
 3038              		.loc 1 287 75 view .LVU881
 3039 00a6 00EB4300 		add	r0, r0, r3, lsl #1
 3040 00aa FFF7FEFF 		bl	NormalizeDeg180
 3041              	.LVL238:
 287:src/unit/robot/robot.cpp ****                         info.Cam.yellow_goal_dis = recv_data[4];
 3042              		.loc 1 287 50 view .LVU882
 3043 00ae A5F86800 		strh	r0, [r5, #104]	@ movhi
 288:src/unit/robot/robot.cpp ****                         info.Cam.blue_goal_dir = MyMath::NormalizeDeg180(recv_data[5] * 2 - 180 + i
 3044              		.loc 1 288 25 is_stmt 1 view .LVU883
 288:src/unit/robot/robot.cpp ****                         info.Cam.blue_goal_dir = MyMath::NormalizeDeg180(recv_data[5] * 2 - 180 + i
 3045              		.loc 1 288 63 is_stmt 0 view .LVU884
 3046 00b2 3B79     		ldrb	r3, [r7, #4]	@ zero_extendqisi2
 288:src/unit/robot/robot.cpp ****                         info.Cam.blue_goal_dir = MyMath::NormalizeDeg180(recv_data[5] * 2 - 180 + i
 3047              		.loc 1 288 50 view .LVU885
 3048 00b4 85F86A30 		strb	r3, [r5, #106]
 289:src/unit/robot/robot.cpp ****                         info.Cam.blue_goal_dis = recv_data[6];
 3049              		.loc 1 289 25 is_stmt 1 view .LVU886
 289:src/unit/robot/robot.cpp ****                         info.Cam.blue_goal_dis = recv_data[6];
 3050              		.loc 1 289 85 is_stmt 0 view .LVU887
 3051 00b8 7B79     		ldrb	r3, [r7, #5]	@ zero_extendqisi2
 289:src/unit/robot/robot.cpp ****                         info.Cam.blue_goal_dis = recv_data[6];
 3052              		.loc 1 289 91 view .LVU888
 3053 00ba 5A3B     		subs	r3, r3, #90
 289:src/unit/robot/robot.cpp ****                         info.Cam.blue_goal_dis = recv_data[6];
 3054              		.loc 1 289 110 view .LVU889
 3055 00bc B5F98800 		ldrsh	r0, [r5, #136]
 289:src/unit/robot/robot.cpp ****                         info.Cam.blue_goal_dis = recv_data[6];
 3056              		.loc 1 289 73 view .LVU890
 3057 00c0 00EB4300 		add	r0, r0, r3, lsl #1
 3058 00c4 FFF7FEFF 		bl	NormalizeDeg180
 3059              	.LVL239:
 289:src/unit/robot/robot.cpp ****                         info.Cam.blue_goal_dis = recv_data[6];
 3060              		.loc 1 289 48 view .LVU891
 3061 00c8 A5F86C00 		strh	r0, [r5, #108]	@ movhi
 290:src/unit/robot/robot.cpp ****                         info.Cam.is_goal_front = recv_data[7] & 1;
 3062              		.loc 1 290 25 is_stmt 1 view .LVU892
 290:src/unit/robot/robot.cpp ****                         info.Cam.is_goal_front = recv_data[7] & 1;
 3063              		.loc 1 290 61 is_stmt 0 view .LVU893
 3064 00cc BB79     		ldrb	r3, [r7, #6]	@ zero_extendqisi2
 290:src/unit/robot/robot.cpp ****                         info.Cam.is_goal_front = recv_data[7] & 1;
 3065              		.loc 1 290 48 view .LVU894
 3066 00ce 85F86E30 		strb	r3, [r5, #110]
 291:src/unit/robot/robot.cpp ****                         info.Cam.is_goal_back = (recv_data[7] >> 1) & 1;
 3067              		.loc 1 291 25 is_stmt 1 view .LVU895
 291:src/unit/robot/robot.cpp ****                         info.Cam.is_goal_back = (recv_data[7] >> 1) & 1;
 3068              		.loc 1 291 61 is_stmt 0 view .LVU896
 3069 00d2 FB79     		ldrb	r3, [r7, #7]	@ zero_extendqisi2
 291:src/unit/robot/robot.cpp ****                         info.Cam.is_goal_back = (recv_data[7] >> 1) & 1;
 3070              		.loc 1 291 63 view .LVU897
 3071 00d4 03F00102 		and	r2, r3, #1
 291:src/unit/robot/robot.cpp ****                         info.Cam.is_goal_back = (recv_data[7] >> 1) & 1;
ARM GAS  /var/folders/5c/srt4fy4j1pd641bjfx75k5000000gn/T//ccvAokLV.s 			page 74


 3072              		.loc 1 291 48 view .LVU898
 3073 00d8 85F88020 		strb	r2, [r5, #128]
 292:src/unit/robot/robot.cpp ****                         wall_own_x = (recv_data[8] - 127) * 2;
 3074              		.loc 1 292 25 is_stmt 1 view .LVU899
 292:src/unit/robot/robot.cpp ****                         wall_own_x = (recv_data[8] - 127) * 2;
 3075              		.loc 1 292 69 is_stmt 0 view .LVU900
 3076 00dc C3F34003 		ubfx	r3, r3, #1, #1
 292:src/unit/robot/robot.cpp ****                         wall_own_x = (recv_data[8] - 127) * 2;
 3077              		.loc 1 292 47 view .LVU901
 3078 00e0 85F88130 		strb	r3, [r5, #129]
 293:src/unit/robot/robot.cpp ****                         wall_own_y = (recv_data[9] - 127) * 2;
 3079              		.loc 1 293 25 is_stmt 1 view .LVU902
 293:src/unit/robot/robot.cpp ****                         wall_own_y = (recv_data[9] - 127) * 2;
 3080              		.loc 1 293 50 is_stmt 0 view .LVU903
 3081 00e4 3E7A     		ldrb	r6, [r7, #8]	@ zero_extendqisi2
 293:src/unit/robot/robot.cpp ****                         wall_own_y = (recv_data[9] - 127) * 2;
 3082              		.loc 1 293 52 view .LVU904
 3083 00e6 7F3E     		subs	r6, r6, #127
 293:src/unit/robot/robot.cpp ****                         wall_own_y = (recv_data[9] - 127) * 2;
 3084              		.loc 1 293 36 view .LVU905
 3085 00e8 7600     		lsls	r6, r6, #1
 3086              	.LVL240:
 294:src/unit/robot/robot.cpp ****                         info.Cam.proximity[0] = recv_data[10];
 3087              		.loc 1 294 25 is_stmt 1 view .LVU906
 294:src/unit/robot/robot.cpp ****                         info.Cam.proximity[0] = recv_data[10];
 3088              		.loc 1 294 50 is_stmt 0 view .LVU907
 3089 00ea 7C7A     		ldrb	r4, [r7, #9]	@ zero_extendqisi2
 294:src/unit/robot/robot.cpp ****                         info.Cam.proximity[0] = recv_data[10];
 3090              		.loc 1 294 52 view .LVU908
 3091 00ec 7F3C     		subs	r4, r4, #127
 294:src/unit/robot/robot.cpp ****                         info.Cam.proximity[0] = recv_data[10];
 3092              		.loc 1 294 36 view .LVU909
 3093 00ee 6400     		lsls	r4, r4, #1
 3094              	.LVL241:
 295:src/unit/robot/robot.cpp **** 
 3095              		.loc 1 295 25 is_stmt 1 view .LVU910
 295:src/unit/robot/robot.cpp **** 
 3096              		.loc 1 295 61 is_stmt 0 view .LVU911
 3097 00f0 BB7A     		ldrb	r3, [r7, #10]	@ zero_extendqisi2
 295:src/unit/robot/robot.cpp **** 
 3098              		.loc 1 295 47 view .LVU912
 3099 00f2 85F88230 		strb	r3, [r5, #130]
 298:src/unit/robot/robot.cpp ****                         info.Cam.ball_y = info.Cam.ball_dis * MyMath::cosDeg(info.Cam.ball_dir);
 3100              		.loc 1 298 25 is_stmt 1 view .LVU913
 298:src/unit/robot/robot.cpp ****                         info.Cam.ball_y = info.Cam.ball_dis * MyMath::cosDeg(info.Cam.ball_dir);
 3101              		.loc 1 298 52 is_stmt 0 view .LVU914
 3102 00f6 95F85030 		ldrb	r3, [r5, #80]	@ zero_extendqisi2
 3103 00fa 08EE103A 		vmov	s16, r3	@ int
 298:src/unit/robot/robot.cpp ****                         info.Cam.ball_y = info.Cam.ball_dis * MyMath::cosDeg(info.Cam.ball_dir);
 3104              		.loc 1 298 61 view .LVU915
 3105 00fe B8EEC88A 		vcvt.f32.s32	s16, s16
 298:src/unit/robot/robot.cpp ****                         info.Cam.ball_y = info.Cam.ball_dis * MyMath::cosDeg(info.Cam.ball_dir);
 3106              		.loc 1 298 77 view .LVU916
 3107 0102 B5F94E00 		ldrsh	r0, [r5, #78]
 3108 0106 FFF7FEFF 		bl	sinDeg
 3109              	.LVL242:
 298:src/unit/robot/robot.cpp ****                         info.Cam.ball_y = info.Cam.ball_dis * MyMath::cosDeg(info.Cam.ball_dir);
ARM GAS  /var/folders/5c/srt4fy4j1pd641bjfx75k5000000gn/T//ccvAokLV.s 			page 75


 3110              		.loc 1 298 61 view .LVU917
 3111 010a 28EE008A 		vmul.f32	s16, s16, s0
 298:src/unit/robot/robot.cpp ****                         info.Cam.ball_y = info.Cam.ball_dis * MyMath::cosDeg(info.Cam.ball_dir);
 3112              		.loc 1 298 41 view .LVU918
 3113 010e 85ED158A 		vstr.32	s16, [r5, #84]
 299:src/unit/robot/robot.cpp **** 
 3114              		.loc 1 299 25 is_stmt 1 view .LVU919
 299:src/unit/robot/robot.cpp **** 
 3115              		.loc 1 299 52 is_stmt 0 view .LVU920
 3116 0112 95F85030 		ldrb	r3, [r5, #80]	@ zero_extendqisi2
 3117 0116 08EE103A 		vmov	s16, r3	@ int
 299:src/unit/robot/robot.cpp **** 
 3118              		.loc 1 299 61 view .LVU921
 3119 011a B8EEC88A 		vcvt.f32.s32	s16, s16
 299:src/unit/robot/robot.cpp **** 
 3120              		.loc 1 299 77 view .LVU922
 3121 011e B5F94E00 		ldrsh	r0, [r5, #78]
 3122 0122 FFF7FEFF 		bl	cosDeg
 3123              	.LVL243:
 299:src/unit/robot/robot.cpp **** 
 3124              		.loc 1 299 61 view .LVU923
 3125 0126 28EE008A 		vmul.f32	s16, s16, s0
 299:src/unit/robot/robot.cpp **** 
 3126              		.loc 1 299 41 view .LVU924
 3127 012a 85ED168A 		vstr.32	s16, [r5, #88]
 302:src/unit/robot/robot.cpp ****                         if (elapsed_time > 0.1) {
 3128              		.loc 1 302 25 is_stmt 1 view .LVU925
 302:src/unit/robot/robot.cpp ****                         if (elapsed_time > 0.1) {
 3129              		.loc 1 302 66 is_stmt 0 view .LVU926
 3130 012e 05F58B57 		add	r7, r5, #4448
 3131 0132 0837     		adds	r7, r7, #8
 3132 0134 3846     		mov	r0, r7
 3133 0136 FFF7FEFF 		bl	_ZN5Timer4readEv
 3134              	.LVL244:
 3135 013a 59EC108B 		vmov	r8, r9, d0
 3136              	.LVL245:
 303:src/unit/robot/robot.cpp ****                               info.Cam.ball_vel_x = ((info.Cam.ball_x - pre_ball_x) / elapsed_time)
 3137              		.loc 1 303 25 is_stmt 1 view .LVU927
 3138 013e AAA3     		adr	r3, .L148
 3139 0140 D3E90023 		ldrd	r2, [r3]
 3140 0144 4046     		mov	r0, r8
 3141 0146 4946     		mov	r1, r9
 3142 0148 FFF7FEFF 		bl	__aeabi_dcmpgt
 3143              	.LVL246:
 3144 014c 0028     		cmp	r0, #0
 3145 014e 00F0B380 		beq	.L118
 304:src/unit/robot/robot.cpp ****                               info.Cam.ball_vel_y = ((info.Cam.ball_y - pre_ball_y) / elapsed_time)
 3146              		.loc 1 304 31 view .LVU928
 304:src/unit/robot/robot.cpp ****                               info.Cam.ball_vel_y = ((info.Cam.ball_y - pre_ball_y) / elapsed_time)
 3147              		.loc 1 304 64 is_stmt 0 view .LVU929
 3148 0152 95ED159A 		vldr.32	s18, [r5, #84]
 304:src/unit/robot/robot.cpp ****                               info.Cam.ball_vel_y = ((info.Cam.ball_y - pre_ball_y) / elapsed_time)
 3149              		.loc 1 304 71 view .LVU930
 3150 0156 DFF8A4B2 		ldr	fp, .L148+20
 3151 015a BBF90030 		ldrsh	r3, [fp]
 3152 015e 07EE903A 		vmov	s15, r3	@ int
 3153 0162 F8EEE77A 		vcvt.f32.s32	s15, s15
ARM GAS  /var/folders/5c/srt4fy4j1pd641bjfx75k5000000gn/T//ccvAokLV.s 			page 76


 3154 0166 79EE677A 		vsub.f32	s15, s18, s15
 3155 016a 17EE900A 		vmov	r0, s15
 3156 016e FFF7FEFF 		bl	__aeabi_f2d
 3157              	.LVL247:
 304:src/unit/robot/robot.cpp ****                               info.Cam.ball_vel_y = ((info.Cam.ball_y - pre_ball_y) / elapsed_time)
 3158              		.loc 1 304 85 view .LVU931
 3159 0172 4246     		mov	r2, r8
 3160 0174 4B46     		mov	r3, r9
 3161 0176 FFF7FEFF 		bl	__aeabi_ddiv
 3162              	.LVL248:
 304:src/unit/robot/robot.cpp ****                               info.Cam.ball_vel_y = ((info.Cam.ball_y - pre_ball_y) / elapsed_time)
 3163              		.loc 1 304 101 view .LVU932
 3164 017a 9DA3     		adr	r3, .L148+8
 3165 017c D3E90023 		ldrd	r2, [r3]
 3166 0180 FFF7FEFF 		bl	__aeabi_dmul
 3167              	.LVL249:
 3168 0184 FFF7FEFF 		bl	__aeabi_d2f
 3169              	.LVL250:
 3170 0188 08EE100A 		vmov	s16, r0
 304:src/unit/robot/robot.cpp ****                               info.Cam.ball_vel_y = ((info.Cam.ball_y - pre_ball_y) / elapsed_time)
 3171              		.loc 1 304 51 view .LVU933
 3172 018c 2866     		str	r0, [r5, #96]	@ float
 305:src/unit/robot/robot.cpp ****                               pre_ball_x = info.Cam.ball_x;
 3173              		.loc 1 305 31 is_stmt 1 view .LVU934
 305:src/unit/robot/robot.cpp ****                               pre_ball_x = info.Cam.ball_x;
 3174              		.loc 1 305 64 is_stmt 0 view .LVU935
 3175 018e D5ED168A 		vldr.32	s17, [r5, #88]
 305:src/unit/robot/robot.cpp ****                               pre_ball_x = info.Cam.ball_x;
 3176              		.loc 1 305 71 view .LVU936
 3177 0192 DFF86CA2 		ldr	r10, .L148+24
 3178 0196 BAF90030 		ldrsh	r3, [r10]
 3179 019a 07EE903A 		vmov	s15, r3	@ int
 3180 019e F8EEE77A 		vcvt.f32.s32	s15, s15
 3181 01a2 78EEE77A 		vsub.f32	s15, s17, s15
 3182 01a6 17EE900A 		vmov	r0, s15
 3183 01aa FFF7FEFF 		bl	__aeabi_f2d
 3184              	.LVL251:
 305:src/unit/robot/robot.cpp ****                               pre_ball_x = info.Cam.ball_x;
 3185              		.loc 1 305 85 view .LVU937
 3186 01ae 4246     		mov	r2, r8
 3187 01b0 4B46     		mov	r3, r9
 3188 01b2 FFF7FEFF 		bl	__aeabi_ddiv
 3189              	.LVL252:
 305:src/unit/robot/robot.cpp ****                               pre_ball_x = info.Cam.ball_x;
 3190              		.loc 1 305 101 view .LVU938
 3191 01b6 8EA3     		adr	r3, .L148+8
 3192 01b8 D3E90023 		ldrd	r2, [r3]
 3193 01bc FFF7FEFF 		bl	__aeabi_dmul
 3194              	.LVL253:
 3195 01c0 FFF7FEFF 		bl	__aeabi_d2f
 3196              	.LVL254:
 3197 01c4 07EE900A 		vmov	s15, r0
 305:src/unit/robot/robot.cpp ****                               pre_ball_x = info.Cam.ball_x;
 3198              		.loc 1 305 51 view .LVU939
 3199 01c8 6866     		str	r0, [r5, #100]	@ float
 306:src/unit/robot/robot.cpp ****                               pre_ball_y = info.Cam.ball_y;
 3200              		.loc 1 306 31 is_stmt 1 view .LVU940
ARM GAS  /var/folders/5c/srt4fy4j1pd641bjfx75k5000000gn/T//ccvAokLV.s 			page 77


 306:src/unit/robot/robot.cpp ****                               pre_ball_y = info.Cam.ball_y;
 3201              		.loc 1 306 42 is_stmt 0 view .LVU941
 3202 01ca BDEEC99A 		vcvt.s32.f32	s18, s18
 3203 01ce 19EE103A 		vmov	r3, s18	@ int
 3204 01d2 ABF80030 		strh	r3, [fp]	@ movhi
 307:src/unit/robot/robot.cpp ****                               info.Cam.ball_vel_x *= 0.5;
 3205              		.loc 1 307 31 is_stmt 1 view .LVU942
 307:src/unit/robot/robot.cpp ****                               info.Cam.ball_vel_x *= 0.5;
 3206              		.loc 1 307 42 is_stmt 0 view .LVU943
 3207 01d6 FDEEE88A 		vcvt.s32.f32	s17, s17
 3208 01da 18EE903A 		vmov	r3, s17	@ int
 3209 01de AAF80030 		strh	r3, [r10]	@ movhi
 308:src/unit/robot/robot.cpp ****                               info.Cam.ball_vel_y *= 0.5;
 3210              		.loc 1 308 31 is_stmt 1 view .LVU944
 308:src/unit/robot/robot.cpp ****                               info.Cam.ball_vel_y *= 0.5;
 3211              		.loc 1 308 51 is_stmt 0 view .LVU945
 3212 01e2 F6EE006A 		vmov.f32	s13, #5.0e-1
 3213 01e6 28EE267A 		vmul.f32	s14, s16, s13
 3214 01ea 85ED187A 		vstr.32	s14, [r5, #96]
 309:src/unit/robot/robot.cpp ****                               if (abs(info.Cam.ball_vel_x) > 2) info.Cam.ball_vel_x = 2 * (info.Cam
 3215              		.loc 1 309 31 is_stmt 1 view .LVU946
 309:src/unit/robot/robot.cpp ****                               if (abs(info.Cam.ball_vel_x) > 2) info.Cam.ball_vel_x = 2 * (info.Cam
 3216              		.loc 1 309 51 is_stmt 0 view .LVU947
 3217 01ee 67EEA67A 		vmul.f32	s15, s15, s13
 3218 01f2 C5ED197A 		vstr.32	s15, [r5, #100]
 310:src/unit/robot/robot.cpp ****                               if (abs(info.Cam.ball_vel_y) > 2) info.Cam.ball_vel_y = 2 * (info.Cam
 3219              		.loc 1 310 31 is_stmt 1 view .LVU948
 310:src/unit/robot/robot.cpp ****                               if (abs(info.Cam.ball_vel_y) > 2) info.Cam.ball_vel_y = 2 * (info.Cam
 3220              		.loc 1 310 35 is_stmt 0 view .LVU949
 3221 01f6 B5EEC07A 		vcmpe.f32	s14, #0
 3222 01fa F1EE10FA 		vmrs	APSR_nzcv, FPSCR
 3223 01fe 40F3D580 		ble	.L144
 3224 0202 F0EE476A 		vmov.f32	s13, s14
 3225              	.L120:
 310:src/unit/robot/robot.cpp ****                               if (abs(info.Cam.ball_vel_y) > 2) info.Cam.ball_vel_y = 2 * (info.Cam
 3226              		.loc 1 310 31 discriminator 4 view .LVU950
 3227 0206 B0EE006A 		vmov.f32	s12, #2.0e+0
 3228 020a F4EEC66A 		vcmpe.f32	s13, s12
 3229 020e F1EE10FA 		vmrs	APSR_nzcv, FPSCR
 3230 0212 05DD     		ble	.L121
 310:src/unit/robot/robot.cpp ****                               if (abs(info.Cam.ball_vel_y) > 2) info.Cam.ball_vel_y = 2 * (info.Cam
 3231              		.loc 1 310 65 is_stmt 1 discriminator 9 view .LVU951
 310:src/unit/robot/robot.cpp ****                               if (abs(info.Cam.ball_vel_y) > 2) info.Cam.ball_vel_y = 2 * (info.Cam
 3232              		.loc 1 310 112 is_stmt 0 discriminator 9 view .LVU952
 3233 0214 87EE266A 		vdiv.f32	s12, s14, s13
 310:src/unit/robot/robot.cpp ****                               if (abs(info.Cam.ball_vel_y) > 2) info.Cam.ball_vel_y = 2 * (info.Cam
 3234              		.loc 1 310 89 discriminator 9 view .LVU953
 3235 0218 36EE066A 		vadd.f32	s12, s12, s12
 310:src/unit/robot/robot.cpp ****                               if (abs(info.Cam.ball_vel_y) > 2) info.Cam.ball_vel_y = 2 * (info.Cam
 3236              		.loc 1 310 85 discriminator 9 view .LVU954
 3237 021c 85ED186A 		vstr.32	s12, [r5, #96]
 3238              	.L121:
 311:src/unit/robot/robot.cpp ****                               ball_vel_x_ave.Compute(info.Cam.ball_vel_x);
 3239              		.loc 1 311 31 is_stmt 1 view .LVU955
 311:src/unit/robot/robot.cpp ****                               ball_vel_x_ave.Compute(info.Cam.ball_vel_x);
 3240              		.loc 1 311 35 is_stmt 0 view .LVU956
 3241 0220 F5EEC07A 		vcmpe.f32	s15, #0
ARM GAS  /var/folders/5c/srt4fy4j1pd641bjfx75k5000000gn/T//ccvAokLV.s 			page 78


 3242 0224 F1EE10FA 		vmrs	APSR_nzcv, FPSCR
 3243 0228 40F3C380 		ble	.L145
 3244 022c B0EE677A 		vmov.f32	s14, s15
 3245              	.L123:
 311:src/unit/robot/robot.cpp ****                               ball_vel_x_ave.Compute(info.Cam.ball_vel_x);
 3246              		.loc 1 311 31 discriminator 4 view .LVU957
 3247 0230 F0EE006A 		vmov.f32	s13, #2.0e+0
 3248 0234 B4EEE67A 		vcmpe.f32	s14, s13
 3249 0238 F1EE10FA 		vmrs	APSR_nzcv, FPSCR
 3250 023c 05DD     		ble	.L124
 311:src/unit/robot/robot.cpp ****                               ball_vel_x_ave.Compute(info.Cam.ball_vel_x);
 3251              		.loc 1 311 65 is_stmt 1 discriminator 9 view .LVU958
 311:src/unit/robot/robot.cpp ****                               ball_vel_x_ave.Compute(info.Cam.ball_vel_x);
 3252              		.loc 1 311 112 is_stmt 0 discriminator 9 view .LVU959
 3253 023e C7EE876A 		vdiv.f32	s13, s15, s14
 311:src/unit/robot/robot.cpp ****                               ball_vel_x_ave.Compute(info.Cam.ball_vel_x);
 3254              		.loc 1 311 89 discriminator 9 view .LVU960
 3255 0242 76EEA66A 		vadd.f32	s13, s13, s13
 311:src/unit/robot/robot.cpp ****                               ball_vel_x_ave.Compute(info.Cam.ball_vel_x);
 3256              		.loc 1 311 85 discriminator 9 view .LVU961
 3257 0246 C5ED196A 		vstr.32	s13, [r5, #100]
 3258              	.L124:
 312:src/unit/robot/robot.cpp ****                               ball_vel_y_ave.Compute(info.Cam.ball_vel_y);
 3259              		.loc 1 312 31 is_stmt 1 view .LVU962
 312:src/unit/robot/robot.cpp ****                               ball_vel_y_ave.Compute(info.Cam.ball_vel_y);
 3260              		.loc 1 312 53 is_stmt 0 view .LVU963
 3261 024a 05F5BF59 		add	r9, r5, #6112
 3262 024e 286E     		ldr	r0, [r5, #96]	@ float
 3263 0250 FFF7FEFF 		bl	__aeabi_f2d
 3264              	.LVL255:
 3265 0254 41EC100B 		vmov	d0, r0, r1
 3266 0258 4846     		mov	r0, r9
 3267 025a FFF7FEFF 		bl	_ZN9MovingAve7ComputeEd
 3268              	.LVL256:
 313:src/unit/robot/robot.cpp ****                               info.Cam.ball_vel_x = ball_vel_x_ave.Get();
 3269              		.loc 1 313 31 is_stmt 1 view .LVU964
 313:src/unit/robot/robot.cpp ****                               info.Cam.ball_vel_x = ball_vel_x_ave.Get();
 3270              		.loc 1 313 53 is_stmt 0 view .LVU965
 3271 025e 05F5D858 		add	r8, r5, #6912
 3272              	.LVL257:
 313:src/unit/robot/robot.cpp ****                               info.Cam.ball_vel_x = ball_vel_x_ave.Get();
 3273              		.loc 1 313 53 view .LVU966
 3274 0262 08F11808 		add	r8, r8, #24
 3275 0266 686E     		ldr	r0, [r5, #100]	@ float
 3276 0268 FFF7FEFF 		bl	__aeabi_f2d
 3277              	.LVL258:
 3278 026c 41EC100B 		vmov	d0, r0, r1
 3279 0270 4046     		mov	r0, r8
 3280 0272 FFF7FEFF 		bl	_ZN9MovingAve7ComputeEd
 3281              	.LVL259:
 314:src/unit/robot/robot.cpp ****                               info.Cam.ball_vel_y = ball_vel_y_ave.Get();
 3282              		.loc 1 314 31 is_stmt 1 view .LVU967
 314:src/unit/robot/robot.cpp ****                               info.Cam.ball_vel_y = ball_vel_y_ave.Get();
 3283              		.loc 1 314 71 is_stmt 0 view .LVU968
 3284 0276 4846     		mov	r0, r9
 3285 0278 FFF7FEFF 		bl	_ZN9MovingAve3GetEv
 3286              	.LVL260:
ARM GAS  /var/folders/5c/srt4fy4j1pd641bjfx75k5000000gn/T//ccvAokLV.s 			page 79


 3287 027c 51EC100B 		vmov	r0, r1, d0
 3288 0280 FFF7FEFF 		bl	__aeabi_d2f
 3289              	.LVL261:
 314:src/unit/robot/robot.cpp ****                               info.Cam.ball_vel_y = ball_vel_y_ave.Get();
 3290              		.loc 1 314 51 view .LVU969
 3291 0284 2866     		str	r0, [r5, #96]	@ float
 315:src/unit/robot/robot.cpp ****                               info.Cam.ball_vel = MyMath::sqrt(info.Cam.ball_vel_x * info.Cam.ball_
 3292              		.loc 1 315 31 is_stmt 1 view .LVU970
 315:src/unit/robot/robot.cpp ****                               info.Cam.ball_vel = MyMath::sqrt(info.Cam.ball_vel_x * info.Cam.ball_
 3293              		.loc 1 315 71 is_stmt 0 view .LVU971
 3294 0286 4046     		mov	r0, r8
 3295 0288 FFF7FEFF 		bl	_ZN9MovingAve3GetEv
 3296              	.LVL262:
 3297 028c 51EC100B 		vmov	r0, r1, d0
 3298 0290 FFF7FEFF 		bl	__aeabi_d2f
 3299              	.LVL263:
 3300 0294 07EE900A 		vmov	s15, r0
 315:src/unit/robot/robot.cpp ****                               info.Cam.ball_vel = MyMath::sqrt(info.Cam.ball_vel_x * info.Cam.ball_
 3301              		.loc 1 315 51 view .LVU972
 3302 0298 6866     		str	r0, [r5, #100]	@ float
 316:src/unit/robot/robot.cpp **** 
 3303              		.loc 1 316 31 is_stmt 1 view .LVU973
 316:src/unit/robot/robot.cpp **** 
 3304              		.loc 1 316 73 is_stmt 0 view .LVU974
 3305 029a 95ED180A 		vldr.32	s0, [r5, #96]
 316:src/unit/robot/robot.cpp **** 
 3306              		.loc 1 316 84 view .LVU975
 3307 029e 20EE000A 		vmul.f32	s0, s0, s0
 316:src/unit/robot/robot.cpp **** 
 3308              		.loc 1 316 128 view .LVU976
 3309 02a2 67EEA77A 		vmul.f32	s15, s15, s15
 316:src/unit/robot/robot.cpp **** 
 3310              		.loc 1 316 63 view .LVU977
 3311 02a6 30EE270A 		vadd.f32	s0, s0, s15
 3312 02aa FFF7FEFF 		bl	sqrt
 3313              	.LVL264:
 316:src/unit/robot/robot.cpp **** 
 3314              		.loc 1 316 49 view .LVU978
 3315 02ae 85ED170A 		vstr.32	s0, [r5, #92]
 318:src/unit/robot/robot.cpp ****                         }
 3316              		.loc 1 318 31 is_stmt 1 view .LVU979
 318:src/unit/robot/robot.cpp ****                         }
 3317              		.loc 1 318 51 is_stmt 0 view .LVU980
 3318 02b2 3846     		mov	r0, r7
 3319 02b4 FFF7FEFF 		bl	_ZN5Timer5resetEv
 3320              	.LVL265:
 3321              	.L118:
 321:src/unit/robot/robot.cpp ****                               if (abs(info.Cam.yellow_goal_dir) <= 90 && (abs(info.Cam.blue_goal_di
 3322              		.loc 1 321 25 is_stmt 1 view .LVU981
 321:src/unit/robot/robot.cpp ****                               if (abs(info.Cam.yellow_goal_dir) <= 90 && (abs(info.Cam.blue_goal_di
 3323              		.loc 1 321 38 is_stmt 0 view .LVU982
 3324 02b8 95F86A20 		ldrb	r2, [r5, #106]	@ zero_extendqisi2
 321:src/unit/robot/robot.cpp ****                               if (abs(info.Cam.yellow_goal_dir) <= 90 && (abs(info.Cam.blue_goal_di
 3325              		.loc 1 321 25 view .LVU983
 3326 02bc 12B9     		cbnz	r2, .L126
 321:src/unit/robot/robot.cpp ****                               if (abs(info.Cam.yellow_goal_dir) <= 90 && (abs(info.Cam.blue_goal_di
 3327              		.loc 1 321 71 discriminator 1 view .LVU984
ARM GAS  /var/folders/5c/srt4fy4j1pd641bjfx75k5000000gn/T//ccvAokLV.s 			page 80


 3328 02be 95F86E30 		ldrb	r3, [r5, #110]	@ zero_extendqisi2
 321:src/unit/robot/robot.cpp ****                               if (abs(info.Cam.yellow_goal_dir) <= 90 && (abs(info.Cam.blue_goal_di
 3329              		.loc 1 321 59 discriminator 1 view .LVU985
 3330 02c2 FBB1     		cbz	r3, .L127
 3331              	.L126:
 322:src/unit/robot/robot.cpp ****                                     info.Cam.ops_goal_dir = info.Cam.yellow_goal_dir;
 3332              		.loc 1 322 31 is_stmt 1 view .LVU986
 322:src/unit/robot/robot.cpp ****                                     info.Cam.ops_goal_dir = info.Cam.yellow_goal_dir;
 3333              		.loc 1 322 35 is_stmt 0 view .LVU987
 3334 02c4 B5F96810 		ldrsh	r1, [r5, #104]
 3335 02c8 81EAE173 		eor	r3, r1, r1, asr #31
 3336 02cc A3EBE173 		sub	r3, r3, r1, asr #31
 3337 02d0 9BB2     		uxth	r3, r3
 322:src/unit/robot/robot.cpp ****                                     info.Cam.ops_goal_dir = info.Cam.yellow_goal_dir;
 3338              		.loc 1 322 31 view .LVU988
 3339 02d2 5A2B     		cmp	r3, #90
 3340 02d4 70D8     		bhi	.L128
 322:src/unit/robot/robot.cpp ****                                     info.Cam.ops_goal_dir = info.Cam.yellow_goal_dir;
 3341              		.loc 1 322 75 discriminator 1 view .LVU989
 3342 02d6 B5F96C70 		ldrsh	r7, [r5, #108]
 3343 02da 87EAE770 		eor	r0, r7, r7, asr #31
 3344 02de A0EBE770 		sub	r0, r0, r7, asr #31
 3345 02e2 80B2     		uxth	r0, r0
 322:src/unit/robot/robot.cpp ****                                     info.Cam.ops_goal_dir = info.Cam.yellow_goal_dir;
 3346              		.loc 1 322 71 discriminator 1 view .LVU990
 3347 02e4 5928     		cmp	r0, #89
 3348 02e6 03D8     		bhi	.L129
 322:src/unit/robot/robot.cpp ****                                     info.Cam.ops_goal_dir = info.Cam.yellow_goal_dir;
 3349              		.loc 1 322 121 discriminator 2 view .LVU991
 3350 02e8 95F86E00 		ldrb	r0, [r5, #110]	@ zero_extendqisi2
 322:src/unit/robot/robot.cpp ****                                     info.Cam.ops_goal_dir = info.Cam.yellow_goal_dir;
 3351              		.loc 1 322 109 discriminator 2 view .LVU992
 3352 02ec 0028     		cmp	r0, #0
 3353 02ee 63D1     		bne	.L128
 3354              	.L129:
 323:src/unit/robot/robot.cpp ****                                     info.Cam.ops_goal_dis = info.Cam.yellow_goal_dis;
 3355              		.loc 1 323 37 is_stmt 1 view .LVU993
 323:src/unit/robot/robot.cpp ****                                     info.Cam.ops_goal_dis = info.Cam.yellow_goal_dis;
 3356              		.loc 1 323 59 is_stmt 0 view .LVU994
 3357 02f0 A5F87410 		strh	r1, [r5, #116]	@ movhi
 324:src/unit/robot/robot.cpp ****                                     info.Cam.own_goal_dir = info.Cam.blue_goal_dir;
 3358              		.loc 1 324 37 is_stmt 1 view .LVU995
 324:src/unit/robot/robot.cpp ****                                     info.Cam.own_goal_dir = info.Cam.blue_goal_dir;
 3359              		.loc 1 324 59 is_stmt 0 view .LVU996
 3360 02f4 85F87620 		strb	r2, [r5, #118]
 325:src/unit/robot/robot.cpp ****                                     info.Cam.own_goal_dis = info.Cam.blue_goal_dis;
 3361              		.loc 1 325 37 is_stmt 1 view .LVU997
 325:src/unit/robot/robot.cpp ****                                     info.Cam.own_goal_dis = info.Cam.blue_goal_dis;
 3362              		.loc 1 325 59 is_stmt 0 view .LVU998
 3363 02f8 A5F87070 		strh	r7, [r5, #112]	@ movhi
 326:src/unit/robot/robot.cpp ****                               } else if (abs(info.Cam.blue_goal_dir) <= 90 && (abs(info.Cam.yellow_
 3364              		.loc 1 326 37 is_stmt 1 view .LVU999
 326:src/unit/robot/robot.cpp ****                               } else if (abs(info.Cam.blue_goal_dir) <= 90 && (abs(info.Cam.yellow_
 3365              		.loc 1 326 70 is_stmt 0 view .LVU1000
 3366 02fc 95F86E30 		ldrb	r3, [r5, #110]	@ zero_extendqisi2
 326:src/unit/robot/robot.cpp ****                               } else if (abs(info.Cam.blue_goal_dir) <= 90 && (abs(info.Cam.yellow_
 3367              		.loc 1 326 59 view .LVU1001
ARM GAS  /var/folders/5c/srt4fy4j1pd641bjfx75k5000000gn/T//ccvAokLV.s 			page 81


 3368 0300 85F87230 		strb	r3, [r5, #114]
 3369              	.L127:
 336:src/unit/robot/robot.cpp ****                         goal_own_x = -info.Cam.ops_goal_dis * MyMath::sinDeg(info.Cam.ops_goal_dir)
 3370              		.loc 1 336 25 is_stmt 1 view .LVU1002
 337:src/unit/robot/robot.cpp ****                         goal_own_y = -info.Cam.ops_goal_dis * MyMath::cosDeg(info.Cam.ops_goal_dir)
 3371              		.loc 1 337 25 view .LVU1003
 337:src/unit/robot/robot.cpp ****                         goal_own_y = -info.Cam.ops_goal_dis * MyMath::cosDeg(info.Cam.ops_goal_dir)
 3372              		.loc 1 337 48 is_stmt 0 view .LVU1004
 3373 0304 95F87630 		ldrb	r3, [r5, #118]	@ zero_extendqisi2
 337:src/unit/robot/robot.cpp ****                         goal_own_y = -info.Cam.ops_goal_dis * MyMath::cosDeg(info.Cam.ops_goal_dir)
 3374              		.loc 1 337 38 view .LVU1005
 3375 0308 5B42     		rsbs	r3, r3, #0
 3376 030a 08EE103A 		vmov	s16, r3	@ int
 337:src/unit/robot/robot.cpp ****                         goal_own_y = -info.Cam.ops_goal_dis * MyMath::cosDeg(info.Cam.ops_goal_dir)
 3377              		.loc 1 337 61 view .LVU1006
 3378 030e B8EEC88A 		vcvt.f32.s32	s16, s16
 337:src/unit/robot/robot.cpp ****                         goal_own_y = -info.Cam.ops_goal_dis * MyMath::cosDeg(info.Cam.ops_goal_dir)
 3379              		.loc 1 337 77 view .LVU1007
 3380 0312 B5F97400 		ldrsh	r0, [r5, #116]
 3381 0316 FFF7FEFF 		bl	sinDeg
 3382              	.LVL266:
 337:src/unit/robot/robot.cpp ****                         goal_own_y = -info.Cam.ops_goal_dis * MyMath::cosDeg(info.Cam.ops_goal_dir)
 3383              		.loc 1 337 61 view .LVU1008
 3384 031a 28EE008A 		vmul.f32	s16, s16, s0
 337:src/unit/robot/robot.cpp ****                         goal_own_y = -info.Cam.ops_goal_dis * MyMath::cosDeg(info.Cam.ops_goal_dir)
 3385              		.loc 1 337 112 view .LVU1009
 3386 031e 95F87230 		ldrb	r3, [r5, #114]	@ zero_extendqisi2
 3387 0322 08EE903A 		vmov	s17, r3	@ int
 337:src/unit/robot/robot.cpp ****                         goal_own_y = -info.Cam.ops_goal_dis * MyMath::cosDeg(info.Cam.ops_goal_dir)
 3388              		.loc 1 337 125 view .LVU1010
 3389 0326 F8EEE88A 		vcvt.f32.s32	s17, s17
 337:src/unit/robot/robot.cpp ****                         goal_own_y = -info.Cam.ops_goal_dis * MyMath::cosDeg(info.Cam.ops_goal_dir)
 3390              		.loc 1 337 141 view .LVU1011
 3391 032a B5F97000 		ldrsh	r0, [r5, #112]
 3392 032e FFF7FEFF 		bl	sinDeg
 3393              	.LVL267:
 337:src/unit/robot/robot.cpp ****                         goal_own_y = -info.Cam.ops_goal_dis * MyMath::cosDeg(info.Cam.ops_goal_dir)
 3394              		.loc 1 337 125 view .LVU1012
 3395 0332 68EE808A 		vmul.f32	s17, s17, s0
 337:src/unit/robot/robot.cpp ****                         goal_own_y = -info.Cam.ops_goal_dis * MyMath::cosDeg(info.Cam.ops_goal_dir)
 3396              		.loc 1 337 101 view .LVU1013
 3397 0336 38EE688A 		vsub.f32	s16, s16, s17
 337:src/unit/robot/robot.cpp ****                         goal_own_y = -info.Cam.ops_goal_dis * MyMath::cosDeg(info.Cam.ops_goal_dir)
 3398              		.loc 1 337 36 view .LVU1014
 3399 033a BDEEC88A 		vcvt.s32.f32	s16, s16
 3400 033e 18EE103A 		vmov	r3, s16	@ int
 3401 0342 1FB2     		sxth	r7, r3
 3402              	.LVL268:
 338:src/unit/robot/robot.cpp ****                         if (info.Cam.yellow_goal_dis != 0 && info.Cam.blue_goal_dis != 0) {
 3403              		.loc 1 338 25 is_stmt 1 view .LVU1015
 338:src/unit/robot/robot.cpp ****                         if (info.Cam.yellow_goal_dis != 0 && info.Cam.blue_goal_dis != 0) {
 3404              		.loc 1 338 48 is_stmt 0 view .LVU1016
 3405 0344 95F87630 		ldrb	r3, [r5, #118]	@ zero_extendqisi2
 338:src/unit/robot/robot.cpp ****                         if (info.Cam.yellow_goal_dis != 0 && info.Cam.blue_goal_dis != 0) {
 3406              		.loc 1 338 38 view .LVU1017
 3407 0348 5B42     		rsbs	r3, r3, #0
